ARM GAS  C:\Users\Zhu\AppData\Local\Temp\ccMjsG6v.s 			page 1


   1              		.syntax unified
   2              		.cpu cortex-m0
   3              		.fpu softvfp
   4              		.eabi_attribute 20, 1
   5              		.eabi_attribute 21, 1
   6              		.eabi_attribute 23, 3
   7              		.eabi_attribute 24, 1
   8              		.eabi_attribute 25, 1
   9              		.eabi_attribute 26, 1
  10              		.eabi_attribute 30, 1
  11              		.eabi_attribute 34, 0
  12              		.eabi_attribute 18, 4
  13              		.thumb
  14              		.syntax unified
  15              		.file	"CapSense_Processing.c"
  16              		.text
  17              	.Ltext0:
  18              		.cfi_sections	.debug_frame
  19              		.section	.text.CapSense_DpInitialize,"ax",%progbits
  20              		.align	2
  21              		.global	CapSense_DpInitialize
  22              		.code	16
  23              		.thumb_func
  24              		.type	CapSense_DpInitialize, %function
  25              	CapSense_DpInitialize:
  26              	.LFB2:
  27              		.file 1 "Generated_Source\\PSoC4\\CapSense_Processing.c"
   1:Generated_Source\PSoC4/CapSense_Processing.c **** /***************************************************************************//**
   2:Generated_Source\PSoC4/CapSense_Processing.c **** * \file CapSense_Processing.c
   3:Generated_Source\PSoC4/CapSense_Processing.c **** * \version 6.0
   4:Generated_Source\PSoC4/CapSense_Processing.c **** *
   5:Generated_Source\PSoC4/CapSense_Processing.c **** * \brief
   6:Generated_Source\PSoC4/CapSense_Processing.c **** *   This file provides the source code for the Data Processing module APIs
   7:Generated_Source\PSoC4/CapSense_Processing.c **** *   of the Component. The Data Processing module is responsible for the
   8:Generated_Source\PSoC4/CapSense_Processing.c **** *   low level raw counts processing provided by the sensing module, maintaining
   9:Generated_Source\PSoC4/CapSense_Processing.c **** *   baseline and difference values and performing high-level widget processing
  10:Generated_Source\PSoC4/CapSense_Processing.c **** *   like updating button status or calculating slider position.
  11:Generated_Source\PSoC4/CapSense_Processing.c **** *
  12:Generated_Source\PSoC4/CapSense_Processing.c **** * \see CapSense v6.0 Datasheet
  13:Generated_Source\PSoC4/CapSense_Processing.c **** *
  14:Generated_Source\PSoC4/CapSense_Processing.c **** *//*****************************************************************************
  15:Generated_Source\PSoC4/CapSense_Processing.c **** * Copyright (2016-2018), Cypress Semiconductor Corporation.
  16:Generated_Source\PSoC4/CapSense_Processing.c **** ********************************************************************************
  17:Generated_Source\PSoC4/CapSense_Processing.c **** * This software is owned by Cypress Semiconductor Corporation (Cypress) and is
  18:Generated_Source\PSoC4/CapSense_Processing.c **** * protected by and subject to worldwide patent protection (United States and
  19:Generated_Source\PSoC4/CapSense_Processing.c **** * foreign), United States copyright laws and international treaty provisions.
  20:Generated_Source\PSoC4/CapSense_Processing.c **** * Cypress hereby grants to licensee a personal, non-exclusive, non-transferable
  21:Generated_Source\PSoC4/CapSense_Processing.c **** * license to copy, use, modify, create derivative works of, and compile the
  22:Generated_Source\PSoC4/CapSense_Processing.c **** * Cypress Source Code and derivative works for the sole purpose of creating
  23:Generated_Source\PSoC4/CapSense_Processing.c **** * custom software in support of licensee product to be used only in conjunction
  24:Generated_Source\PSoC4/CapSense_Processing.c **** * with a Cypress integrated circuit as specified in the applicable agreement.
  25:Generated_Source\PSoC4/CapSense_Processing.c **** * Any reproduction, modification, translation, compilation, or representation of
  26:Generated_Source\PSoC4/CapSense_Processing.c **** * this software except as specified above is prohibited without the express
  27:Generated_Source\PSoC4/CapSense_Processing.c **** * written permission of Cypress.
  28:Generated_Source\PSoC4/CapSense_Processing.c **** *
  29:Generated_Source\PSoC4/CapSense_Processing.c **** * Disclaimer: CYPRESS MAKES NO WARRANTY OF ANY KIND, EXPRESS OR IMPLIED, WITH
  30:Generated_Source\PSoC4/CapSense_Processing.c **** * REGARD TO THIS MATERIAL, INCLUDING, BUT NOT LIMITED TO, THE IMPLIED
ARM GAS  C:\Users\Zhu\AppData\Local\Temp\ccMjsG6v.s 			page 2


  31:Generated_Source\PSoC4/CapSense_Processing.c **** * WARRANTIES OF MERCHANTABILITY AND FITNESS FOR A PARTICULAR PURPOSE.
  32:Generated_Source\PSoC4/CapSense_Processing.c **** * Cypress reserves the right to make changes without further notice to the
  33:Generated_Source\PSoC4/CapSense_Processing.c **** * materials described herein. Cypress does not assume any liability arising out
  34:Generated_Source\PSoC4/CapSense_Processing.c **** * of the application or use of any product or circuit described herein. Cypress
  35:Generated_Source\PSoC4/CapSense_Processing.c **** * does not authorize its products for use as critical components in life-support
  36:Generated_Source\PSoC4/CapSense_Processing.c **** * systems where a malfunction or failure may reasonably be expected to result in
  37:Generated_Source\PSoC4/CapSense_Processing.c **** * significant injury to the user. The inclusion of Cypress' product in a life-
  38:Generated_Source\PSoC4/CapSense_Processing.c **** * support systems application implies that the manufacturer assumes all risk of
  39:Generated_Source\PSoC4/CapSense_Processing.c **** * such use and in doing so indemnifies Cypress against all charges. Use may be
  40:Generated_Source\PSoC4/CapSense_Processing.c **** * limited by and subject to the applicable Cypress software license agreement.
  41:Generated_Source\PSoC4/CapSense_Processing.c **** *******************************************************************************/
  42:Generated_Source\PSoC4/CapSense_Processing.c **** 
  43:Generated_Source\PSoC4/CapSense_Processing.c **** #include "CyLib.h"
  44:Generated_Source\PSoC4/CapSense_Processing.c **** #include "cytypes.h"
  45:Generated_Source\PSoC4/CapSense_Processing.c **** #include "CapSense_Configuration.h"
  46:Generated_Source\PSoC4/CapSense_Processing.c **** #include "CapSense_Processing.h"
  47:Generated_Source\PSoC4/CapSense_Processing.c **** #include "CapSense_Filter.h"
  48:Generated_Source\PSoC4/CapSense_Processing.c **** 
  49:Generated_Source\PSoC4/CapSense_Processing.c **** #if (0u != CapSense_CENTROID_EN)
  50:Generated_Source\PSoC4/CapSense_Processing.c ****     #include "CapSense_Centroid_LL.h"
  51:Generated_Source\PSoC4/CapSense_Processing.c **** #endif /* (0 != CapSense_CENTROID_EN) */
  52:Generated_Source\PSoC4/CapSense_Processing.c **** 
  53:Generated_Source\PSoC4/CapSense_Processing.c **** #if (0 != (CapSense_CSD_AUTOTUNE & CapSense_CSD_SS_TH_EN))
  54:Generated_Source\PSoC4/CapSense_Processing.c ****     #include "CapSense_SmartSense_LL.h"
  55:Generated_Source\PSoC4/CapSense_Processing.c **** #endif /* (0 != (CapSense_CSD_AUTOTUNE & CapSense_CSD_SS_TH_EN)) */
  56:Generated_Source\PSoC4/CapSense_Processing.c **** 
  57:Generated_Source\PSoC4/CapSense_Processing.c **** #if (CapSense_ENABLE == CapSense_SELF_TEST_EN)
  58:Generated_Source\PSoC4/CapSense_Processing.c ****     #include "CapSense_SelfTest.h"
  59:Generated_Source\PSoC4/CapSense_Processing.c **** #endif
  60:Generated_Source\PSoC4/CapSense_Processing.c **** 
  61:Generated_Source\PSoC4/CapSense_Processing.c **** #if (CapSense_ENABLE == CapSense_CENTROID_5X5_CSD_EN)
  62:Generated_Source\PSoC4/CapSense_Processing.c ****     #include "CapSense_AdvancedCentroid_LL.h"
  63:Generated_Source\PSoC4/CapSense_Processing.c **** #endif
  64:Generated_Source\PSoC4/CapSense_Processing.c **** 
  65:Generated_Source\PSoC4/CapSense_Processing.c **** #if (CapSense_ENABLE == CapSense_POS_ADAPTIVE_IIR_FILTER_EN)
  66:Generated_Source\PSoC4/CapSense_Processing.c ****     #include "CapSense_AdaptiveFilter_LL.h"
  67:Generated_Source\PSoC4/CapSense_Processing.c **** #endif
  68:Generated_Source\PSoC4/CapSense_Processing.c **** 
  69:Generated_Source\PSoC4/CapSense_Processing.c **** #if(CapSense_ENABLE == CapSense_BALLISTIC_MULTIPLIER_EN)
  70:Generated_Source\PSoC4/CapSense_Processing.c ****     #include "CapSense_Gesture.h"
  71:Generated_Source\PSoC4/CapSense_Processing.c **** #endif
  72:Generated_Source\PSoC4/CapSense_Processing.c **** 
  73:Generated_Source\PSoC4/CapSense_Processing.c **** /**************************************************************************************************
  74:Generated_Source\PSoC4/CapSense_Processing.c **** * Local definition
  75:Generated_Source\PSoC4/CapSense_Processing.c **** ***************************************************************************************************
  76:Generated_Source\PSoC4/CapSense_Processing.c **** 
  77:Generated_Source\PSoC4/CapSense_Processing.c **** /* UINT32 constant with all odd bits set. It is used by the processing function of the Proximity wi
  78:Generated_Source\PSoC4/CapSense_Processing.c **** *  determine type of the status bit: odd bits report proximity status; even bits report touch statu
  79:Generated_Source\PSoC4/CapSense_Processing.c **** */
  80:Generated_Source\PSoC4/CapSense_Processing.c **** #define UINT32_ODD_BITS_CONST       (0x55555555u)
  81:Generated_Source\PSoC4/CapSense_Processing.c **** 
  82:Generated_Source\PSoC4/CapSense_Processing.c **** /* Default value for the Off Debounce counter when the Off Debounce is disabled */
  83:Generated_Source\PSoC4/CapSense_Processing.c **** #define DEFAULT_OFF_DEBOUNCE_VALUE  (1u)
  84:Generated_Source\PSoC4/CapSense_Processing.c **** #define PERCENTAGE_100              (100u)
  85:Generated_Source\PSoC4/CapSense_Processing.c **** #define TEMP_BUFFER_MSB_SHIFT       (16)
  86:Generated_Source\PSoC4/CapSense_Processing.c **** 
  87:Generated_Source\PSoC4/CapSense_Processing.c **** /**************************************************************************************************
ARM GAS  C:\Users\Zhu\AppData\Local\Temp\ccMjsG6v.s 			page 3


  88:Generated_Source\PSoC4/CapSense_Processing.c **** * Local variables
  89:Generated_Source\PSoC4/CapSense_Processing.c **** ***************************************************************************************************
  90:Generated_Source\PSoC4/CapSense_Processing.c **** #if (0u != CapSense_CSX_MULTIPHASE_TX_EN)
  91:Generated_Source\PSoC4/CapSense_Processing.c ****     static uint16 deconvRowData[CapSense_CSX_MAX_TX_PHASE_LENGTH];
  92:Generated_Source\PSoC4/CapSense_Processing.c **** #endif
  93:Generated_Source\PSoC4/CapSense_Processing.c **** 
  94:Generated_Source\PSoC4/CapSense_Processing.c **** 
  95:Generated_Source\PSoC4/CapSense_Processing.c **** /**************************************************************************************************
  96:Generated_Source\PSoC4/CapSense_Processing.c **** * Static Function Prototypes
  97:Generated_Source\PSoC4/CapSense_Processing.c **** ***************************************************************************************************
  98:Generated_Source\PSoC4/CapSense_Processing.c **** /**
  99:Generated_Source\PSoC4/CapSense_Processing.c **** * \cond SECTION_C_INTERNAL
 100:Generated_Source\PSoC4/CapSense_Processing.c **** * \addtogroup group_c_internal
 101:Generated_Source\PSoC4/CapSense_Processing.c **** * \{
 102:Generated_Source\PSoC4/CapSense_Processing.c **** */
 103:Generated_Source\PSoC4/CapSense_Processing.c **** #if (0u != CapSense_TOTAL_LINEAR_SLIDERS)
 104:Generated_Source\PSoC4/CapSense_Processing.c ****     static CY_INLINE void DpUpdateLinSlider(
 105:Generated_Source\PSoC4/CapSense_Processing.c ****                         const uint16 newPos[], uint32 numTouches,
 106:Generated_Source\PSoC4/CapSense_Processing.c ****                         CapSense_FLASH_WD_STRUCT const *ptrFlashWdgt,
 107:Generated_Source\PSoC4/CapSense_Processing.c ****                         CapSense_RAM_WD_SLIDER_STRUCT *ptrRamWdgt);
 108:Generated_Source\PSoC4/CapSense_Processing.c **** #endif /* #if (0u != CapSense_TOTAL_LINEAR_SLIDERS) */
 109:Generated_Source\PSoC4/CapSense_Processing.c **** 
 110:Generated_Source\PSoC4/CapSense_Processing.c **** #if (0u != CapSense_TOTAL_RADIAL_SLIDERS)
 111:Generated_Source\PSoC4/CapSense_Processing.c ****     static CY_INLINE void DpUpdateRadSlider(
 112:Generated_Source\PSoC4/CapSense_Processing.c ****                         const uint16 newPos[], uint32 numTouches,
 113:Generated_Source\PSoC4/CapSense_Processing.c ****                         CapSense_FLASH_WD_STRUCT const * ptrFlashWdgt,
 114:Generated_Source\PSoC4/CapSense_Processing.c ****                         CapSense_RAM_WD_SLIDER_STRUCT *ptrRamWdgt);
 115:Generated_Source\PSoC4/CapSense_Processing.c **** #endif /* #if (0u != CapSense_TOTAL_RADIAL_SLIDERS) */
 116:Generated_Source\PSoC4/CapSense_Processing.c **** 
 117:Generated_Source\PSoC4/CapSense_Processing.c **** #if (0u != CapSense_CSD_TOUCHPAD_WIDGET_EN)
 118:Generated_Source\PSoC4/CapSense_Processing.c ****     static CY_INLINE void CapSense_DpInitCsdTouchpad(CapSense_FLASH_WD_STRUCT const * ptrFlashWdgt)
 119:Generated_Source\PSoC4/CapSense_Processing.c **** #endif /* #if (0u != CapSense_CSD_TOUCHPAD_WIDGET_EN) */
 120:Generated_Source\PSoC4/CapSense_Processing.c **** 
 121:Generated_Source\PSoC4/CapSense_Processing.c **** #if (0u != CapSense_CSX_TOUCHPAD_WIDGET_EN)
 122:Generated_Source\PSoC4/CapSense_Processing.c ****     static CY_INLINE void CapSense_DpInitCsxTouchpad(CapSense_FLASH_WD_STRUCT const * ptrFlashWdgt)
 123:Generated_Source\PSoC4/CapSense_Processing.c **** #endif /* #if (0u != CapSense_CSX_TOUCHPAD_WIDGET_EN) */
 124:Generated_Source\PSoC4/CapSense_Processing.c **** 
 125:Generated_Source\PSoC4/CapSense_Processing.c **** #if (0u != CapSense_SLIDER_WIDGET_EN)
 126:Generated_Source\PSoC4/CapSense_Processing.c ****     static CY_INLINE void CapSense_DpInitSlider(CapSense_FLASH_WD_STRUCT const * ptrFlashWdgt);
 127:Generated_Source\PSoC4/CapSense_Processing.c **** #endif /* #if (0u != CapSense_SLIDER_WIDGET_EN) */
 128:Generated_Source\PSoC4/CapSense_Processing.c **** 
 129:Generated_Source\PSoC4/CapSense_Processing.c **** #if (0u != CapSense_CSD_MATRIX_WIDGET_EN)
 130:Generated_Source\PSoC4/CapSense_Processing.c ****     static CY_INLINE void CapSense_DpInitCsdMatrix(CapSense_FLASH_WD_STRUCT const * ptrFlashWdgt);
 131:Generated_Source\PSoC4/CapSense_Processing.c **** #endif /* #if (0u != CapSense_CSD_MATRIX_WIDGET_EN) */
 132:Generated_Source\PSoC4/CapSense_Processing.c **** 
 133:Generated_Source\PSoC4/CapSense_Processing.c **** /** \}
 134:Generated_Source\PSoC4/CapSense_Processing.c **** * \endcond */
 135:Generated_Source\PSoC4/CapSense_Processing.c **** 
 136:Generated_Source\PSoC4/CapSense_Processing.c **** #if (0u != CapSense_CSD_TOUCHPAD_WIDGET_EN)
 137:Generated_Source\PSoC4/CapSense_Processing.c **** /*******************************************************************************
 138:Generated_Source\PSoC4/CapSense_Processing.c **** * Function Name: CapSense_DpInitCsdTouchpad
 139:Generated_Source\PSoC4/CapSense_Processing.c **** ****************************************************************************//**
 140:Generated_Source\PSoC4/CapSense_Processing.c **** *
 141:Generated_Source\PSoC4/CapSense_Processing.c **** * \brief
 142:Generated_Source\PSoC4/CapSense_Processing.c **** *  Performs initialization of the CSD touchpad widget.
 143:Generated_Source\PSoC4/CapSense_Processing.c **** *   - Resets the position data to NONE
 144:Generated_Source\PSoC4/CapSense_Processing.c **** *   - Initializes the position filter history if enabled.
ARM GAS  C:\Users\Zhu\AppData\Local\Temp\ccMjsG6v.s 			page 4


 145:Generated_Source\PSoC4/CapSense_Processing.c **** *
 146:Generated_Source\PSoC4/CapSense_Processing.c **** * \details
 147:Generated_Source\PSoC4/CapSense_Processing.c **** *  The position data is always reset to the CapSense_TOUCHPAD_POS_NONE value.
 148:Generated_Source\PSoC4/CapSense_Processing.c **** *  The same happens to the position filter history data if enabled.
 149:Generated_Source\PSoC4/CapSense_Processing.c **** *
 150:Generated_Source\PSoC4/CapSense_Processing.c **** *******************************************************************************/
 151:Generated_Source\PSoC4/CapSense_Processing.c **** static CY_INLINE void CapSense_DpInitCsdTouchpad(CapSense_FLASH_WD_STRUCT const * ptrFlashWdgt)
 152:Generated_Source\PSoC4/CapSense_Processing.c **** {
 153:Generated_Source\PSoC4/CapSense_Processing.c ****     #if (CapSense_ENABLE == CapSense_CENTROID_5X5_CSD_EN)
 154:Generated_Source\PSoC4/CapSense_Processing.c ****         uint32 touchIndex;
 155:Generated_Source\PSoC4/CapSense_Processing.c ****     #endif
 156:Generated_Source\PSoC4/CapSense_Processing.c **** 
 157:Generated_Source\PSoC4/CapSense_Processing.c ****     CapSense_RAM_WD_CSD_TOUCHPAD_STRUCT *ptrWdTouchpad;
 158:Generated_Source\PSoC4/CapSense_Processing.c **** 
 159:Generated_Source\PSoC4/CapSense_Processing.c ****     #if (0u != CapSense_POSITION_FILTER_EN)
 160:Generated_Source\PSoC4/CapSense_Processing.c ****         CapSense_TOUCHPAD_POS_HISTORY_STRUCT *ptrHistory;
 161:Generated_Source\PSoC4/CapSense_Processing.c ****     #endif  /* #if (0u != CapSense_POSITION_FILTER_EN) */
 162:Generated_Source\PSoC4/CapSense_Processing.c **** 
 163:Generated_Source\PSoC4/CapSense_Processing.c ****     #if (0u != CapSense_POS_ADAPTIVE_IIR_FILTER_EN)
 164:Generated_Source\PSoC4/CapSense_Processing.c ****         ADAPTIVE_FILTER_CONTEXT_STRUCT adpContext;
 165:Generated_Source\PSoC4/CapSense_Processing.c ****     #endif /* (0u != CapSense_POS_ADAPTIVE_IIR_FILTER_EN) */
 166:Generated_Source\PSoC4/CapSense_Processing.c **** 
 167:Generated_Source\PSoC4/CapSense_Processing.c ****     ptrWdTouchpad = ptrFlashWdgt->ptr2WdgtRam;
 168:Generated_Source\PSoC4/CapSense_Processing.c **** 
 169:Generated_Source\PSoC4/CapSense_Processing.c ****     /* Reset position data */
 170:Generated_Source\PSoC4/CapSense_Processing.c ****     #if (CapSense_ENABLE == CapSense_CENTROID_5X5_CSD_EN)
 171:Generated_Source\PSoC4/CapSense_Processing.c ****         #if (CapSense_ENABLE == CapSense_CENTROID_3X3_CSD_EN)
 172:Generated_Source\PSoC4/CapSense_Processing.c ****             if (0u != (ptrFlashWdgt->staticConfig & CapSense_CENTROID_5X5_MASK))
 173:Generated_Source\PSoC4/CapSense_Processing.c ****             {
 174:Generated_Source\PSoC4/CapSense_Processing.c ****         #endif
 175:Generated_Source\PSoC4/CapSense_Processing.c **** 
 176:Generated_Source\PSoC4/CapSense_Processing.c ****         ptrWdTouchpad->position.touchNum = 0u;
 177:Generated_Source\PSoC4/CapSense_Processing.c **** 
 178:Generated_Source\PSoC4/CapSense_Processing.c ****         #if (0u != CapSense_POSITION_FILTER_EN)
 179:Generated_Source\PSoC4/CapSense_Processing.c ****             ptrHistory = ptrFlashWdgt->ptr2PosHistory;
 180:Generated_Source\PSoC4/CapSense_Processing.c ****         #endif /* (0u != CapSense_POSITION_FILTER_EN) */
 181:Generated_Source\PSoC4/CapSense_Processing.c **** 
 182:Generated_Source\PSoC4/CapSense_Processing.c ****         for (touchIndex = 0u; touchIndex < ADVANCED_CENTROID_MAX_TOUCHES; touchIndex++)
 183:Generated_Source\PSoC4/CapSense_Processing.c ****         {
 184:Generated_Source\PSoC4/CapSense_Processing.c ****             ptrWdTouchpad->position.pos[touchIndex].x = ADVANCED_CENTROID_POSITION_NONE;
 185:Generated_Source\PSoC4/CapSense_Processing.c ****             ptrWdTouchpad->position.pos[touchIndex].y = ADVANCED_CENTROID_POSITION_NONE;
 186:Generated_Source\PSoC4/CapSense_Processing.c ****             ptrWdTouchpad->position.pos[touchIndex].zX = ADVANCED_CENTROID_POSITION_NONE;
 187:Generated_Source\PSoC4/CapSense_Processing.c ****             ptrWdTouchpad->position.pos[touchIndex].zY = ADVANCED_CENTROID_POSITION_NONE;
 188:Generated_Source\PSoC4/CapSense_Processing.c **** 
 189:Generated_Source\PSoC4/CapSense_Processing.c ****             /* Clear position filter history data if available */
 190:Generated_Source\PSoC4/CapSense_Processing.c ****             #if (0u != CapSense_POSITION_FILTER_EN)
 191:Generated_Source\PSoC4/CapSense_Processing.c ****                 if (NULL != ptrHistory)
 192:Generated_Source\PSoC4/CapSense_Processing.c ****                 {
 193:Generated_Source\PSoC4/CapSense_Processing.c ****                     CapSense_InitPosFiltersDd(&ptrHistory[touchIndex], CapSense_TOUCHPAD_POS_NONE, 
 194:Generated_Source\PSoC4/CapSense_Processing.c ****                     #if (0u != CapSense_POS_ADAPTIVE_IIR_FILTER_EN)
 195:Generated_Source\PSoC4/CapSense_Processing.c ****                         AdaptiveFilter_Initialize(&ptrWdTouchpad->aiirConfig, &adpContext);
 196:Generated_Source\PSoC4/CapSense_Processing.c ****                         ptrHistory[touchIndex].xPos.posAIIRCoeff = adpContext.coefficient;
 197:Generated_Source\PSoC4/CapSense_Processing.c ****                         ptrHistory[touchIndex].yPos.posAIIRCoeff = adpContext.coefficient;
 198:Generated_Source\PSoC4/CapSense_Processing.c ****                     #endif /* (0u != CapSense_POS_ADAPTIVE_IIR_FILTER_EN) */
 199:Generated_Source\PSoC4/CapSense_Processing.c ****                 }
 200:Generated_Source\PSoC4/CapSense_Processing.c ****             #endif /* (0u != CapSense_POSITION_FILTER_EN) */
 201:Generated_Source\PSoC4/CapSense_Processing.c ****         }
ARM GAS  C:\Users\Zhu\AppData\Local\Temp\ccMjsG6v.s 			page 5


 202:Generated_Source\PSoC4/CapSense_Processing.c **** 
 203:Generated_Source\PSoC4/CapSense_Processing.c ****         #if (CapSense_ENABLE == CapSense_CENTROID_3X3_CSD_EN)
 204:Generated_Source\PSoC4/CapSense_Processing.c ****             }
 205:Generated_Source\PSoC4/CapSense_Processing.c ****         #endif
 206:Generated_Source\PSoC4/CapSense_Processing.c ****     #endif
 207:Generated_Source\PSoC4/CapSense_Processing.c **** 
 208:Generated_Source\PSoC4/CapSense_Processing.c ****     #if (CapSense_ENABLE == CapSense_CENTROID_3X3_CSD_EN)
 209:Generated_Source\PSoC4/CapSense_Processing.c ****         if (0u != (ptrFlashWdgt->staticConfig & CapSense_CENTROID_3X3_MASK))
 210:Generated_Source\PSoC4/CapSense_Processing.c ****         {
 211:Generated_Source\PSoC4/CapSense_Processing.c ****             ptrWdTouchpad->posX = CapSense_TOUCHPAD_POS_NONE;
 212:Generated_Source\PSoC4/CapSense_Processing.c ****             ptrWdTouchpad->posY = CapSense_TOUCHPAD_POS_NONE;
 213:Generated_Source\PSoC4/CapSense_Processing.c **** 
 214:Generated_Source\PSoC4/CapSense_Processing.c ****             /* Clear position filter history data if available */
 215:Generated_Source\PSoC4/CapSense_Processing.c ****             #if (0u != CapSense_POSITION_FILTER_EN)
 216:Generated_Source\PSoC4/CapSense_Processing.c ****                 ptrHistory = ptrFlashWdgt->ptr2PosHistory;
 217:Generated_Source\PSoC4/CapSense_Processing.c ****                 CapSense_InitPosFiltersDd(ptrHistory, CapSense_TOUCHPAD_POS_NONE, CapSense_TOUCHPAD
 218:Generated_Source\PSoC4/CapSense_Processing.c **** 
 219:Generated_Source\PSoC4/CapSense_Processing.c ****                 #if (0u != CapSense_POS_ADAPTIVE_IIR_FILTER_EN)
 220:Generated_Source\PSoC4/CapSense_Processing.c ****                     if (NULL != ptrHistory)
 221:Generated_Source\PSoC4/CapSense_Processing.c ****                     {
 222:Generated_Source\PSoC4/CapSense_Processing.c ****                         AdaptiveFilter_Initialize(&ptrWdTouchpad->aiirConfig, &adpContext);
 223:Generated_Source\PSoC4/CapSense_Processing.c ****                         ptrHistory->xPos.posAIIRCoeff = adpContext.coefficient;
 224:Generated_Source\PSoC4/CapSense_Processing.c ****                         ptrHistory->yPos.posAIIRCoeff = adpContext.coefficient;
 225:Generated_Source\PSoC4/CapSense_Processing.c ****                     }
 226:Generated_Source\PSoC4/CapSense_Processing.c ****                 #endif /* (0u != CapSense_POS_ADAPTIVE_IIR_FILTER_EN) */
 227:Generated_Source\PSoC4/CapSense_Processing.c ****             #endif /* (0u != CapSense_POSITION_FILTER_EN) */
 228:Generated_Source\PSoC4/CapSense_Processing.c ****         }
 229:Generated_Source\PSoC4/CapSense_Processing.c ****     #endif
 230:Generated_Source\PSoC4/CapSense_Processing.c **** }
 231:Generated_Source\PSoC4/CapSense_Processing.c **** #endif /* #if (0u != CapSense_CSD_TOUCHPAD_WIDGET_EN) */
 232:Generated_Source\PSoC4/CapSense_Processing.c **** 
 233:Generated_Source\PSoC4/CapSense_Processing.c **** #if (0u != CapSense_CSX_TOUCHPAD_WIDGET_EN)
 234:Generated_Source\PSoC4/CapSense_Processing.c **** /*******************************************************************************
 235:Generated_Source\PSoC4/CapSense_Processing.c **** * Function Name: CapSense_DpInitCsxTouchpad
 236:Generated_Source\PSoC4/CapSense_Processing.c **** ****************************************************************************//**
 237:Generated_Source\PSoC4/CapSense_Processing.c **** *
 238:Generated_Source\PSoC4/CapSense_Processing.c **** * \brief
 239:Generated_Source\PSoC4/CapSense_Processing.c **** *  Performs initialization of the CSX touchpad widget i.e. Resets the position data to NONE.
 240:Generated_Source\PSoC4/CapSense_Processing.c **** *
 241:Generated_Source\PSoC4/CapSense_Processing.c **** * \details
 242:Generated_Source\PSoC4/CapSense_Processing.c **** *  The position data is always reset to the CapSense_TOUCHPAD_POS_NONE value.
 243:Generated_Source\PSoC4/CapSense_Processing.c **** *
 244:Generated_Source\PSoC4/CapSense_Processing.c **** *******************************************************************************/
 245:Generated_Source\PSoC4/CapSense_Processing.c **** static CY_INLINE void CapSense_DpInitCsxTouchpad(CapSense_FLASH_WD_STRUCT const * ptrFlashWdgt)
 246:Generated_Source\PSoC4/CapSense_Processing.c **** {
 247:Generated_Source\PSoC4/CapSense_Processing.c ****     CapSense_RAM_WD_CSX_TOUCHPAD_STRUCT *ptrWdTouchpad;
 248:Generated_Source\PSoC4/CapSense_Processing.c **** 
 249:Generated_Source\PSoC4/CapSense_Processing.c ****     #if (0u != CapSense_POSITION_FILTER_EN)
 250:Generated_Source\PSoC4/CapSense_Processing.c ****         uint32 touchIndex;
 251:Generated_Source\PSoC4/CapSense_Processing.c ****         CapSense_TOUCHPAD_POS_HISTORY_STRUCT *ptrHistory;
 252:Generated_Source\PSoC4/CapSense_Processing.c ****     #endif  /* #if (0u != CapSense_POSITION_FILTER_EN) */
 253:Generated_Source\PSoC4/CapSense_Processing.c **** 
 254:Generated_Source\PSoC4/CapSense_Processing.c ****     #if (0u != CapSense_POS_ADAPTIVE_IIR_FILTER_EN)
 255:Generated_Source\PSoC4/CapSense_Processing.c ****         ADAPTIVE_FILTER_CONTEXT_STRUCT adpContext;
 256:Generated_Source\PSoC4/CapSense_Processing.c ****     #endif /* (0u != CapSense_POS_ADAPTIVE_IIR_FILTER_EN) */
 257:Generated_Source\PSoC4/CapSense_Processing.c **** 
 258:Generated_Source\PSoC4/CapSense_Processing.c ****     ptrWdTouchpad = ptrFlashWdgt->ptr2WdgtRam;
ARM GAS  C:\Users\Zhu\AppData\Local\Temp\ccMjsG6v.s 			page 6


 259:Generated_Source\PSoC4/CapSense_Processing.c **** 
 260:Generated_Source\PSoC4/CapSense_Processing.c ****     #if (0u != CapSense_POSITION_FILTER_EN)
 261:Generated_Source\PSoC4/CapSense_Processing.c ****         ptrHistory = ptrFlashWdgt->ptr2PosHistory;
 262:Generated_Source\PSoC4/CapSense_Processing.c ****     #endif /* (0u != CapSense_POSITION_FILTER_EN) */
 263:Generated_Source\PSoC4/CapSense_Processing.c **** 
 264:Generated_Source\PSoC4/CapSense_Processing.c ****     /* Reset position data for finger */
 265:Generated_Source\PSoC4/CapSense_Processing.c ****     ptrWdTouchpad->touch[0u].x = CapSense_TOUCHPAD_POS_NONE;
 266:Generated_Source\PSoC4/CapSense_Processing.c ****     ptrWdTouchpad->touch[0u].y = CapSense_TOUCHPAD_POS_NONE;
 267:Generated_Source\PSoC4/CapSense_Processing.c ****     ptrWdTouchpad->touch[0u].z = LO8(CapSense_TOUCHPAD_POS_NONE);
 268:Generated_Source\PSoC4/CapSense_Processing.c **** 
 269:Generated_Source\PSoC4/CapSense_Processing.c ****     #if (CapSense_CSX_MAX_FINGERS > 1u)
 270:Generated_Source\PSoC4/CapSense_Processing.c ****         ptrWdTouchpad->touch[1u].x = CapSense_TOUCHPAD_POS_NONE;
 271:Generated_Source\PSoC4/CapSense_Processing.c ****         ptrWdTouchpad->touch[1u].y = CapSense_TOUCHPAD_POS_NONE;
 272:Generated_Source\PSoC4/CapSense_Processing.c ****         ptrWdTouchpad->touch[1u].z = LO8(CapSense_TOUCHPAD_POS_NONE);
 273:Generated_Source\PSoC4/CapSense_Processing.c ****     #endif /* #if (CapSense_CSX_MAX_FINGERS > 1u) */
 274:Generated_Source\PSoC4/CapSense_Processing.c **** 
 275:Generated_Source\PSoC4/CapSense_Processing.c ****     #if (CapSense_CSX_MAX_FINGERS > 2u)
 276:Generated_Source\PSoC4/CapSense_Processing.c ****         ptrWdTouchpad->touch[2u].x = CapSense_TOUCHPAD_POS_NONE;
 277:Generated_Source\PSoC4/CapSense_Processing.c ****         ptrWdTouchpad->touch[2u].y = CapSense_TOUCHPAD_POS_NONE;
 278:Generated_Source\PSoC4/CapSense_Processing.c ****         ptrWdTouchpad->touch[2u].z = LO8(CapSense_TOUCHPAD_POS_NONE);
 279:Generated_Source\PSoC4/CapSense_Processing.c ****     #endif /* #if (CapSense_CSX_MAX_FINGERS > 2u) */
 280:Generated_Source\PSoC4/CapSense_Processing.c **** 
 281:Generated_Source\PSoC4/CapSense_Processing.c ****     #if (0u != CapSense_POSITION_FILTER_EN)
 282:Generated_Source\PSoC4/CapSense_Processing.c ****         for (touchIndex = 0u; touchIndex < CapSense_CSX_MAX_FINGERS; touchIndex++)
 283:Generated_Source\PSoC4/CapSense_Processing.c ****         {
 284:Generated_Source\PSoC4/CapSense_Processing.c ****             if (NULL != ptrHistory)
 285:Generated_Source\PSoC4/CapSense_Processing.c ****             {
 286:Generated_Source\PSoC4/CapSense_Processing.c ****                 /* Clear position filter history data if available */
 287:Generated_Source\PSoC4/CapSense_Processing.c ****                 CapSense_InitPosFiltersDd(&ptrHistory[touchIndex], CapSense_TOUCHPAD_POS_NONE, CapS
 288:Generated_Source\PSoC4/CapSense_Processing.c ****                 #if (0u != CapSense_POS_ADAPTIVE_IIR_FILTER_EN)
 289:Generated_Source\PSoC4/CapSense_Processing.c ****                     AdaptiveFilter_Initialize(&ptrWdTouchpad->aiirConfig, &adpContext);
 290:Generated_Source\PSoC4/CapSense_Processing.c ****                     ptrHistory[touchIndex].xPos.posAIIRCoeff = adpContext.coefficient;
 291:Generated_Source\PSoC4/CapSense_Processing.c ****                     ptrHistory[touchIndex].yPos.posAIIRCoeff = adpContext.coefficient;
 292:Generated_Source\PSoC4/CapSense_Processing.c ****                 #endif /* (0u != CapSense_POS_ADAPTIVE_IIR_FILTER_EN) */
 293:Generated_Source\PSoC4/CapSense_Processing.c ****             }
 294:Generated_Source\PSoC4/CapSense_Processing.c ****         }
 295:Generated_Source\PSoC4/CapSense_Processing.c ****     #endif /* (0u != CapSense_POSITION_FILTER_EN) */
 296:Generated_Source\PSoC4/CapSense_Processing.c **** }
 297:Generated_Source\PSoC4/CapSense_Processing.c **** #endif /* #if (0u != CapSense_CSX_TOUCHPAD_WIDGET_EN) */
 298:Generated_Source\PSoC4/CapSense_Processing.c **** 
 299:Generated_Source\PSoC4/CapSense_Processing.c **** #if (0u != CapSense_SLIDER_WIDGET_EN)
 300:Generated_Source\PSoC4/CapSense_Processing.c **** /*******************************************************************************
 301:Generated_Source\PSoC4/CapSense_Processing.c **** * Function Name: CapSense_DpInitSlider
 302:Generated_Source\PSoC4/CapSense_Processing.c **** ****************************************************************************//**
 303:Generated_Source\PSoC4/CapSense_Processing.c **** *
 304:Generated_Source\PSoC4/CapSense_Processing.c **** * \brief
 305:Generated_Source\PSoC4/CapSense_Processing.c **** *  Performs initialization of the Radial and Linear Slider widget.
 306:Generated_Source\PSoC4/CapSense_Processing.c **** *   - Resets the position data to NONE
 307:Generated_Source\PSoC4/CapSense_Processing.c **** *   - Initializes the position filter history to NONE if enabled.
 308:Generated_Source\PSoC4/CapSense_Processing.c **** *
 309:Generated_Source\PSoC4/CapSense_Processing.c **** * \details
 310:Generated_Source\PSoC4/CapSense_Processing.c **** *  Position data is always reset to the CapSense_SLIDER_POS_NONE value.
 311:Generated_Source\PSoC4/CapSense_Processing.c **** *  The same happens to the position filter history data if enabled.
 312:Generated_Source\PSoC4/CapSense_Processing.c **** *
 313:Generated_Source\PSoC4/CapSense_Processing.c **** *******************************************************************************/
 314:Generated_Source\PSoC4/CapSense_Processing.c **** static CY_INLINE void CapSense_DpInitSlider(CapSense_FLASH_WD_STRUCT const * ptrFlashWdgt)
 315:Generated_Source\PSoC4/CapSense_Processing.c **** {
ARM GAS  C:\Users\Zhu\AppData\Local\Temp\ccMjsG6v.s 			page 7


 316:Generated_Source\PSoC4/CapSense_Processing.c ****     uint32 idx;
 317:Generated_Source\PSoC4/CapSense_Processing.c ****     CapSense_RAM_WD_SLIDER_STRUCT *ptrWdSlider;
 318:Generated_Source\PSoC4/CapSense_Processing.c **** 
 319:Generated_Source\PSoC4/CapSense_Processing.c ****     #if (0u != CapSense_POSITION_FILTER_EN)
 320:Generated_Source\PSoC4/CapSense_Processing.c ****         CapSense_SLIDER_POS_HISTORY_STRUCT *ptrHistory;
 321:Generated_Source\PSoC4/CapSense_Processing.c ****     #endif /* #if (0u != CapSense_POSITION_FILTER_EN) */
 322:Generated_Source\PSoC4/CapSense_Processing.c **** 
 323:Generated_Source\PSoC4/CapSense_Processing.c ****     #if (0u != CapSense_POS_ADAPTIVE_IIR_FILTER_EN)
 324:Generated_Source\PSoC4/CapSense_Processing.c ****         ADAPTIVE_FILTER_CONTEXT_STRUCT context;
 325:Generated_Source\PSoC4/CapSense_Processing.c ****     #endif /* (0u != CapSense_POS_ADAPTIVE_IIR_FILTER_EN) */
 326:Generated_Source\PSoC4/CapSense_Processing.c **** 
 327:Generated_Source\PSoC4/CapSense_Processing.c ****     ptrWdSlider = ptrFlashWdgt->ptr2WdgtRam;
 328:Generated_Source\PSoC4/CapSense_Processing.c **** 
 329:Generated_Source\PSoC4/CapSense_Processing.c ****     /* Reset slider position data to NONE */
 330:Generated_Source\PSoC4/CapSense_Processing.c ****     for (idx = 0u; idx < CapSense_NUM_CENTROIDS; idx++)
 331:Generated_Source\PSoC4/CapSense_Processing.c ****     {
 332:Generated_Source\PSoC4/CapSense_Processing.c ****         ptrWdSlider->position[idx] = CapSense_SLIDER_POS_NONE;
 333:Generated_Source\PSoC4/CapSense_Processing.c **** 
 334:Generated_Source\PSoC4/CapSense_Processing.c ****         #if (0u != CapSense_POSITION_FILTER_EN)
 335:Generated_Source\PSoC4/CapSense_Processing.c ****             ptrHistory = ptrFlashWdgt->ptr2PosHistory;
 336:Generated_Source\PSoC4/CapSense_Processing.c ****             if (NULL != ptrHistory)
 337:Generated_Source\PSoC4/CapSense_Processing.c ****             {
 338:Generated_Source\PSoC4/CapSense_Processing.c ****                 CapSense_InitPosFiltersSd(&ptrHistory[idx], CapSense_SLIDER_POS_NONE);
 339:Generated_Source\PSoC4/CapSense_Processing.c ****                 #if (0u != CapSense_POS_ADAPTIVE_IIR_FILTER_EN)
 340:Generated_Source\PSoC4/CapSense_Processing.c ****                     AdaptiveFilter_Initialize(&ptrWdSlider->aiirConfig, &context);
 341:Generated_Source\PSoC4/CapSense_Processing.c ****                     ptrHistory->posAIIRCoeff = context.coefficient;
 342:Generated_Source\PSoC4/CapSense_Processing.c ****                 #endif /* (0u != CapSense_POS_ADAPTIVE_IIR_FILTER_EN) */
 343:Generated_Source\PSoC4/CapSense_Processing.c ****             }
 344:Generated_Source\PSoC4/CapSense_Processing.c **** 
 345:Generated_Source\PSoC4/CapSense_Processing.c ****         #endif /* #if (0u != CapSense_POSITION_FILTER_EN) */
 346:Generated_Source\PSoC4/CapSense_Processing.c ****     }
 347:Generated_Source\PSoC4/CapSense_Processing.c **** }
 348:Generated_Source\PSoC4/CapSense_Processing.c **** #endif /* #if (0u != CapSense_SLIDER_WIDGET_EN) */
 349:Generated_Source\PSoC4/CapSense_Processing.c **** 
 350:Generated_Source\PSoC4/CapSense_Processing.c **** #if (0u != CapSense_CSD_MATRIX_WIDGET_EN)
 351:Generated_Source\PSoC4/CapSense_Processing.c **** /*******************************************************************************
 352:Generated_Source\PSoC4/CapSense_Processing.c **** * Function Name: CapSense_DpInitCsdMatrix
 353:Generated_Source\PSoC4/CapSense_Processing.c **** ****************************************************************************//**
 354:Generated_Source\PSoC4/CapSense_Processing.c **** *
 355:Generated_Source\PSoC4/CapSense_Processing.c **** * \brief
 356:Generated_Source\PSoC4/CapSense_Processing.c **** *  Performs initialization of the CSD Matrix Buttons widget.
 357:Generated_Source\PSoC4/CapSense_Processing.c **** *   - Resets the active button position data to NONE.
 358:Generated_Source\PSoC4/CapSense_Processing.c **** *
 359:Generated_Source\PSoC4/CapSense_Processing.c **** * \details
 360:Generated_Source\PSoC4/CapSense_Processing.c **** *  Position data is always reset to the CapSense_MATRIX_POS_NONE value.
 361:Generated_Source\PSoC4/CapSense_Processing.c **** *
 362:Generated_Source\PSoC4/CapSense_Processing.c **** *******************************************************************************/
 363:Generated_Source\PSoC4/CapSense_Processing.c **** static CY_INLINE void CapSense_DpInitCsdMatrix(CapSense_FLASH_WD_STRUCT const * ptrFlashWdgt)
 364:Generated_Source\PSoC4/CapSense_Processing.c **** {
 365:Generated_Source\PSoC4/CapSense_Processing.c ****     CapSense_RAM_WD_CSD_MATRIX_STRUCT *ptrRamWdgt;
 366:Generated_Source\PSoC4/CapSense_Processing.c **** 
 367:Generated_Source\PSoC4/CapSense_Processing.c ****     ptrRamWdgt = (CapSense_RAM_WD_CSD_MATRIX_STRUCT *)ptrFlashWdgt->ptr2WdgtRam;
 368:Generated_Source\PSoC4/CapSense_Processing.c **** 
 369:Generated_Source\PSoC4/CapSense_Processing.c ****     /* Reset sensor id, row and col registers in data structure */
 370:Generated_Source\PSoC4/CapSense_Processing.c ****     ptrRamWdgt->posRow   = CapSense_MATRIX_POS_NONE;
 371:Generated_Source\PSoC4/CapSense_Processing.c ****     ptrRamWdgt->posCol   = CapSense_MATRIX_POS_NONE;
 372:Generated_Source\PSoC4/CapSense_Processing.c ****     ptrRamWdgt->posSnsId = CapSense_MATRIX_POS_NONE;
ARM GAS  C:\Users\Zhu\AppData\Local\Temp\ccMjsG6v.s 			page 8


 373:Generated_Source\PSoC4/CapSense_Processing.c **** }
 374:Generated_Source\PSoC4/CapSense_Processing.c **** #endif /* #if (0u != CapSense_CSD_MATRIX_WIDGET_EN) */
 375:Generated_Source\PSoC4/CapSense_Processing.c **** 
 376:Generated_Source\PSoC4/CapSense_Processing.c **** /*******************************************************************************
 377:Generated_Source\PSoC4/CapSense_Processing.c **** * Function Name: CapSense_DpInitialize
 378:Generated_Source\PSoC4/CapSense_Processing.c **** ****************************************************************************//**
 379:Generated_Source\PSoC4/CapSense_Processing.c **** *
 380:Generated_Source\PSoC4/CapSense_Processing.c **** * \brief
 381:Generated_Source\PSoC4/CapSense_Processing.c **** *  Performs initialization of the data processing FW module:
 382:Generated_Source\PSoC4/CapSense_Processing.c **** *   - Resets the de-bounce counters of all the widgets
 383:Generated_Source\PSoC4/CapSense_Processing.c **** *   - Resets the position filter history for slider and touchpad widgets
 384:Generated_Source\PSoC4/CapSense_Processing.c **** *   - Clears widget and sensor statuses
 385:Generated_Source\PSoC4/CapSense_Processing.c **** *   - Enables all the widgets.
 386:Generated_Source\PSoC4/CapSense_Processing.c **** *
 387:Generated_Source\PSoC4/CapSense_Processing.c **** * \details
 388:Generated_Source\PSoC4/CapSense_Processing.c **** *  The Button and Matrix Button widgets have individual de-bounce counter per
 389:Generated_Source\PSoC4/CapSense_Processing.c **** *  sensor for the CSD widgets and per node for the CSX widgets.
 390:Generated_Source\PSoC4/CapSense_Processing.c **** *
 391:Generated_Source\PSoC4/CapSense_Processing.c **** *  The Slider and Touchpad widgets have a single de-bounce counter per widget.
 392:Generated_Source\PSoC4/CapSense_Processing.c **** *
 393:Generated_Source\PSoC4/CapSense_Processing.c **** *  The Proximity widget has two de-bounce counters per sensor. One for the
 394:Generated_Source\PSoC4/CapSense_Processing.c **** *  proximity event and second for the touch event.
 395:Generated_Source\PSoC4/CapSense_Processing.c **** *
 396:Generated_Source\PSoC4/CapSense_Processing.c **** *  All debounce counters during initialization are set to the value of the
 397:Generated_Source\PSoC4/CapSense_Processing.c **** *  onDebounce widget parameter.
 398:Generated_Source\PSoC4/CapSense_Processing.c **** *
 399:Generated_Source\PSoC4/CapSense_Processing.c **** *******************************************************************************/
 400:Generated_Source\PSoC4/CapSense_Processing.c **** void CapSense_DpInitialize(void)
 401:Generated_Source\PSoC4/CapSense_Processing.c **** {
  28              		.loc 1 401 0
  29              		.cfi_startproc
  30              		@ args = 0, pretend = 0, frame = 0
  31              		@ frame_needed = 0, uses_anonymous_args = 0
  32 0000 70B5     		push	{r4, r5, r6, lr}
  33              		.cfi_def_cfa_offset 16
  34              		.cfi_offset 4, -16
  35              		.cfi_offset 5, -12
  36              		.cfi_offset 6, -8
  37              		.cfi_offset 14, -4
  38              	.LVL0:
 402:Generated_Source\PSoC4/CapSense_Processing.c ****     uint32 wdgtId;
 403:Generated_Source\PSoC4/CapSense_Processing.c ****     CapSense_WD_TYPE_ENUM widgetType;
 404:Generated_Source\PSoC4/CapSense_Processing.c ****     CapSense_RAM_WD_BASE_STRUCT * ptrRamWdgt;
 405:Generated_Source\PSoC4/CapSense_Processing.c ****     CapSense_FLASH_WD_STRUCT const * ptrFlashWdgt;
 406:Generated_Source\PSoC4/CapSense_Processing.c **** 
 407:Generated_Source\PSoC4/CapSense_Processing.c ****     for (wdgtId = 0u; wdgtId < CapSense_WDGT_STATUS_WORDS; wdgtId++)
  39              		.loc 1 407 0
  40 0002 0023     		movs	r3, #0
  41 0004 0CE0     		b	.L2
  42              	.LVL1:
  43              	.L3:
 408:Generated_Source\PSoC4/CapSense_Processing.c ****     {
 409:Generated_Source\PSoC4/CapSense_Processing.c ****         /* Clear widget status */
 410:Generated_Source\PSoC4/CapSense_Processing.c ****         CapSense_dsRam.wdgtStatus[wdgtId] = 0u;
  44              		.loc 1 410 0 discriminator 3
  45 0006 1948     		ldr	r0, .L9
  46 0008 9A1D     		adds	r2, r3, #6
ARM GAS  C:\Users\Zhu\AppData\Local\Temp\ccMjsG6v.s 			page 9


  47 000a 9200     		lsls	r2, r2, #2
  48 000c 0021     		movs	r1, #0
  49 000e 1150     		str	r1, [r2, r0]
 411:Generated_Source\PSoC4/CapSense_Processing.c **** 
 412:Generated_Source\PSoC4/CapSense_Processing.c ****         /* Enable all the widgets */
 413:Generated_Source\PSoC4/CapSense_Processing.c ****         CapSense_dsRam.wdgtEnable[wdgtId] = 0xFFFFFFFFLu;
  50              		.loc 1 413 0 discriminator 3
  51 0010 191D     		adds	r1, r3, #4
  52 0012 8A00     		lsls	r2, r1, #2
  53 0014 0121     		movs	r1, #1
  54 0016 4942     		rsbs	r1, r1, #0
  55 0018 1150     		str	r1, [r2, r0]
 414:Generated_Source\PSoC4/CapSense_Processing.c **** 
 415:Generated_Source\PSoC4/CapSense_Processing.c ****         /* Set all the widgets to working state if the Self-Test is not enabled */
 416:Generated_Source\PSoC4/CapSense_Processing.c ****         #if (0u != CapSense_SELF_TEST_EN)
 417:Generated_Source\PSoC4/CapSense_Processing.c ****             CapSense_dsRam.wdgtWorking[wdgtId] = 0xFFFFFFFFLu;
  56              		.loc 1 417 0 discriminator 3
  57 001a 8218     		adds	r2, r0, r2
  58 001c 5160     		str	r1, [r2, #4]
 407:Generated_Source\PSoC4/CapSense_Processing.c ****     {
  59              		.loc 1 407 0 discriminator 3
  60 001e 0133     		adds	r3, r3, #1
  61              	.LVL2:
  62              	.L2:
 407:Generated_Source\PSoC4/CapSense_Processing.c ****     {
  63              		.loc 1 407 0 is_stmt 0 discriminator 1
  64 0020 002B     		cmp	r3, #0
  65 0022 F0D0     		beq	.L3
  66 0024 124C     		ldr	r4, .L9+4
  67 0026 0D23     		movs	r3, #13
  68              	.LVL3:
  69 0028 1CE0     		b	.L4
  70              	.LVL4:
  71              	.L8:
 418:Generated_Source\PSoC4/CapSense_Processing.c ****         #endif /* #if (0u == CapSense_SELF_TEST_EN) */
 419:Generated_Source\PSoC4/CapSense_Processing.c ****     }
 420:Generated_Source\PSoC4/CapSense_Processing.c **** 
 421:Generated_Source\PSoC4/CapSense_Processing.c ****     ptrFlashWdgt = CapSense_dsFlash.wdgtArray;
 422:Generated_Source\PSoC4/CapSense_Processing.c **** 
 423:Generated_Source\PSoC4/CapSense_Processing.c ****     for (wdgtId = CapSense_TOTAL_WIDGETS; wdgtId-- > 0u; )
 424:Generated_Source\PSoC4/CapSense_Processing.c ****     {
 425:Generated_Source\PSoC4/CapSense_Processing.c ****         ptrRamWdgt = (CapSense_RAM_WD_BASE_STRUCT *)ptrFlashWdgt->ptr2WdgtRam;
  72              		.loc 1 425 0 is_stmt 1
  73 002a 6668     		ldr	r6, [r4, #4]
  74              	.LVL5:
 426:Generated_Source\PSoC4/CapSense_Processing.c ****         widgetType = (CapSense_WD_TYPE_ENUM)ptrFlashWdgt->wdgtType;
  75              		.loc 1 426 0
  76 002c A27E     		ldrb	r2, [r4, #26]
  77              	.LVL6:
 427:Generated_Source\PSoC4/CapSense_Processing.c **** 
 428:Generated_Source\PSoC4/CapSense_Processing.c ****         /* Clear all sensor statuses */
 429:Generated_Source\PSoC4/CapSense_Processing.c ****         CapSense_dsRam.snsStatus[wdgtId] = 0u;
  78              		.loc 1 429 0
  79 002e 0F4B     		ldr	r3, .L9
  80 0030 5B19     		adds	r3, r3, r5
  81 0032 0021     		movs	r1, #0
  82 0034 1977     		strb	r1, [r3, #28]
ARM GAS  C:\Users\Zhu\AppData\Local\Temp\ccMjsG6v.s 			page 10


 430:Generated_Source\PSoC4/CapSense_Processing.c **** 
 431:Generated_Source\PSoC4/CapSense_Processing.c ****         /* Reset de-bounce counters */
 432:Generated_Source\PSoC4/CapSense_Processing.c ****         switch (widgetType)
  83              		.loc 1 432 0
  84 0036 012A     		cmp	r2, #1
  85 0038 02D0     		beq	.L6
  86 003a 062A     		cmp	r2, #6
  87 003c 08D0     		beq	.L7
  88 003e 0FE0     		b	.L5
  89              	.L6:
 433:Generated_Source\PSoC4/CapSense_Processing.c ****         {
 434:Generated_Source\PSoC4/CapSense_Processing.c ****         #if (0u != CapSense_MATRIX_WIDGET_EN)
 435:Generated_Source\PSoC4/CapSense_Processing.c ****             case CapSense_WD_MATRIX_BUTTON_E:
 436:Generated_Source\PSoC4/CapSense_Processing.c ****                 #if (0u != CapSense_CSD_MATRIX_WIDGET_EN)
 437:Generated_Source\PSoC4/CapSense_Processing.c ****                     if (CapSense_SENSE_METHOD_CSD_E == CapSense_GET_SENSE_METHOD(ptrFlashWdgt))
 438:Generated_Source\PSoC4/CapSense_Processing.c ****                     {
 439:Generated_Source\PSoC4/CapSense_Processing.c ****                         CapSense_DpInitCsdMatrix(ptrFlashWdgt);
 440:Generated_Source\PSoC4/CapSense_Processing.c ****                     }
 441:Generated_Source\PSoC4/CapSense_Processing.c ****                 #endif /* #if (0u != CapSense_CSD_MATRIX_WIDGET_EN) */
 442:Generated_Source\PSoC4/CapSense_Processing.c **** 
 443:Generated_Source\PSoC4/CapSense_Processing.c ****                 if (NULL != ptrFlashWdgt->ptr2DebounceArr)
 444:Generated_Source\PSoC4/CapSense_Processing.c ****                 {
 445:Generated_Source\PSoC4/CapSense_Processing.c ****                     /* Initialize array of debounce counters */
 446:Generated_Source\PSoC4/CapSense_Processing.c ****                     (void)memset(ptrFlashWdgt->ptr2DebounceArr,
 447:Generated_Source\PSoC4/CapSense_Processing.c ****                                  (int32)ptrRamWdgt->onDebounce,
 448:Generated_Source\PSoC4/CapSense_Processing.c ****                                  (size_t)ptrFlashWdgt->totalNumSns);
 449:Generated_Source\PSoC4/CapSense_Processing.c ****                 }
 450:Generated_Source\PSoC4/CapSense_Processing.c ****                 break;
 451:Generated_Source\PSoC4/CapSense_Processing.c ****         #endif /* #if (0u != CapSense_MATRIX_WIDGET_EN) */
 452:Generated_Source\PSoC4/CapSense_Processing.c **** 
 453:Generated_Source\PSoC4/CapSense_Processing.c ****         #if (0u != CapSense_BUTTON_WIDGET_EN)
 454:Generated_Source\PSoC4/CapSense_Processing.c ****             case CapSense_WD_BUTTON_E:
 455:Generated_Source\PSoC4/CapSense_Processing.c ****                 if (NULL != ptrFlashWdgt->ptr2DebounceArr)
  90              		.loc 1 455 0
  91 0040 2069     		ldr	r0, [r4, #16]
  92 0042 0028     		cmp	r0, #0
  93 0044 0CD0     		beq	.L5
 456:Generated_Source\PSoC4/CapSense_Processing.c ****                 {
 457:Generated_Source\PSoC4/CapSense_Processing.c ****                     /* Initialize array of debounce counters */
 458:Generated_Source\PSoC4/CapSense_Processing.c ****                     (void)memset(ptrFlashWdgt->ptr2DebounceArr,
 459:Generated_Source\PSoC4/CapSense_Processing.c ****                                  (int32)ptrRamWdgt->onDebounce,
  94              		.loc 1 459 0
  95 0046 717A     		ldrb	r1, [r6, #9]
 460:Generated_Source\PSoC4/CapSense_Processing.c ****                                  (size_t)ptrFlashWdgt->totalNumSns);
  96              		.loc 1 460 0
  97 0048 228B     		ldrh	r2, [r4, #24]
  98              	.LVL7:
 458:Generated_Source\PSoC4/CapSense_Processing.c ****                                  (int32)ptrRamWdgt->onDebounce,
  99              		.loc 1 458 0
 100 004a FFF7FEFF 		bl	memset
 101              	.LVL8:
 102 004e 07E0     		b	.L5
 103              	.LVL9:
 104              	.L7:
 461:Generated_Source\PSoC4/CapSense_Processing.c ****                 }
 462:Generated_Source\PSoC4/CapSense_Processing.c ****                 break;
 463:Generated_Source\PSoC4/CapSense_Processing.c ****         #endif /* #if (0u != CapSense_BUTTON_WIDGET_EN) */
ARM GAS  C:\Users\Zhu\AppData\Local\Temp\ccMjsG6v.s 			page 11


 464:Generated_Source\PSoC4/CapSense_Processing.c **** 
 465:Generated_Source\PSoC4/CapSense_Processing.c ****         #if (0u != CapSense_SLIDER_WIDGET_EN)
 466:Generated_Source\PSoC4/CapSense_Processing.c ****             case CapSense_WD_LINEAR_SLIDER_E:
 467:Generated_Source\PSoC4/CapSense_Processing.c ****             case CapSense_WD_RADIAL_SLIDER_E:
 468:Generated_Source\PSoC4/CapSense_Processing.c ****                 if (NULL != ptrFlashWdgt->ptr2DebounceArr)
 469:Generated_Source\PSoC4/CapSense_Processing.c ****                 {
 470:Generated_Source\PSoC4/CapSense_Processing.c ****                     /* Initialize single debounce counter of slider */
 471:Generated_Source\PSoC4/CapSense_Processing.c ****                     *(uint8 *)(ptrFlashWdgt->ptr2DebounceArr) = ptrRamWdgt->onDebounce;
 472:Generated_Source\PSoC4/CapSense_Processing.c ****                 }
 473:Generated_Source\PSoC4/CapSense_Processing.c **** 
 474:Generated_Source\PSoC4/CapSense_Processing.c ****                 CapSense_DpInitSlider(ptrFlashWdgt);
 475:Generated_Source\PSoC4/CapSense_Processing.c **** 
 476:Generated_Source\PSoC4/CapSense_Processing.c ****                 break;
 477:Generated_Source\PSoC4/CapSense_Processing.c ****         #endif /* #if (0u != CapSense_SLIDER_WIDGET_EN) */
 478:Generated_Source\PSoC4/CapSense_Processing.c **** 
 479:Generated_Source\PSoC4/CapSense_Processing.c ****         #if (0u != CapSense_TOUCHPAD_WIDGET_EN)
 480:Generated_Source\PSoC4/CapSense_Processing.c ****             case CapSense_WD_TOUCHPAD_E:
 481:Generated_Source\PSoC4/CapSense_Processing.c ****                 if (NULL != ptrFlashWdgt->ptr2DebounceArr)
 482:Generated_Source\PSoC4/CapSense_Processing.c ****                 {
 483:Generated_Source\PSoC4/CapSense_Processing.c ****                     /* Initialize single debounce counter of touchpad */
 484:Generated_Source\PSoC4/CapSense_Processing.c ****                     *(uint8 *)(ptrFlashWdgt->ptr2DebounceArr) = ptrRamWdgt->onDebounce;
 485:Generated_Source\PSoC4/CapSense_Processing.c ****                 }
 486:Generated_Source\PSoC4/CapSense_Processing.c **** 
 487:Generated_Source\PSoC4/CapSense_Processing.c ****                 #if (0u != CapSense_CSD_TOUCHPAD_WIDGET_EN)
 488:Generated_Source\PSoC4/CapSense_Processing.c ****                     if (CapSense_SENSE_METHOD_CSD_E == CapSense_GET_SENSE_METHOD(ptrFlashWdgt))
 489:Generated_Source\PSoC4/CapSense_Processing.c ****                     {
 490:Generated_Source\PSoC4/CapSense_Processing.c ****                         CapSense_DpInitCsdTouchpad(ptrFlashWdgt);
 491:Generated_Source\PSoC4/CapSense_Processing.c ****                     }
 492:Generated_Source\PSoC4/CapSense_Processing.c ****                 #endif /* #if (0u != CapSense_CSD_TOUCHPAD_WIDGET_EN) */
 493:Generated_Source\PSoC4/CapSense_Processing.c **** 
 494:Generated_Source\PSoC4/CapSense_Processing.c ****                 #if (0u != CapSense_CSX_TOUCHPAD_WIDGET_EN)
 495:Generated_Source\PSoC4/CapSense_Processing.c ****                     if (CapSense_SENSE_METHOD_CSX_E == CapSense_GET_SENSE_METHOD(ptrFlashWdgt))
 496:Generated_Source\PSoC4/CapSense_Processing.c ****                     {
 497:Generated_Source\PSoC4/CapSense_Processing.c ****                         CapSense_DpInitCsxTouchpad(ptrFlashWdgt);
 498:Generated_Source\PSoC4/CapSense_Processing.c ****                     }
 499:Generated_Source\PSoC4/CapSense_Processing.c ****                 #endif /* #if (0u != CapSense_CSX_TOUCHPAD_WIDGET_EN) */
 500:Generated_Source\PSoC4/CapSense_Processing.c **** 
 501:Generated_Source\PSoC4/CapSense_Processing.c ****                 break;
 502:Generated_Source\PSoC4/CapSense_Processing.c ****         #endif /* #if (0u != CapSense_TOUCHPAD_WIDGET_EN) */
 503:Generated_Source\PSoC4/CapSense_Processing.c **** 
 504:Generated_Source\PSoC4/CapSense_Processing.c ****         #if (0u != CapSense_PROXIMITY_WIDGET_EN)
 505:Generated_Source\PSoC4/CapSense_Processing.c ****             case CapSense_WD_PROXIMITY_E:
 506:Generated_Source\PSoC4/CapSense_Processing.c ****                 if (NULL != ptrFlashWdgt->ptr2DebounceArr)
 105              		.loc 1 506 0
 106 0050 2069     		ldr	r0, [r4, #16]
 107 0052 0028     		cmp	r0, #0
 108 0054 04D0     		beq	.L5
 507:Generated_Source\PSoC4/CapSense_Processing.c ****                 {
 508:Generated_Source\PSoC4/CapSense_Processing.c ****                     /* Proximity widgets have 2 de-bounce counters per sensor.
 509:Generated_Source\PSoC4/CapSense_Processing.c ****                      * Therefore the number of sensors is multiplied by 2.
 510:Generated_Source\PSoC4/CapSense_Processing.c ****                      */
 511:Generated_Source\PSoC4/CapSense_Processing.c ****                    (void)memset(ptrFlashWdgt->ptr2DebounceArr,
 512:Generated_Source\PSoC4/CapSense_Processing.c ****                                 (int32)ptrRamWdgt->onDebounce,
 109              		.loc 1 512 0
 110 0056 717A     		ldrb	r1, [r6, #9]
 513:Generated_Source\PSoC4/CapSense_Processing.c ****                                 (size_t)ptrFlashWdgt->totalNumSns * 2u);
 111              		.loc 1 513 0
ARM GAS  C:\Users\Zhu\AppData\Local\Temp\ccMjsG6v.s 			page 12


 112 0058 228B     		ldrh	r2, [r4, #24]
 113              	.LVL10:
 511:Generated_Source\PSoC4/CapSense_Processing.c ****                                 (int32)ptrRamWdgt->onDebounce,
 114              		.loc 1 511 0
 115 005a 5200     		lsls	r2, r2, #1
 116 005c FFF7FEFF 		bl	memset
 117              	.LVL11:
 118              	.L5:
 514:Generated_Source\PSoC4/CapSense_Processing.c ****                 }
 515:Generated_Source\PSoC4/CapSense_Processing.c ****                 break;
 516:Generated_Source\PSoC4/CapSense_Processing.c ****         #endif /* #if (0u != CapSense_PROXIMITY_WIDGET_EN) */
 517:Generated_Source\PSoC4/CapSense_Processing.c **** 
 518:Generated_Source\PSoC4/CapSense_Processing.c ****         #if (0u != CapSense_ENCODERDIAL_WIDGET_EN)
 519:Generated_Source\PSoC4/CapSense_Processing.c ****             case CapSense_WD_ENCODERDIAL_E:
 520:Generated_Source\PSoC4/CapSense_Processing.c ****                 if (NULL != ptrFlashWdgt->ptr2DebounceArr)
 521:Generated_Source\PSoC4/CapSense_Processing.c ****                 {
 522:Generated_Source\PSoC4/CapSense_Processing.c ****                     /* Proximity widgets have 2 de-bounce counters per sensor.
 523:Generated_Source\PSoC4/CapSense_Processing.c ****                      * Therefore the number of sensors is multiplied by 2.
 524:Generated_Source\PSoC4/CapSense_Processing.c ****                      */
 525:Generated_Source\PSoC4/CapSense_Processing.c ****                    (void)memset(ptrFlashWdgt->ptr2DebounceArr,
 526:Generated_Source\PSoC4/CapSense_Processing.c ****                                 (int32)ptrRamWdgt->onDebounce,
 527:Generated_Source\PSoC4/CapSense_Processing.c ****                                 (size_t)ptrFlashWdgt->totalNumSns);
 528:Generated_Source\PSoC4/CapSense_Processing.c ****                 }
 529:Generated_Source\PSoC4/CapSense_Processing.c ****                 break;
 530:Generated_Source\PSoC4/CapSense_Processing.c ****         #endif /* (0u != CapSense_ENCODERDIAL_WIDGET_EN) */
 531:Generated_Source\PSoC4/CapSense_Processing.c ****             default:
 532:Generated_Source\PSoC4/CapSense_Processing.c ****                 break;
 533:Generated_Source\PSoC4/CapSense_Processing.c ****         }
 534:Generated_Source\PSoC4/CapSense_Processing.c **** 
 535:Generated_Source\PSoC4/CapSense_Processing.c ****         /* Move to next widget */
 536:Generated_Source\PSoC4/CapSense_Processing.c ****         ptrFlashWdgt++;
 119              		.loc 1 536 0
 120 0060 2034     		adds	r4, r4, #32
 121              	.LVL12:
 423:Generated_Source\PSoC4/CapSense_Processing.c ****     {
 122              		.loc 1 423 0
 123 0062 2B00     		movs	r3, r5
 124              	.LVL13:
 125              	.L4:
 423:Generated_Source\PSoC4/CapSense_Processing.c ****     {
 126              		.loc 1 423 0 is_stmt 0 discriminator 1
 127 0064 5D1E     		subs	r5, r3, #1
 128              	.LVL14:
 129 0066 002B     		cmp	r3, #0
 130 0068 DFD1     		bne	.L8
 537:Generated_Source\PSoC4/CapSense_Processing.c ****     }
 538:Generated_Source\PSoC4/CapSense_Processing.c **** }
 131              		.loc 1 538 0 is_stmt 1
 132              		@ sp needed
 133              	.LVL15:
 134              	.LVL16:
 135 006a 70BD     		pop	{r4, r5, r6, pc}
 136              	.L10:
 137              		.align	2
 138              	.L9:
 139 006c 00000000 		.word	CapSense_dsRam
 140 0070 00000000 		.word	CapSense_dsFlash
ARM GAS  C:\Users\Zhu\AppData\Local\Temp\ccMjsG6v.s 			page 13


 141              		.cfi_endproc
 142              	.LFE2:
 143              		.size	CapSense_DpInitialize, .-CapSense_DpInitialize
 144              		.section	.text.CapSense_DpUpdateDifferences,"ax",%progbits
 145              		.align	2
 146              		.global	CapSense_DpUpdateDifferences
 147              		.code	16
 148              		.thumb_func
 149              		.type	CapSense_DpUpdateDifferences, %function
 150              	CapSense_DpUpdateDifferences:
 151              	.LFB6:
 539:Generated_Source\PSoC4/CapSense_Processing.c **** 
 540:Generated_Source\PSoC4/CapSense_Processing.c **** #if (0u != CapSense_TOTAL_CSX_WIDGETS)
 541:Generated_Source\PSoC4/CapSense_Processing.c **** /*******************************************************************************
 542:Generated_Source\PSoC4/CapSense_Processing.c **** * Function Name: CapSense_DpProcessCsxWidgetRawCounts
 543:Generated_Source\PSoC4/CapSense_Processing.c **** ****************************************************************************//**
 544:Generated_Source\PSoC4/CapSense_Processing.c **** *
 545:Generated_Source\PSoC4/CapSense_Processing.c **** * \brief
 546:Generated_Source\PSoC4/CapSense_Processing.c **** *  Performs default processing of the CSX raw counts.
 547:Generated_Source\PSoC4/CapSense_Processing.c **** *
 548:Generated_Source\PSoC4/CapSense_Processing.c **** * \details
 549:Generated_Source\PSoC4/CapSense_Processing.c **** *  Performs default processing of the CSX raw counts:
 550:Generated_Source\PSoC4/CapSense_Processing.c **** *   - Run Filters
 551:Generated_Source\PSoC4/CapSense_Processing.c **** *   - Update Baselines
 552:Generated_Source\PSoC4/CapSense_Processing.c **** *   - Update Differences
 553:Generated_Source\PSoC4/CapSense_Processing.c **** *   - Update Status.
 554:Generated_Source\PSoC4/CapSense_Processing.c **** *  The same process is applied to all the sensors of the specified widget.
 555:Generated_Source\PSoC4/CapSense_Processing.c **** *
 556:Generated_Source\PSoC4/CapSense_Processing.c **** * \param ptrFlashWdgt The pointer to the Flash widget structure.
 557:Generated_Source\PSoC4/CapSense_Processing.c **** *
 558:Generated_Source\PSoC4/CapSense_Processing.c **** * \return
 559:Generated_Source\PSoC4/CapSense_Processing.c **** *  Returns the status of the specified widget processing operation:
 560:Generated_Source\PSoC4/CapSense_Processing.c **** *  - CYRET_SUCCESS if operation was successfully completed;
 561:Generated_Source\PSoC4/CapSense_Processing.c **** *  - CapSense_PROCESS_BASELINE_FAILED if baseline processing of any
 562:Generated_Source\PSoC4/CapSense_Processing.c **** *    sensor of the specified widget failed. The result is concatenated with the index
 563:Generated_Source\PSoC4/CapSense_Processing.c **** *    of failed sensor.
 564:Generated_Source\PSoC4/CapSense_Processing.c **** *
 565:Generated_Source\PSoC4/CapSense_Processing.c **** *******************************************************************************/
 566:Generated_Source\PSoC4/CapSense_Processing.c **** uint32 CapSense_DpProcessCsxWidgetRawCounts(CapSense_FLASH_WD_STRUCT const *ptrFlashWdgt)
 567:Generated_Source\PSoC4/CapSense_Processing.c **** {
 568:Generated_Source\PSoC4/CapSense_Processing.c ****     uint32 result = CYRET_SUCCESS;
 569:Generated_Source\PSoC4/CapSense_Processing.c ****     uint32 widgetType;
 570:Generated_Source\PSoC4/CapSense_Processing.c ****     uint32 snsCount;
 571:Generated_Source\PSoC4/CapSense_Processing.c ****     CapSense_RAM_SNS_STRUCT *ptrSnsTmp;
 572:Generated_Source\PSoC4/CapSense_Processing.c ****     CapSense_RAM_WD_BASE_STRUCT *ptrRamWdgt;
 573:Generated_Source\PSoC4/CapSense_Processing.c **** 
 574:Generated_Source\PSoC4/CapSense_Processing.c ****     #if (CapSense_ENABLE == CapSense_RC_FILTER_EN)
 575:Generated_Source\PSoC4/CapSense_Processing.c ****         CapSense_PTR_FILTER_VARIANT fltrHistV;
 576:Generated_Source\PSoC4/CapSense_Processing.c **** 
 577:Generated_Source\PSoC4/CapSense_Processing.c ****         fltrHistV.ptr = ptrFlashWdgt->ptr2FltrHistory;
 578:Generated_Source\PSoC4/CapSense_Processing.c ****     #endif /* #if (CapSense_ENABLE == CapSense_RC_FILTER_EN) */
 579:Generated_Source\PSoC4/CapSense_Processing.c **** 
 580:Generated_Source\PSoC4/CapSense_Processing.c ****     ptrSnsTmp = ptrFlashWdgt->ptr2SnsRam;
 581:Generated_Source\PSoC4/CapSense_Processing.c ****     snsCount = ptrFlashWdgt->totalNumSns;
 582:Generated_Source\PSoC4/CapSense_Processing.c ****     ptrRamWdgt = (CapSense_RAM_WD_BASE_STRUCT *)ptrFlashWdgt->ptr2WdgtRam;
 583:Generated_Source\PSoC4/CapSense_Processing.c ****     widgetType = ptrFlashWdgt->wdgtType;
 584:Generated_Source\PSoC4/CapSense_Processing.c **** 
ARM GAS  C:\Users\Zhu\AppData\Local\Temp\ccMjsG6v.s 			page 14


 585:Generated_Source\PSoC4/CapSense_Processing.c ****     /* Run deconvolution algorithm for the widgets with multiphase TX support */
 586:Generated_Source\PSoC4/CapSense_Processing.c ****     #if (0u != CapSense_CSX_MULTIPHASE_TX_EN)
 587:Generated_Source\PSoC4/CapSense_Processing.c ****         if (0u != (ptrFlashWdgt->staticConfig & CapSense_MULTIPHASE_TX_MASK))
 588:Generated_Source\PSoC4/CapSense_Processing.c ****         {
 589:Generated_Source\PSoC4/CapSense_Processing.c ****             CapSense_DpDeconvolution(ptrFlashWdgt);
 590:Generated_Source\PSoC4/CapSense_Processing.c ****         }
 591:Generated_Source\PSoC4/CapSense_Processing.c ****     #endif  /* #if (0u != CapSense_CSX_MULTIPHASE_TX_EN) */
 592:Generated_Source\PSoC4/CapSense_Processing.c **** 
 593:Generated_Source\PSoC4/CapSense_Processing.c ****     for (;snsCount-- > 0u;)
 594:Generated_Source\PSoC4/CapSense_Processing.c ****     {
 595:Generated_Source\PSoC4/CapSense_Processing.c ****         #if (CapSense_ENABLE == CapSense_RC_FILTER_EN)
 596:Generated_Source\PSoC4/CapSense_Processing.c ****             CapSense_FtRunEnabledFiltersInternal(fltrHistV, ptrSnsTmp, widgetType);
 597:Generated_Source\PSoC4/CapSense_Processing.c ****             #if (CapSense_ALP_FILTER_EN)
 598:Generated_Source\PSoC4/CapSense_Processing.c ****                 CapSense_ConfigRunALPInternal(fltrHistV, ptrRamWdgt, ptrSnsTmp, widgetType);
 599:Generated_Source\PSoC4/CapSense_Processing.c ****             #endif
 600:Generated_Source\PSoC4/CapSense_Processing.c ****         #endif /* #if (CapSense_ENABLE == CapSense_RC_FILTER_EN) */
 601:Generated_Source\PSoC4/CapSense_Processing.c **** 
 602:Generated_Source\PSoC4/CapSense_Processing.c ****         result = CapSense_FtUpdateBaseline(ptrRamWdgt, ptrSnsTmp, widgetType);
 603:Generated_Source\PSoC4/CapSense_Processing.c **** 
 604:Generated_Source\PSoC4/CapSense_Processing.c ****         #if (CapSense_ENABLE == CapSense_TST_BSLN_DUPLICATION_EN)
 605:Generated_Source\PSoC4/CapSense_Processing.c ****             if (CYRET_SUCCESS != result)
 606:Generated_Source\PSoC4/CapSense_Processing.c ****             {
 607:Generated_Source\PSoC4/CapSense_Processing.c ****                 result = snsCount | CapSense_PROCESS_BASELINE_FAILED;
 608:Generated_Source\PSoC4/CapSense_Processing.c ****             }
 609:Generated_Source\PSoC4/CapSense_Processing.c ****         #endif /* (CapSense_ENABLE == CapSense_TST_BSLN_DUPLICATION_EN) */
 610:Generated_Source\PSoC4/CapSense_Processing.c **** 
 611:Generated_Source\PSoC4/CapSense_Processing.c ****         CapSense_DpUpdateDifferences(ptrRamWdgt, ptrSnsTmp);
 612:Generated_Source\PSoC4/CapSense_Processing.c **** 
 613:Generated_Source\PSoC4/CapSense_Processing.c ****         /* Move pointers to the next sensor and filter history objects */
 614:Generated_Source\PSoC4/CapSense_Processing.c ****         ptrSnsTmp++;
 615:Generated_Source\PSoC4/CapSense_Processing.c **** 
 616:Generated_Source\PSoC4/CapSense_Processing.c ****         #if (CapSense_ENABLE == CapSense_RC_FILTER_EN)
 617:Generated_Source\PSoC4/CapSense_Processing.c ****             CapSense_INC_REG_FLTR_OBJ(fltrHistV);
 618:Generated_Source\PSoC4/CapSense_Processing.c ****         #endif /* #if (CapSense_ENABLE == CapSense_RC_FILTER_EN) */
 619:Generated_Source\PSoC4/CapSense_Processing.c ****     }
 620:Generated_Source\PSoC4/CapSense_Processing.c ****     return result;
 621:Generated_Source\PSoC4/CapSense_Processing.c **** }
 622:Generated_Source\PSoC4/CapSense_Processing.c **** 
 623:Generated_Source\PSoC4/CapSense_Processing.c **** /*******************************************************************************
 624:Generated_Source\PSoC4/CapSense_Processing.c **** * Function Name: CapSense_DpProcessCsxSensorRawCountsExt
 625:Generated_Source\PSoC4/CapSense_Processing.c **** ****************************************************************************//**
 626:Generated_Source\PSoC4/CapSense_Processing.c **** *
 627:Generated_Source\PSoC4/CapSense_Processing.c **** * \brief
 628:Generated_Source\PSoC4/CapSense_Processing.c **** *   Performs customized processing of the CSX sensor raw counts.
 629:Generated_Source\PSoC4/CapSense_Processing.c **** *
 630:Generated_Source\PSoC4/CapSense_Processing.c **** * \details
 631:Generated_Source\PSoC4/CapSense_Processing.c **** *   Performs customized processing of the CSX sensor raw counts.
 632:Generated_Source\PSoC4/CapSense_Processing.c **** *
 633:Generated_Source\PSoC4/CapSense_Processing.c **** *   If all bits are set at once the default processing order will take place.
 634:Generated_Source\PSoC4/CapSense_Processing.c **** *   For the custom order this API can be called multiple times and execute one task at a time.
 635:Generated_Source\PSoC4/CapSense_Processing.c **** *
 636:Generated_Source\PSoC4/CapSense_Processing.c **** * \param ptrFlashWdgt The pointer to the Flash Widget Object.
 637:Generated_Source\PSoC4/CapSense_Processing.c **** * \param curSnsPtr    The pointer to the specific RAM Sensor Object.
 638:Generated_Source\PSoC4/CapSense_Processing.c **** * \param fltrHistV    The pointer to the Filter History Object in RAM associated with specific sens
 639:Generated_Source\PSoC4/CapSense_Processing.c **** * \param mode         The bit-mask with the data processing tasks to be executed.
 640:Generated_Source\PSoC4/CapSense_Processing.c **** *   The mode parameters can take the following values:
 641:Generated_Source\PSoC4/CapSense_Processing.c **** *    - CapSense_PROCESS_FILTER     (0x01) Run Firmware Filter
ARM GAS  C:\Users\Zhu\AppData\Local\Temp\ccMjsG6v.s 			page 15


 642:Generated_Source\PSoC4/CapSense_Processing.c **** *    - CapSense_PROCESS_BASELINE   (0x02) Update Baselines
 643:Generated_Source\PSoC4/CapSense_Processing.c **** *    - CapSense_PROCESS_DIFFCOUNTS (0x04) Update Difference Counts
 644:Generated_Source\PSoC4/CapSense_Processing.c **** *    - CapSense_PROCESS_ALL               Execute all tasks
 645:Generated_Source\PSoC4/CapSense_Processing.c **** *
 646:Generated_Source\PSoC4/CapSense_Processing.c **** * \return
 647:Generated_Source\PSoC4/CapSense_Processing.c **** *  Returns the status of the specified sensor processing operation:
 648:Generated_Source\PSoC4/CapSense_Processing.c **** *  - CYRET_SUCCESS if operation was successfully completed;
 649:Generated_Source\PSoC4/CapSense_Processing.c **** *  - CapSense_PROCESS_BASELINE_FAILED if baseline processing of any
 650:Generated_Source\PSoC4/CapSense_Processing.c **** *    sensor of the specified widget failed. The result is concatenated with the index
 651:Generated_Source\PSoC4/CapSense_Processing.c **** *    of failed sensor.
 652:Generated_Source\PSoC4/CapSense_Processing.c **** *
 653:Generated_Source\PSoC4/CapSense_Processing.c **** *******************************************************************************/
 654:Generated_Source\PSoC4/CapSense_Processing.c **** uint32 CapSense_DpProcessCsxSensorRawCountsExt(
 655:Generated_Source\PSoC4/CapSense_Processing.c ****                 CapSense_FLASH_WD_STRUCT const *ptrFlashWdgt,
 656:Generated_Source\PSoC4/CapSense_Processing.c ****                 CapSense_RAM_SNS_STRUCT *curSnsPtr,
 657:Generated_Source\PSoC4/CapSense_Processing.c ****                 CapSense_PTR_FILTER_VARIANT fltrHistV,
 658:Generated_Source\PSoC4/CapSense_Processing.c ****                 uint32 mode)
 659:Generated_Source\PSoC4/CapSense_Processing.c **** {
 660:Generated_Source\PSoC4/CapSense_Processing.c ****     uint32  result = CYRET_SUCCESS;
 661:Generated_Source\PSoC4/CapSense_Processing.c ****     uint32  widgetType;
 662:Generated_Source\PSoC4/CapSense_Processing.c ****     CapSense_RAM_WD_BASE_STRUCT *ptrRamWdgt;
 663:Generated_Source\PSoC4/CapSense_Processing.c **** 
 664:Generated_Source\PSoC4/CapSense_Processing.c ****     widgetType = ptrFlashWdgt->wdgtType;
 665:Generated_Source\PSoC4/CapSense_Processing.c ****     ptrRamWdgt = (CapSense_RAM_WD_BASE_STRUCT *)ptrFlashWdgt->ptr2WdgtRam;
 666:Generated_Source\PSoC4/CapSense_Processing.c **** 
 667:Generated_Source\PSoC4/CapSense_Processing.c ****     #if (CapSense_ENABLE == CapSense_RC_FILTER_EN)
 668:Generated_Source\PSoC4/CapSense_Processing.c ****         if (0u != (mode & CapSense_PROCESS_FILTER))
 669:Generated_Source\PSoC4/CapSense_Processing.c ****         {
 670:Generated_Source\PSoC4/CapSense_Processing.c ****             CapSense_FtRunEnabledFiltersInternal(fltrHistV, curSnsPtr, widgetType);
 671:Generated_Source\PSoC4/CapSense_Processing.c ****             #if (CapSense_ALP_FILTER_EN)
 672:Generated_Source\PSoC4/CapSense_Processing.c ****                 CapSense_ConfigRunALPInternal(fltrHistV, ptrRamWdgt, curSnsPtr, widgetType);
 673:Generated_Source\PSoC4/CapSense_Processing.c ****             #endif
 674:Generated_Source\PSoC4/CapSense_Processing.c ****         }
 675:Generated_Source\PSoC4/CapSense_Processing.c ****     #else
 676:Generated_Source\PSoC4/CapSense_Processing.c ****         (void)fltrHistV; /* This parameter is unused in such configurations */
 677:Generated_Source\PSoC4/CapSense_Processing.c ****     #endif /* #if (CapSense_ENABLE == CapSense_RC_FILTER_EN) */
 678:Generated_Source\PSoC4/CapSense_Processing.c **** 
 679:Generated_Source\PSoC4/CapSense_Processing.c ****     if (0u != (mode & CapSense_PROCESS_BASELINE))
 680:Generated_Source\PSoC4/CapSense_Processing.c ****     {
 681:Generated_Source\PSoC4/CapSense_Processing.c ****         result = CapSense_FtUpdateBaseline(ptrRamWdgt, curSnsPtr, widgetType);
 682:Generated_Source\PSoC4/CapSense_Processing.c ****     }
 683:Generated_Source\PSoC4/CapSense_Processing.c **** 
 684:Generated_Source\PSoC4/CapSense_Processing.c ****     if (0u != (mode & CapSense_PROCESS_DIFFCOUNTS))
 685:Generated_Source\PSoC4/CapSense_Processing.c ****     {
 686:Generated_Source\PSoC4/CapSense_Processing.c ****         CapSense_DpUpdateDifferences(ptrRamWdgt, curSnsPtr);
 687:Generated_Source\PSoC4/CapSense_Processing.c ****     }
 688:Generated_Source\PSoC4/CapSense_Processing.c ****     return result;
 689:Generated_Source\PSoC4/CapSense_Processing.c **** }
 690:Generated_Source\PSoC4/CapSense_Processing.c **** 
 691:Generated_Source\PSoC4/CapSense_Processing.c **** 
 692:Generated_Source\PSoC4/CapSense_Processing.c **** /*******************************************************************************
 693:Generated_Source\PSoC4/CapSense_Processing.c **** * Function Name: CapSense_DpProcessCsxWidgetStatus
 694:Generated_Source\PSoC4/CapSense_Processing.c **** ****************************************************************************//**
 695:Generated_Source\PSoC4/CapSense_Processing.c **** *
 696:Generated_Source\PSoC4/CapSense_Processing.c **** * \brief
 697:Generated_Source\PSoC4/CapSense_Processing.c **** *   Updates the status of the CSX widget in the Data Structure.
 698:Generated_Source\PSoC4/CapSense_Processing.c **** *
ARM GAS  C:\Users\Zhu\AppData\Local\Temp\ccMjsG6v.s 			page 16


 699:Generated_Source\PSoC4/CapSense_Processing.c **** * \details
 700:Generated_Source\PSoC4/CapSense_Processing.c **** *  This API determines the type of widget and runs the appropriate function
 701:Generated_Source\PSoC4/CapSense_Processing.c **** *  that implements the status update algorithm for this type of widget.
 702:Generated_Source\PSoC4/CapSense_Processing.c **** *
 703:Generated_Source\PSoC4/CapSense_Processing.c **** *  When the widget-specific processing completes this API updates the snsStatus
 704:Generated_Source\PSoC4/CapSense_Processing.c **** *  and wdgtStatus registers in the data structure. The wdgtStatus register
 705:Generated_Source\PSoC4/CapSense_Processing.c **** *  is a bitmask were each bit corresponds to the specific widget identified by
 706:Generated_Source\PSoC4/CapSense_Processing.c **** *  the widget index. When the bit is set the widget is active (touched);
 707:Generated_Source\PSoC4/CapSense_Processing.c **** *
 708:Generated_Source\PSoC4/CapSense_Processing.c **** *  Depending on the type of widget the snsStatus register may contain either
 709:Generated_Source\PSoC4/CapSense_Processing.c **** *  status of each widget node (active/non-active) or in case of the CSX Touchpad
 710:Generated_Source\PSoC4/CapSense_Processing.c **** *  is contains the number of touches. In both cases 0 means that widget is not
 711:Generated_Source\PSoC4/CapSense_Processing.c **** *  active.
 712:Generated_Source\PSoC4/CapSense_Processing.c **** *
 713:Generated_Source\PSoC4/CapSense_Processing.c **** * \param widgetId     The widget ID number.
 714:Generated_Source\PSoC4/CapSense_Processing.c **** * \param ptrFlashWdgt The pointer to the Flash Widget Object.
 715:Generated_Source\PSoC4/CapSense_Processing.c **** *
 716:Generated_Source\PSoC4/CapSense_Processing.c **** *******************************************************************************/
 717:Generated_Source\PSoC4/CapSense_Processing.c **** void CapSense_DpProcessCsxWidgetStatus(uint32 widgetId, CapSense_FLASH_WD_STRUCT const *ptrFlashWdg
 718:Generated_Source\PSoC4/CapSense_Processing.c **** {
 719:Generated_Source\PSoC4/CapSense_Processing.c ****     uint32 sensorStatus;
 720:Generated_Source\PSoC4/CapSense_Processing.c ****     uint32 wdStatusIndex;
 721:Generated_Source\PSoC4/CapSense_Processing.c ****     uint32 wdStatusMask;
 722:Generated_Source\PSoC4/CapSense_Processing.c ****     CapSense_WD_TYPE_ENUM widgetType;
 723:Generated_Source\PSoC4/CapSense_Processing.c **** 
 724:Generated_Source\PSoC4/CapSense_Processing.c ****     widgetType = (CapSense_WD_TYPE_ENUM)ptrFlashWdgt->wdgtType;
 725:Generated_Source\PSoC4/CapSense_Processing.c ****     sensorStatus = CapSense_dsRam.snsStatus[widgetId];
 726:Generated_Source\PSoC4/CapSense_Processing.c **** 
 727:Generated_Source\PSoC4/CapSense_Processing.c ****     switch (widgetType)
 728:Generated_Source\PSoC4/CapSense_Processing.c ****     {
 729:Generated_Source\PSoC4/CapSense_Processing.c ****     #if (0u != CapSense_BUTTON_WIDGET_EN)
 730:Generated_Source\PSoC4/CapSense_Processing.c ****         case CapSense_WD_BUTTON_E:
 731:Generated_Source\PSoC4/CapSense_Processing.c ****             sensorStatus = CapSense_DpProcessButton(sensorStatus, ptrFlashWdgt);
 732:Generated_Source\PSoC4/CapSense_Processing.c ****             break;
 733:Generated_Source\PSoC4/CapSense_Processing.c ****     #endif /* #if (0u != CapSense_BUTTON_WIDGET_EN) */
 734:Generated_Source\PSoC4/CapSense_Processing.c **** 
 735:Generated_Source\PSoC4/CapSense_Processing.c ****     #if (0u != CapSense_CSX_MATRIX_WIDGET_EN)
 736:Generated_Source\PSoC4/CapSense_Processing.c ****         case CapSense_WD_MATRIX_BUTTON_E:
 737:Generated_Source\PSoC4/CapSense_Processing.c ****             sensorStatus = CapSense_DpProcessButton(sensorStatus, ptrFlashWdgt);
 738:Generated_Source\PSoC4/CapSense_Processing.c ****             break;
 739:Generated_Source\PSoC4/CapSense_Processing.c ****     #endif /* #if (0u != CapSense_CSX_MATRIX_WIDGET_EN) */
 740:Generated_Source\PSoC4/CapSense_Processing.c **** 
 741:Generated_Source\PSoC4/CapSense_Processing.c ****     #if (0u != CapSense_CSX_TOUCHPAD_WIDGET_EN)
 742:Generated_Source\PSoC4/CapSense_Processing.c ****         case CapSense_WD_TOUCHPAD_E:
 743:Generated_Source\PSoC4/CapSense_Processing.c ****             sensorStatus = CapSense_DpProcessCsxTouchpad(sensorStatus, ptrFlashWdgt);
 744:Generated_Source\PSoC4/CapSense_Processing.c ****             break;
 745:Generated_Source\PSoC4/CapSense_Processing.c ****     #endif /* #if (0u != CapSense_CSX_TOUCHPAD_WIDGET_EN) */
 746:Generated_Source\PSoC4/CapSense_Processing.c **** 
 747:Generated_Source\PSoC4/CapSense_Processing.c ****     default:
 748:Generated_Source\PSoC4/CapSense_Processing.c ****         CYASSERT(0u);
 749:Generated_Source\PSoC4/CapSense_Processing.c ****         break;
 750:Generated_Source\PSoC4/CapSense_Processing.c ****     }
 751:Generated_Source\PSoC4/CapSense_Processing.c **** 
 752:Generated_Source\PSoC4/CapSense_Processing.c ****     /* Update sensor status in the data structure */
 753:Generated_Source\PSoC4/CapSense_Processing.c ****     CapSense_dsRam.snsStatus[widgetId] = (CapSense_SNS_STS_TYPE)sensorStatus;
 754:Generated_Source\PSoC4/CapSense_Processing.c **** 
 755:Generated_Source\PSoC4/CapSense_Processing.c ****     /* The next two lines calculate index and bitmask of the widget status bit in the wdgtStatus ar
ARM GAS  C:\Users\Zhu\AppData\Local\Temp\ccMjsG6v.s 			page 17


 756:Generated_Source\PSoC4/CapSense_Processing.c ****     wdStatusIndex = CapSense_GET_WDGT_STATUS_INDEX(widgetId);
 757:Generated_Source\PSoC4/CapSense_Processing.c ****     wdStatusMask = CapSense_GET_WDGT_STATUS_MASK(widgetId);
 758:Generated_Source\PSoC4/CapSense_Processing.c **** 
 759:Generated_Source\PSoC4/CapSense_Processing.c ****     /* Check if there are active sensors and update widget status accordingly */
 760:Generated_Source\PSoC4/CapSense_Processing.c ****     if (0u == sensorStatus)
 761:Generated_Source\PSoC4/CapSense_Processing.c ****     {
 762:Generated_Source\PSoC4/CapSense_Processing.c ****         CapSense_dsRam.wdgtStatus[wdStatusIndex] &= ~wdStatusMask;
 763:Generated_Source\PSoC4/CapSense_Processing.c ****     }
 764:Generated_Source\PSoC4/CapSense_Processing.c ****     else
 765:Generated_Source\PSoC4/CapSense_Processing.c ****     {
 766:Generated_Source\PSoC4/CapSense_Processing.c ****         CapSense_dsRam.wdgtStatus[wdStatusIndex] |= wdStatusMask;
 767:Generated_Source\PSoC4/CapSense_Processing.c ****     }
 768:Generated_Source\PSoC4/CapSense_Processing.c **** }
 769:Generated_Source\PSoC4/CapSense_Processing.c **** #endif /* #if CapSense_TOTAL_CSX_WIDGETS */
 770:Generated_Source\PSoC4/CapSense_Processing.c **** 
 771:Generated_Source\PSoC4/CapSense_Processing.c **** #if (0u != CapSense_TOTAL_ISX_WIDGETS)
 772:Generated_Source\PSoC4/CapSense_Processing.c **** /*******************************************************************************
 773:Generated_Source\PSoC4/CapSense_Processing.c **** * Function Name: CapSense_DpProcessIsxWidgetRawCounts
 774:Generated_Source\PSoC4/CapSense_Processing.c **** ****************************************************************************//**
 775:Generated_Source\PSoC4/CapSense_Processing.c **** *
 776:Generated_Source\PSoC4/CapSense_Processing.c **** * \brief
 777:Generated_Source\PSoC4/CapSense_Processing.c **** *  Performs default processing of the ISX raw counts.
 778:Generated_Source\PSoC4/CapSense_Processing.c **** *
 779:Generated_Source\PSoC4/CapSense_Processing.c **** * \details
 780:Generated_Source\PSoC4/CapSense_Processing.c **** *  Performs default processing of the ISX raw counts:
 781:Generated_Source\PSoC4/CapSense_Processing.c **** *   - Run Filters
 782:Generated_Source\PSoC4/CapSense_Processing.c **** *   - Update Baselines
 783:Generated_Source\PSoC4/CapSense_Processing.c **** *   - Update Differences
 784:Generated_Source\PSoC4/CapSense_Processing.c **** *   - Update Status.
 785:Generated_Source\PSoC4/CapSense_Processing.c **** *  The same process is applied to all the sensors of the specified widget.
 786:Generated_Source\PSoC4/CapSense_Processing.c **** *
 787:Generated_Source\PSoC4/CapSense_Processing.c **** * \param ptrFlashWdgt The pointer to the Flash widget structure.
 788:Generated_Source\PSoC4/CapSense_Processing.c **** *
 789:Generated_Source\PSoC4/CapSense_Processing.c **** * \return
 790:Generated_Source\PSoC4/CapSense_Processing.c **** *  Returns the status of the specified widget processing operation:
 791:Generated_Source\PSoC4/CapSense_Processing.c **** *  - CYRET_SUCCESS if operation was successfully completed;
 792:Generated_Source\PSoC4/CapSense_Processing.c **** *  - CapSense_PROCESS_BASELINE_FAILED if baseline processing of any
 793:Generated_Source\PSoC4/CapSense_Processing.c **** *    sensor of the specified widget failed. The result is concatenated with the index
 794:Generated_Source\PSoC4/CapSense_Processing.c **** *    of failed sensor.
 795:Generated_Source\PSoC4/CapSense_Processing.c **** *
 796:Generated_Source\PSoC4/CapSense_Processing.c **** *******************************************************************************/
 797:Generated_Source\PSoC4/CapSense_Processing.c **** uint32 CapSense_DpProcessIsxWidgetRawCounts(CapSense_FLASH_WD_STRUCT const *ptrFlashWdgt)
 798:Generated_Source\PSoC4/CapSense_Processing.c **** {
 799:Generated_Source\PSoC4/CapSense_Processing.c ****     uint32 result = CYRET_SUCCESS;
 800:Generated_Source\PSoC4/CapSense_Processing.c ****     uint32 widgetType;
 801:Generated_Source\PSoC4/CapSense_Processing.c ****     uint32 snsCount;
 802:Generated_Source\PSoC4/CapSense_Processing.c ****     CapSense_RAM_SNS_STRUCT *ptrSns;
 803:Generated_Source\PSoC4/CapSense_Processing.c ****     CapSense_RAM_WD_BASE_STRUCT *ptrRamWdgt;
 804:Generated_Source\PSoC4/CapSense_Processing.c **** 
 805:Generated_Source\PSoC4/CapSense_Processing.c ****     #if (CapSense_ENABLE == CapSense_RC_FILTER_EN)
 806:Generated_Source\PSoC4/CapSense_Processing.c ****         CapSense_PTR_FILTER_VARIANT fltrHistV;
 807:Generated_Source\PSoC4/CapSense_Processing.c **** 
 808:Generated_Source\PSoC4/CapSense_Processing.c ****         fltrHistV.ptr = ptrFlashWdgt->ptr2FltrHistory;
 809:Generated_Source\PSoC4/CapSense_Processing.c ****     #endif /* #if (CapSense_ENABLE == CapSense_RC_FILTER_EN) */
 810:Generated_Source\PSoC4/CapSense_Processing.c **** 
 811:Generated_Source\PSoC4/CapSense_Processing.c ****     ptrSns = ptrFlashWdgt->ptr2SnsRam;
 812:Generated_Source\PSoC4/CapSense_Processing.c ****     snsCount = ptrFlashWdgt->totalNumSns;
ARM GAS  C:\Users\Zhu\AppData\Local\Temp\ccMjsG6v.s 			page 18


 813:Generated_Source\PSoC4/CapSense_Processing.c ****     ptrRamWdgt = ptrFlashWdgt->ptr2WdgtRam;
 814:Generated_Source\PSoC4/CapSense_Processing.c ****     widgetType = ptrFlashWdgt->wdgtType;
 815:Generated_Source\PSoC4/CapSense_Processing.c **** 
 816:Generated_Source\PSoC4/CapSense_Processing.c ****     #if (0u != CapSense_ISX_SKIP_OVSMPL_SPECIFIC_NODES)
 817:Generated_Source\PSoC4/CapSense_Processing.c ****         if (0u != ptrSns->resolution)
 818:Generated_Source\PSoC4/CapSense_Processing.c ****     #endif
 819:Generated_Source\PSoC4/CapSense_Processing.c ****     {
 820:Generated_Source\PSoC4/CapSense_Processing.c ****         for(;snsCount-- > 0u;)
 821:Generated_Source\PSoC4/CapSense_Processing.c ****         {
 822:Generated_Source\PSoC4/CapSense_Processing.c ****             #if (CapSense_ENABLE == CapSense_RC_FILTER_EN)
 823:Generated_Source\PSoC4/CapSense_Processing.c ****                 CapSense_FtRunEnabledFiltersInternal(fltrHistV, ptrSns, widgetType);
 824:Generated_Source\PSoC4/CapSense_Processing.c ****             #endif /* #if (CapSense_ENABLE == CapSense_RC_FILTER_EN) */
 825:Generated_Source\PSoC4/CapSense_Processing.c **** 
 826:Generated_Source\PSoC4/CapSense_Processing.c ****             result = CapSense_FtUpdateBaseline(ptrRamWdgt, ptrSns, widgetType);
 827:Generated_Source\PSoC4/CapSense_Processing.c **** 
 828:Generated_Source\PSoC4/CapSense_Processing.c ****             #if (CapSense_ENABLE == CapSense_TST_BSLN_DUPLICATION_EN)
 829:Generated_Source\PSoC4/CapSense_Processing.c ****                 if (CYRET_SUCCESS != result)
 830:Generated_Source\PSoC4/CapSense_Processing.c ****                 {
 831:Generated_Source\PSoC4/CapSense_Processing.c ****                     result = CapSense_PROCESS_BASELINE_FAILED;
 832:Generated_Source\PSoC4/CapSense_Processing.c ****                 }
 833:Generated_Source\PSoC4/CapSense_Processing.c ****             #endif /* (CapSense_ENABLE == CapSense_TST_BSLN_DUPLICATION_EN) */
 834:Generated_Source\PSoC4/CapSense_Processing.c **** 
 835:Generated_Source\PSoC4/CapSense_Processing.c ****             CapSense_DpUpdateDifferences(ptrRamWdgt, ptrSns);
 836:Generated_Source\PSoC4/CapSense_Processing.c ****             ptrSns++;
 837:Generated_Source\PSoC4/CapSense_Processing.c **** 
 838:Generated_Source\PSoC4/CapSense_Processing.c ****             #if (CapSense_ENABLE == CapSense_RC_FILTER_EN)
 839:Generated_Source\PSoC4/CapSense_Processing.c ****                 CapSense_INC_FLTR_OBJ_VARIANT(0u, fltrHistV);
 840:Generated_Source\PSoC4/CapSense_Processing.c ****             #endif /* #if (CapSense_ENABLE == CapSense_RC_FILTER_EN) */
 841:Generated_Source\PSoC4/CapSense_Processing.c ****         }
 842:Generated_Source\PSoC4/CapSense_Processing.c ****     }
 843:Generated_Source\PSoC4/CapSense_Processing.c **** 
 844:Generated_Source\PSoC4/CapSense_Processing.c ****     return result;
 845:Generated_Source\PSoC4/CapSense_Processing.c **** }
 846:Generated_Source\PSoC4/CapSense_Processing.c **** 
 847:Generated_Source\PSoC4/CapSense_Processing.c **** /*******************************************************************************
 848:Generated_Source\PSoC4/CapSense_Processing.c **** * Function Name: CapSense_DpProcessIsxSensorRawCountsExt
 849:Generated_Source\PSoC4/CapSense_Processing.c **** ****************************************************************************//**
 850:Generated_Source\PSoC4/CapSense_Processing.c **** *
 851:Generated_Source\PSoC4/CapSense_Processing.c **** * \brief
 852:Generated_Source\PSoC4/CapSense_Processing.c **** *   Performs customized processing of the ISX sensor raw counts.
 853:Generated_Source\PSoC4/CapSense_Processing.c **** *
 854:Generated_Source\PSoC4/CapSense_Processing.c **** * \details
 855:Generated_Source\PSoC4/CapSense_Processing.c **** *   Performs customized processing of the ISX sensor raw counts.
 856:Generated_Source\PSoC4/CapSense_Processing.c **** *
 857:Generated_Source\PSoC4/CapSense_Processing.c **** *   If all bits are set at once the default processing order will take place.
 858:Generated_Source\PSoC4/CapSense_Processing.c **** *   For the custom order this API can be called multiple times and execute one task at a time.
 859:Generated_Source\PSoC4/CapSense_Processing.c **** *
 860:Generated_Source\PSoC4/CapSense_Processing.c **** * \param ptrFlashWdgt The pointer to the Flash Widget Object.
 861:Generated_Source\PSoC4/CapSense_Processing.c **** * \param ptrSns       The pointer to the specific RAM Sensor Object.
 862:Generated_Source\PSoC4/CapSense_Processing.c **** * \param fltrHistV    The pointer to the Filter History Object in RAM associated with specific sens
 863:Generated_Source\PSoC4/CapSense_Processing.c **** * \param mode         The bit-mask with the data processing tasks to be executed.
 864:Generated_Source\PSoC4/CapSense_Processing.c **** *   The mode parameters can take the following values:
 865:Generated_Source\PSoC4/CapSense_Processing.c **** *    - CapSense_PROCESS_FILTER     (0x01) Run Firmware Filter
 866:Generated_Source\PSoC4/CapSense_Processing.c **** *    - CapSense_PROCESS_BASELINE   (0x02) Update Baselines
 867:Generated_Source\PSoC4/CapSense_Processing.c **** *    - CapSense_PROCESS_DIFFCOUNTS (0x04) Update Difference Counts
 868:Generated_Source\PSoC4/CapSense_Processing.c **** *    - CapSense_PROCESS_ALL               Execute all tasks
 869:Generated_Source\PSoC4/CapSense_Processing.c **** *
ARM GAS  C:\Users\Zhu\AppData\Local\Temp\ccMjsG6v.s 			page 19


 870:Generated_Source\PSoC4/CapSense_Processing.c **** * \return
 871:Generated_Source\PSoC4/CapSense_Processing.c **** *  Returns the status of the specified sensor processing operation:
 872:Generated_Source\PSoC4/CapSense_Processing.c **** *  - CYRET_SUCCESS if operation was successfully completed;
 873:Generated_Source\PSoC4/CapSense_Processing.c **** *  - CapSense_PROCESS_BASELINE_FAILED if baseline processing of any
 874:Generated_Source\PSoC4/CapSense_Processing.c **** *    sensor of the specified widget failed. The result is concatenated with the index
 875:Generated_Source\PSoC4/CapSense_Processing.c **** *    of failed sensor.
 876:Generated_Source\PSoC4/CapSense_Processing.c **** *
 877:Generated_Source\PSoC4/CapSense_Processing.c **** *******************************************************************************/
 878:Generated_Source\PSoC4/CapSense_Processing.c **** uint32 CapSense_DpProcessIsxSensorRawCountsExt(
 879:Generated_Source\PSoC4/CapSense_Processing.c ****                 CapSense_FLASH_WD_STRUCT const *ptrFlashWdgt,
 880:Generated_Source\PSoC4/CapSense_Processing.c ****                 CapSense_RAM_SNS_STRUCT *ptrSns,
 881:Generated_Source\PSoC4/CapSense_Processing.c ****                 CapSense_PTR_FILTER_VARIANT fltrHistV,
 882:Generated_Source\PSoC4/CapSense_Processing.c ****                 uint32 mode)
 883:Generated_Source\PSoC4/CapSense_Processing.c **** {
 884:Generated_Source\PSoC4/CapSense_Processing.c ****     uint32  result = CYRET_SUCCESS;
 885:Generated_Source\PSoC4/CapSense_Processing.c ****     uint32  widgetType;
 886:Generated_Source\PSoC4/CapSense_Processing.c ****     CapSense_RAM_WD_BASE_STRUCT *ptrRamWdgt;
 887:Generated_Source\PSoC4/CapSense_Processing.c **** 
 888:Generated_Source\PSoC4/CapSense_Processing.c ****     widgetType = ptrFlashWdgt->wdgtType;
 889:Generated_Source\PSoC4/CapSense_Processing.c ****     ptrRamWdgt = ptrFlashWdgt->ptr2WdgtRam;
 890:Generated_Source\PSoC4/CapSense_Processing.c **** 
 891:Generated_Source\PSoC4/CapSense_Processing.c ****     #if (CapSense_ENABLE == CapSense_RC_FILTER_EN)
 892:Generated_Source\PSoC4/CapSense_Processing.c ****         if (0u != (mode & CapSense_PROCESS_FILTER))
 893:Generated_Source\PSoC4/CapSense_Processing.c ****         {
 894:Generated_Source\PSoC4/CapSense_Processing.c ****             CapSense_FtRunEnabledFiltersInternal(fltrHistV, ptrSns, widgetType);
 895:Generated_Source\PSoC4/CapSense_Processing.c ****         }
 896:Generated_Source\PSoC4/CapSense_Processing.c ****     #else
 897:Generated_Source\PSoC4/CapSense_Processing.c ****         (void)fltrHistV; /* This parameter is unused in such configurations */
 898:Generated_Source\PSoC4/CapSense_Processing.c ****     #endif /* #if (CapSense_ENABLE == CapSense_RC_FILTER_EN) */
 899:Generated_Source\PSoC4/CapSense_Processing.c **** 
 900:Generated_Source\PSoC4/CapSense_Processing.c ****     if (0u != (mode & CapSense_PROCESS_BASELINE))
 901:Generated_Source\PSoC4/CapSense_Processing.c ****     {
 902:Generated_Source\PSoC4/CapSense_Processing.c ****         result = CapSense_FtUpdateBaseline(ptrRamWdgt, ptrSns, widgetType);
 903:Generated_Source\PSoC4/CapSense_Processing.c ****     }
 904:Generated_Source\PSoC4/CapSense_Processing.c **** 
 905:Generated_Source\PSoC4/CapSense_Processing.c ****     if (0u != (mode & CapSense_PROCESS_DIFFCOUNTS))
 906:Generated_Source\PSoC4/CapSense_Processing.c ****     {
 907:Generated_Source\PSoC4/CapSense_Processing.c ****         CapSense_DpUpdateDifferences(ptrRamWdgt, ptrSns);
 908:Generated_Source\PSoC4/CapSense_Processing.c ****     }
 909:Generated_Source\PSoC4/CapSense_Processing.c ****     return result;
 910:Generated_Source\PSoC4/CapSense_Processing.c **** }
 911:Generated_Source\PSoC4/CapSense_Processing.c **** 
 912:Generated_Source\PSoC4/CapSense_Processing.c **** 
 913:Generated_Source\PSoC4/CapSense_Processing.c **** /*******************************************************************************
 914:Generated_Source\PSoC4/CapSense_Processing.c **** * Function Name: CapSense_DpProcessIsxWidgetStatus
 915:Generated_Source\PSoC4/CapSense_Processing.c **** ****************************************************************************//**
 916:Generated_Source\PSoC4/CapSense_Processing.c **** *
 917:Generated_Source\PSoC4/CapSense_Processing.c **** * \brief
 918:Generated_Source\PSoC4/CapSense_Processing.c **** *   Updates the status of the ISX widget in the Data Structure.
 919:Generated_Source\PSoC4/CapSense_Processing.c **** *
 920:Generated_Source\PSoC4/CapSense_Processing.c **** * \details
 921:Generated_Source\PSoC4/CapSense_Processing.c **** *  This API determines the type of widget and runs the appropriate function
 922:Generated_Source\PSoC4/CapSense_Processing.c **** *  that implements the status update algorithm for this type of widget.
 923:Generated_Source\PSoC4/CapSense_Processing.c **** *
 924:Generated_Source\PSoC4/CapSense_Processing.c **** *  When the widget-specific processing completes this API updates the snsStatus
 925:Generated_Source\PSoC4/CapSense_Processing.c **** *  and wdgtStatus registers in the data structure. The wdgtStatus register
 926:Generated_Source\PSoC4/CapSense_Processing.c **** *  is a bitmask were each bit corresponds to the specific widget identified by
ARM GAS  C:\Users\Zhu\AppData\Local\Temp\ccMjsG6v.s 			page 20


 927:Generated_Source\PSoC4/CapSense_Processing.c **** *  the widget index. When the bit is set the widget is active (touched);
 928:Generated_Source\PSoC4/CapSense_Processing.c **** *
 929:Generated_Source\PSoC4/CapSense_Processing.c **** *  Depending on the type of widget the snsStatus register may contain either
 930:Generated_Source\PSoC4/CapSense_Processing.c **** *  status of each widget node (active/non-active) or in case of the ISX Touchpad
 931:Generated_Source\PSoC4/CapSense_Processing.c **** *  is contains the number of touches. In both cases 0 means that widget is not
 932:Generated_Source\PSoC4/CapSense_Processing.c **** *  active.
 933:Generated_Source\PSoC4/CapSense_Processing.c **** *
 934:Generated_Source\PSoC4/CapSense_Processing.c **** * \param wdgtId       The widget index number.
 935:Generated_Source\PSoC4/CapSense_Processing.c **** * \param ptrFlashWdgt The pointer to the Flash Widget Object.
 936:Generated_Source\PSoC4/CapSense_Processing.c **** *
 937:Generated_Source\PSoC4/CapSense_Processing.c **** *******************************************************************************/
 938:Generated_Source\PSoC4/CapSense_Processing.c **** void CapSense_DpProcessIsxWidgetStatus(uint32 wdgtId, CapSense_FLASH_WD_STRUCT const *ptrFlashWdgt)
 939:Generated_Source\PSoC4/CapSense_Processing.c **** {
 940:Generated_Source\PSoC4/CapSense_Processing.c ****     uint32 sensorStatus;
 941:Generated_Source\PSoC4/CapSense_Processing.c ****     uint32 wdStatusIndex;
 942:Generated_Source\PSoC4/CapSense_Processing.c ****     uint32 wdStatusMask;
 943:Generated_Source\PSoC4/CapSense_Processing.c ****     CapSense_WD_TYPE_ENUM widgetType;
 944:Generated_Source\PSoC4/CapSense_Processing.c **** 
 945:Generated_Source\PSoC4/CapSense_Processing.c ****     widgetType = (CapSense_WD_TYPE_ENUM)ptrFlashWdgt->wdgtType;
 946:Generated_Source\PSoC4/CapSense_Processing.c ****     sensorStatus = CapSense_dsRam.snsStatus[wdgtId];
 947:Generated_Source\PSoC4/CapSense_Processing.c **** 
 948:Generated_Source\PSoC4/CapSense_Processing.c ****     switch (widgetType)
 949:Generated_Source\PSoC4/CapSense_Processing.c ****     {
 950:Generated_Source\PSoC4/CapSense_Processing.c ****     #if (0u != CapSense_PROXIMITY_WIDGET_EN)
 951:Generated_Source\PSoC4/CapSense_Processing.c ****         case CapSense_WD_PROXIMITY_E:
 952:Generated_Source\PSoC4/CapSense_Processing.c ****             sensorStatus = CapSense_DpProcessProximity(sensorStatus, ptrFlashWdgt);
 953:Generated_Source\PSoC4/CapSense_Processing.c ****             break;
 954:Generated_Source\PSoC4/CapSense_Processing.c ****     #endif /* #if (0u != CapSense_Proximity_WIDGET_EN) */
 955:Generated_Source\PSoC4/CapSense_Processing.c ****     #if (0u != CapSense_ENCODERDIAL_WIDGET_EN)
 956:Generated_Source\PSoC4/CapSense_Processing.c ****         case CapSense_WD_ENCODERDIAL_E:
 957:Generated_Source\PSoC4/CapSense_Processing.c ****             sensorStatus = CapSense_DpProcessEncoderDial(sensorStatus, ptrFlashWdgt);
 958:Generated_Source\PSoC4/CapSense_Processing.c ****             break;
 959:Generated_Source\PSoC4/CapSense_Processing.c ****     #endif /* #if (0u != CapSense_Proximity_WIDGET_EN) */
 960:Generated_Source\PSoC4/CapSense_Processing.c ****     #if (0u != CapSense_BUTTON_WIDGET_EN)
 961:Generated_Source\PSoC4/CapSense_Processing.c ****         case CapSense_WD_BUTTON_E:
 962:Generated_Source\PSoC4/CapSense_Processing.c ****             sensorStatus = CapSense_DpProcessButton(sensorStatus, ptrFlashWdgt);
 963:Generated_Source\PSoC4/CapSense_Processing.c ****             break;
 964:Generated_Source\PSoC4/CapSense_Processing.c ****     #endif /* #if (0u != CapSense_Proximity_WIDGET_EN) */
 965:Generated_Source\PSoC4/CapSense_Processing.c **** 
 966:Generated_Source\PSoC4/CapSense_Processing.c ****     default:
 967:Generated_Source\PSoC4/CapSense_Processing.c ****         CYASSERT(0u);
 968:Generated_Source\PSoC4/CapSense_Processing.c ****         break;
 969:Generated_Source\PSoC4/CapSense_Processing.c ****     }
 970:Generated_Source\PSoC4/CapSense_Processing.c **** 
 971:Generated_Source\PSoC4/CapSense_Processing.c ****     /* Update sensor status in the data structure */
 972:Generated_Source\PSoC4/CapSense_Processing.c ****     CapSense_dsRam.snsStatus[wdgtId] = (CapSense_SNS_STS_TYPE)sensorStatus;
 973:Generated_Source\PSoC4/CapSense_Processing.c **** 
 974:Generated_Source\PSoC4/CapSense_Processing.c ****     /* The next two lines calculate index and bitmask of the widget status bit in the wdgtStatus ar
 975:Generated_Source\PSoC4/CapSense_Processing.c ****     wdStatusIndex = CapSense_GET_WDGT_STATUS_INDEX(wdgtId);
 976:Generated_Source\PSoC4/CapSense_Processing.c ****     wdStatusMask = CapSense_GET_WDGT_STATUS_MASK(wdgtId);
 977:Generated_Source\PSoC4/CapSense_Processing.c **** 
 978:Generated_Source\PSoC4/CapSense_Processing.c ****     /* Check if there are active sensors and update widget status accordingly */
 979:Generated_Source\PSoC4/CapSense_Processing.c ****     if (0u == sensorStatus)
 980:Generated_Source\PSoC4/CapSense_Processing.c ****     {
 981:Generated_Source\PSoC4/CapSense_Processing.c ****         CapSense_dsRam.wdgtStatus[wdStatusIndex] &= ~wdStatusMask;
 982:Generated_Source\PSoC4/CapSense_Processing.c ****     }
 983:Generated_Source\PSoC4/CapSense_Processing.c ****     else
ARM GAS  C:\Users\Zhu\AppData\Local\Temp\ccMjsG6v.s 			page 21


 984:Generated_Source\PSoC4/CapSense_Processing.c ****     {
 985:Generated_Source\PSoC4/CapSense_Processing.c ****         CapSense_dsRam.wdgtStatus[wdStatusIndex] |= wdStatusMask;
 986:Generated_Source\PSoC4/CapSense_Processing.c ****     }
 987:Generated_Source\PSoC4/CapSense_Processing.c **** }
 988:Generated_Source\PSoC4/CapSense_Processing.c **** #endif /* #if CapSense_TOTAL_ISX_WIDGETS */
 989:Generated_Source\PSoC4/CapSense_Processing.c **** 
 990:Generated_Source\PSoC4/CapSense_Processing.c **** #if (0u != CapSense_TOTAL_CSD_WIDGETS)
 991:Generated_Source\PSoC4/CapSense_Processing.c **** /*******************************************************************************
 992:Generated_Source\PSoC4/CapSense_Processing.c **** * Function Name: CapSense_DpProcessCsdWidgetRawCounts
 993:Generated_Source\PSoC4/CapSense_Processing.c **** ****************************************************************************//**
 994:Generated_Source\PSoC4/CapSense_Processing.c **** *
 995:Generated_Source\PSoC4/CapSense_Processing.c **** * \brief
 996:Generated_Source\PSoC4/CapSense_Processing.c **** *   Performs default processing for the CSD widget raw counts.
 997:Generated_Source\PSoC4/CapSense_Processing.c **** *
 998:Generated_Source\PSoC4/CapSense_Processing.c **** * \details
 999:Generated_Source\PSoC4/CapSense_Processing.c **** *   Performs default processing for the CSD widget raw counts:
1000:Generated_Source\PSoC4/CapSense_Processing.c **** *    - Run Filters
1001:Generated_Source\PSoC4/CapSense_Processing.c **** *    - Update Thresholds (FW Auto-tuning)
1002:Generated_Source\PSoC4/CapSense_Processing.c **** *    - Update Baselines
1003:Generated_Source\PSoC4/CapSense_Processing.c **** *    - Update Differences.
1004:Generated_Source\PSoC4/CapSense_Processing.c **** *   The process is applied to all widget's sensors.
1005:Generated_Source\PSoC4/CapSense_Processing.c **** *
1006:Generated_Source\PSoC4/CapSense_Processing.c **** * \param ptrFlashWdgt The pointer to the Flash Widget Object.
1007:Generated_Source\PSoC4/CapSense_Processing.c **** *
1008:Generated_Source\PSoC4/CapSense_Processing.c **** * \return
1009:Generated_Source\PSoC4/CapSense_Processing.c **** *  Returns the status of the specified widget processing operation:
1010:Generated_Source\PSoC4/CapSense_Processing.c **** *  - CYRET_SUCCESS if operation was successfully completed;
1011:Generated_Source\PSoC4/CapSense_Processing.c **** *  - CapSense_PROCESS_BASELINE_FAILED if baseline processing of any
1012:Generated_Source\PSoC4/CapSense_Processing.c **** *    sensor of the specified widget failed. The result is concatenated with the index
1013:Generated_Source\PSoC4/CapSense_Processing.c **** *    of failed sensor.
1014:Generated_Source\PSoC4/CapSense_Processing.c **** *
1015:Generated_Source\PSoC4/CapSense_Processing.c **** *******************************************************************************/
1016:Generated_Source\PSoC4/CapSense_Processing.c **** uint32 CapSense_DpProcessCsdWidgetRawCounts(CapSense_FLASH_WD_STRUCT const *ptrFlashWdgt)
1017:Generated_Source\PSoC4/CapSense_Processing.c **** {
1018:Generated_Source\PSoC4/CapSense_Processing.c ****     uint32  result = CYRET_SUCCESS;
1019:Generated_Source\PSoC4/CapSense_Processing.c **** 
1020:Generated_Source\PSoC4/CapSense_Processing.c ****     #if (CapSense_ENABLE == CapSense_TST_BSLN_DUPLICATION_EN)
1021:Generated_Source\PSoC4/CapSense_Processing.c ****         uint32 bslnTstResult = CYRET_SUCCESS;
1022:Generated_Source\PSoC4/CapSense_Processing.c ****     #endif /* (CapSense_ENABLE == CapSense_TST_BSLN_DUPLICATION_EN) */
1023:Generated_Source\PSoC4/CapSense_Processing.c **** 
1024:Generated_Source\PSoC4/CapSense_Processing.c ****     uint32  widgetType;
1025:Generated_Source\PSoC4/CapSense_Processing.c ****     uint32  snsId;
1026:Generated_Source\PSoC4/CapSense_Processing.c ****     CapSense_RAM_SNS_STRUCT *ptrSnsTmp;
1027:Generated_Source\PSoC4/CapSense_Processing.c ****     CapSense_RAM_WD_BASE_STRUCT *ptrRamWdgt;
1028:Generated_Source\PSoC4/CapSense_Processing.c **** 
1029:Generated_Source\PSoC4/CapSense_Processing.c ****     #if (0u != (CapSense_CSD_AUTOTUNE & CapSense_CSD_SS_TH_EN))
1030:Generated_Source\PSoC4/CapSense_Processing.c ****         /* The noise envelope data is available only when Full CSD Auto-Tuning is enabled */
1031:Generated_Source\PSoC4/CapSense_Processing.c ****         SMARTSENSE_CSD_NOISE_ENVELOPE_STRUCT *ptrNoiseEnvelope;
1032:Generated_Source\PSoC4/CapSense_Processing.c ****         #if (CapSense_ENABLE == CapSense_PROXIMITY_WIDGET_EN)
1033:Generated_Source\PSoC4/CapSense_Processing.c ****             uint32  proximityThreshold;
1034:Generated_Source\PSoC4/CapSense_Processing.c ****         #endif /* (0 != CapSense_PROXIMITY_WIDGET_EN) */
1035:Generated_Source\PSoC4/CapSense_Processing.c ****     #endif /* #if (0u != (CapSense_CSD_AUTOTUNE & CapSense_CSD_SS_TH_EN)) */
1036:Generated_Source\PSoC4/CapSense_Processing.c **** 
1037:Generated_Source\PSoC4/CapSense_Processing.c ****     #if (CapSense_ENABLE == CapSense_RC_FILTER_EN)
1038:Generated_Source\PSoC4/CapSense_Processing.c ****         CapSense_PTR_FILTER_VARIANT fltrHistV;
1039:Generated_Source\PSoC4/CapSense_Processing.c **** 
1040:Generated_Source\PSoC4/CapSense_Processing.c ****         /* Determine if widget type is proximity */
ARM GAS  C:\Users\Zhu\AppData\Local\Temp\ccMjsG6v.s 			page 22


1041:Generated_Source\PSoC4/CapSense_Processing.c ****         uint32 isProxWdgt = (CapSense_GET_WIDGET_TYPE(ptrFlashWdgt) == CapSense_WD_PROXIMITY_E) ? 1
1042:Generated_Source\PSoC4/CapSense_Processing.c **** 
1043:Generated_Source\PSoC4/CapSense_Processing.c ****         /* Get pointer to the filter history object */
1044:Generated_Source\PSoC4/CapSense_Processing.c ****         fltrHistV.ptr = ptrFlashWdgt->ptr2FltrHistory;
1045:Generated_Source\PSoC4/CapSense_Processing.c ****     #endif /* #if (CapSense_ENABLE == CapSense_RC_FILTER_EN) */
1046:Generated_Source\PSoC4/CapSense_Processing.c **** 
1047:Generated_Source\PSoC4/CapSense_Processing.c ****     ptrSnsTmp = ptrFlashWdgt->ptr2SnsRam;
1048:Generated_Source\PSoC4/CapSense_Processing.c ****     ptrRamWdgt = (CapSense_RAM_WD_BASE_STRUCT *)ptrFlashWdgt->ptr2WdgtRam;
1049:Generated_Source\PSoC4/CapSense_Processing.c ****     widgetType = ptrFlashWdgt->wdgtType;
1050:Generated_Source\PSoC4/CapSense_Processing.c **** 
1051:Generated_Source\PSoC4/CapSense_Processing.c ****     #if (0u != (CapSense_CSD_AUTOTUNE & CapSense_CSD_SS_TH_EN))
1052:Generated_Source\PSoC4/CapSense_Processing.c ****         ptrNoiseEnvelope = ptrFlashWdgt->ptr2NoiseEnvlp;
1053:Generated_Source\PSoC4/CapSense_Processing.c ****     #endif /* #if (0u != (CapSense_CSD_AUTOTUNE & CapSense_CSD_SS_TH_EN)) */
1054:Generated_Source\PSoC4/CapSense_Processing.c **** 
1055:Generated_Source\PSoC4/CapSense_Processing.c ****     /* Iterate through all widget's sensors */
1056:Generated_Source\PSoC4/CapSense_Processing.c ****     for(snsId = 0u; snsId < ptrFlashWdgt->totalNumSns; snsId++)
1057:Generated_Source\PSoC4/CapSense_Processing.c ****     {
1058:Generated_Source\PSoC4/CapSense_Processing.c ****         /* Run all enabled filter on specified widget's sensor */
1059:Generated_Source\PSoC4/CapSense_Processing.c ****         #if (CapSense_ENABLE == CapSense_RC_FILTER_EN)
1060:Generated_Source\PSoC4/CapSense_Processing.c ****             CapSense_FtRunEnabledFiltersInternal(fltrHistV, ptrSnsTmp, widgetType);
1061:Generated_Source\PSoC4/CapSense_Processing.c ****             #if (CapSense_ALP_FILTER_EN)
1062:Generated_Source\PSoC4/CapSense_Processing.c ****                 CapSense_ConfigRunALPInternal(fltrHistV, ptrRamWdgt, ptrSnsTmp, widgetType);
1063:Generated_Source\PSoC4/CapSense_Processing.c ****             #endif
1064:Generated_Source\PSoC4/CapSense_Processing.c ****         #endif /* #if (CapSense_ENABLE == CapSense_RC_FILTER_EN) */
1065:Generated_Source\PSoC4/CapSense_Processing.c **** 
1066:Generated_Source\PSoC4/CapSense_Processing.c ****         /* Run auto-tuning activities */
1067:Generated_Source\PSoC4/CapSense_Processing.c ****         #if (0u != (CapSense_CSD_AUTOTUNE & CapSense_CSD_SS_TH_EN))
1068:Generated_Source\PSoC4/CapSense_Processing.c ****             SmartSense_RunNoiseEnvelope(ptrSnsTmp->raw[0u], ptrRamWdgt->sigPFC, ptrNoiseEnvelope);
1069:Generated_Source\PSoC4/CapSense_Processing.c ****             CapSense_DpUpdateThresholds(ptrRamWdgt, ptrNoiseEnvelope, snsId);
1070:Generated_Source\PSoC4/CapSense_Processing.c **** 
1071:Generated_Source\PSoC4/CapSense_Processing.c ****             /* Calculate Proximity Touch Threshold in SmartSense mode based on Finger Threshold and
1072:Generated_Source\PSoC4/CapSense_Processing.c ****             #if (CapSense_ENABLE == CapSense_PROXIMITY_WIDGET_EN)
1073:Generated_Source\PSoC4/CapSense_Processing.c ****                 if (CapSense_WD_PROXIMITY_E == CapSense_GET_WIDGET_TYPE(ptrFlashWdgt))
1074:Generated_Source\PSoC4/CapSense_Processing.c ****                 {
1075:Generated_Source\PSoC4/CapSense_Processing.c ****                     proximityThreshold = ((uint32)ptrRamWdgt->fingerTh * CapSense_PROX_TOUCH_COEFF)
1076:Generated_Source\PSoC4/CapSense_Processing.c ****                     if ((((1Lu) << CapSense_THRESHOLD_SIZE) - 1u) < proximityThreshold)
1077:Generated_Source\PSoC4/CapSense_Processing.c ****                     {
1078:Generated_Source\PSoC4/CapSense_Processing.c ****                         proximityThreshold = ((1Lu) << CapSense_THRESHOLD_SIZE) - 1u;
1079:Generated_Source\PSoC4/CapSense_Processing.c ****                     }
1080:Generated_Source\PSoC4/CapSense_Processing.c ****                     ((CapSense_RAM_WD_PROXIMITY_STRUCT *)ptrFlashWdgt->ptr2WdgtRam)->proxTouchTh =
1081:Generated_Source\PSoC4/CapSense_Processing.c ****                         (CapSense_THRESHOLD_TYPE)proximityThreshold;
1082:Generated_Source\PSoC4/CapSense_Processing.c ****                 }
1083:Generated_Source\PSoC4/CapSense_Processing.c ****             #endif /* (0 != CapSense_PROXIMITY_WIDGET_EN) */
1084:Generated_Source\PSoC4/CapSense_Processing.c **** 
1085:Generated_Source\PSoC4/CapSense_Processing.c ****             /* Move to next noise-envelope object */
1086:Generated_Source\PSoC4/CapSense_Processing.c ****             ptrNoiseEnvelope++;
1087:Generated_Source\PSoC4/CapSense_Processing.c ****         #endif /* (0u != (CapSense_CSD_AUTOTUNE & CapSense_CSD_SS_TH_EN)) */
1088:Generated_Source\PSoC4/CapSense_Processing.c **** 
1089:Generated_Source\PSoC4/CapSense_Processing.c ****         #if (CapSense_ENABLE == CapSense_TST_BSLN_DUPLICATION_EN)
1090:Generated_Source\PSoC4/CapSense_Processing.c ****             bslnTstResult = CapSense_FtUpdateBaseline(ptrRamWdgt, ptrSnsTmp, widgetType);
1091:Generated_Source\PSoC4/CapSense_Processing.c ****             if ((CYRET_SUCCESS != bslnTstResult) && (CYRET_SUCCESS == result))
1092:Generated_Source\PSoC4/CapSense_Processing.c ****             {
1093:Generated_Source\PSoC4/CapSense_Processing.c ****                 result = snsId | CapSense_PROCESS_BASELINE_FAILED;
1094:Generated_Source\PSoC4/CapSense_Processing.c ****             }
1095:Generated_Source\PSoC4/CapSense_Processing.c ****         #else /* (CapSense_ENABLE == CapSense_TST_BSLN_DUPLICATION_EN) */
1096:Generated_Source\PSoC4/CapSense_Processing.c ****             result = CapSense_FtUpdateBaseline(ptrRamWdgt, ptrSnsTmp, widgetType);
1097:Generated_Source\PSoC4/CapSense_Processing.c ****         #endif /* (CapSense_ENABLE == CapSense_TST_BSLN_DUPLICATION_EN) */
ARM GAS  C:\Users\Zhu\AppData\Local\Temp\ccMjsG6v.s 			page 23


1098:Generated_Source\PSoC4/CapSense_Processing.c **** 
1099:Generated_Source\PSoC4/CapSense_Processing.c ****         CapSense_DpUpdateDifferences(ptrRamWdgt, ptrSnsTmp);
1100:Generated_Source\PSoC4/CapSense_Processing.c **** 
1101:Generated_Source\PSoC4/CapSense_Processing.c ****         /* Move to next sensor object */
1102:Generated_Source\PSoC4/CapSense_Processing.c ****         ptrSnsTmp++;
1103:Generated_Source\PSoC4/CapSense_Processing.c **** 
1104:Generated_Source\PSoC4/CapSense_Processing.c ****         #if (CapSense_ENABLE == CapSense_RC_FILTER_EN)
1105:Generated_Source\PSoC4/CapSense_Processing.c ****             /* Move to the next filter history object */
1106:Generated_Source\PSoC4/CapSense_Processing.c ****             CapSense_INC_FLTR_OBJ_VARIANT(isProxWdgt, fltrHistV);
1107:Generated_Source\PSoC4/CapSense_Processing.c ****         #endif /* #if (CapSense_ENABLE == CapSense_RC_FILTER_EN) */
1108:Generated_Source\PSoC4/CapSense_Processing.c ****     }
1109:Generated_Source\PSoC4/CapSense_Processing.c ****     return result;
1110:Generated_Source\PSoC4/CapSense_Processing.c **** }
1111:Generated_Source\PSoC4/CapSense_Processing.c **** 
1112:Generated_Source\PSoC4/CapSense_Processing.c **** 
1113:Generated_Source\PSoC4/CapSense_Processing.c **** /*******************************************************************************
1114:Generated_Source\PSoC4/CapSense_Processing.c **** * Function Name: CapSense_DpProcessCsdSensorRawCountsExt
1115:Generated_Source\PSoC4/CapSense_Processing.c **** ****************************************************************************//**
1116:Generated_Source\PSoC4/CapSense_Processing.c **** *
1117:Generated_Source\PSoC4/CapSense_Processing.c **** * \brief
1118:Generated_Source\PSoC4/CapSense_Processing.c **** *   Performs customized processing of the CSD sensor raw counts.
1119:Generated_Source\PSoC4/CapSense_Processing.c **** *
1120:Generated_Source\PSoC4/CapSense_Processing.c **** * \details
1121:Generated_Source\PSoC4/CapSense_Processing.c **** *   Performs customized processing of the CSD sensor raw counts.
1122:Generated_Source\PSoC4/CapSense_Processing.c **** *
1123:Generated_Source\PSoC4/CapSense_Processing.c **** *   Note that this API updates data associated only with the sensor. It cannot be used to update
1124:Generated_Source\PSoC4/CapSense_Processing.c **** *   widget status.
1125:Generated_Source\PSoC4/CapSense_Processing.c **** *
1126:Generated_Source\PSoC4/CapSense_Processing.c **** * \param ptrFlashWdgt The pointer to the Flash widget structure.
1127:Generated_Source\PSoC4/CapSense_Processing.c **** * \param curSnsPtr    The pointer to the sensor object in RAM.
1128:Generated_Source\PSoC4/CapSense_Processing.c **** * \param fltrHistV    The pointer to the Filter History Object in RAM.
1129:Generated_Source\PSoC4/CapSense_Processing.c **** * \param mode         The bit-mask with the data processing tasks to be executed.
1130:Generated_Source\PSoC4/CapSense_Processing.c **** *   The mode parameters can take the following values:
1131:Generated_Source\PSoC4/CapSense_Processing.c **** *    - CapSense_PROCESS_FILTER     (0x01) Run Firmware Filter
1132:Generated_Source\PSoC4/CapSense_Processing.c **** *    - CapSense_PROCESS_BASELINE   (0x02) Update Baselines
1133:Generated_Source\PSoC4/CapSense_Processing.c **** *    - CapSense_PROCESS_DIFFCOUNTS (0x04) Update Difference Counts
1134:Generated_Source\PSoC4/CapSense_Processing.c **** *    - CapSense_PROCESS_CALC_NOISE (0x08) Calculate Noise (only if FW Tuning is enabled)
1135:Generated_Source\PSoC4/CapSense_Processing.c **** *    - CapSense_PROCESS_THRESHOLDS (0x10) Update Thresholds (only if FW Tuning is enabled)
1136:Generated_Source\PSoC4/CapSense_Processing.c **** *    - CapSense_PROCESS_ALL               Execute all tasks
1137:Generated_Source\PSoC4/CapSense_Processing.c **** *
1138:Generated_Source\PSoC4/CapSense_Processing.c **** * \return
1139:Generated_Source\PSoC4/CapSense_Processing.c **** *  Returns the status of the specified sensor processing operation:
1140:Generated_Source\PSoC4/CapSense_Processing.c **** *  - CYRET_SUCCESS if operation was successfully completed.
1141:Generated_Source\PSoC4/CapSense_Processing.c **** *  - CapSense_PROCESS_BASELINE_FAILED if baseline processing of any
1142:Generated_Source\PSoC4/CapSense_Processing.c **** *    sensor of the specified widget failed. The result is concatenated with the index
1143:Generated_Source\PSoC4/CapSense_Processing.c **** *    of failed sensor.
1144:Generated_Source\PSoC4/CapSense_Processing.c **** *
1145:Generated_Source\PSoC4/CapSense_Processing.c **** *******************************************************************************/
1146:Generated_Source\PSoC4/CapSense_Processing.c **** uint32 CapSense_DpProcessCsdSensorRawCountsExt(
1147:Generated_Source\PSoC4/CapSense_Processing.c ****                 CapSense_FLASH_WD_STRUCT const *ptrFlashWdgt,
1148:Generated_Source\PSoC4/CapSense_Processing.c ****                 CapSense_RAM_SNS_STRUCT *curSnsPtr,
1149:Generated_Source\PSoC4/CapSense_Processing.c ****                 CapSense_PTR_FILTER_VARIANT fltrHistV,
1150:Generated_Source\PSoC4/CapSense_Processing.c ****                  uint32 mode)
1151:Generated_Source\PSoC4/CapSense_Processing.c **** {
1152:Generated_Source\PSoC4/CapSense_Processing.c ****     uint32 result = CYRET_SUCCESS;
1153:Generated_Source\PSoC4/CapSense_Processing.c ****     uint32  widgetType;
1154:Generated_Source\PSoC4/CapSense_Processing.c ****     CapSense_RAM_WD_BASE_STRUCT *ptrRamWdgt;
ARM GAS  C:\Users\Zhu\AppData\Local\Temp\ccMjsG6v.s 			page 24


1155:Generated_Source\PSoC4/CapSense_Processing.c **** 
1156:Generated_Source\PSoC4/CapSense_Processing.c ****     #if (0u != (CapSense_CSD_AUTOTUNE & CapSense_CSD_SS_TH_EN))
1157:Generated_Source\PSoC4/CapSense_Processing.c ****         SMARTSENSE_CSD_NOISE_ENVELOPE_STRUCT *ptrNoiseEnvelope;
1158:Generated_Source\PSoC4/CapSense_Processing.c ****         #if (CapSense_ENABLE == CapSense_PROXIMITY_WIDGET_EN)
1159:Generated_Source\PSoC4/CapSense_Processing.c ****             uint32  proximityThreshold;
1160:Generated_Source\PSoC4/CapSense_Processing.c ****         #endif /* (0 != CapSense_PROXIMITY_WIDGET_EN) */
1161:Generated_Source\PSoC4/CapSense_Processing.c **** 
1162:Generated_Source\PSoC4/CapSense_Processing.c ****         /* Need to specify pointer to corresponding sensor's noise-envelope object.*/
1163:Generated_Source\PSoC4/CapSense_Processing.c ****         ptrNoiseEnvelope = ptrFlashWdgt->ptr2NoiseEnvlp;
1164:Generated_Source\PSoC4/CapSense_Processing.c ****     #endif /* (0u != (CapSense_CSD_AUTOTUNE & CapSense_CSD_SS_TH_EN)) */
1165:Generated_Source\PSoC4/CapSense_Processing.c **** 
1166:Generated_Source\PSoC4/CapSense_Processing.c ****     widgetType = ptrFlashWdgt->wdgtType;
1167:Generated_Source\PSoC4/CapSense_Processing.c ****     ptrRamWdgt = (CapSense_RAM_WD_BASE_STRUCT *)ptrFlashWdgt->ptr2WdgtRam;
1168:Generated_Source\PSoC4/CapSense_Processing.c **** 
1169:Generated_Source\PSoC4/CapSense_Processing.c ****     #if (CapSense_ENABLE == CapSense_RC_FILTER_EN)
1170:Generated_Source\PSoC4/CapSense_Processing.c ****         if (0u != (mode & CapSense_PROCESS_FILTER))
1171:Generated_Source\PSoC4/CapSense_Processing.c ****         {
1172:Generated_Source\PSoC4/CapSense_Processing.c ****             CapSense_FtRunEnabledFiltersInternal(fltrHistV, curSnsPtr, widgetType);
1173:Generated_Source\PSoC4/CapSense_Processing.c ****             #if (CapSense_ALP_FILTER_EN)
1174:Generated_Source\PSoC4/CapSense_Processing.c ****                 CapSense_ConfigRunALPInternal(fltrHistV, ptrRamWdgt, curSnsPtr, widgetType);
1175:Generated_Source\PSoC4/CapSense_Processing.c ****             #endif
1176:Generated_Source\PSoC4/CapSense_Processing.c ****         }
1177:Generated_Source\PSoC4/CapSense_Processing.c ****     #else
1178:Generated_Source\PSoC4/CapSense_Processing.c ****         (void)fltrHistV; /* This parameter is unused in such configurations */
1179:Generated_Source\PSoC4/CapSense_Processing.c ****     #endif /* #if (CapSense_ENABLE == CapSense_RC_FILTER_EN) */
1180:Generated_Source\PSoC4/CapSense_Processing.c **** 
1181:Generated_Source\PSoC4/CapSense_Processing.c ****     #if (0u != (CapSense_CSD_AUTOTUNE & CapSense_CSD_SS_TH_EN))
1182:Generated_Source\PSoC4/CapSense_Processing.c ****         if (0u != (mode & CapSense_PROCESS_CALC_NOISE))
1183:Generated_Source\PSoC4/CapSense_Processing.c ****         {
1184:Generated_Source\PSoC4/CapSense_Processing.c ****             SmartSense_RunNoiseEnvelope(curSnsPtr->raw[0u], ptrRamWdgt->sigPFC, ptrNoiseEnvelope);
1185:Generated_Source\PSoC4/CapSense_Processing.c ****         }
1186:Generated_Source\PSoC4/CapSense_Processing.c **** 
1187:Generated_Source\PSoC4/CapSense_Processing.c ****         if (0u != (mode & CapSense_PROCESS_THRESHOLDS))
1188:Generated_Source\PSoC4/CapSense_Processing.c ****         {
1189:Generated_Source\PSoC4/CapSense_Processing.c ****             CapSense_DpUpdateThresholds(ptrRamWdgt, ptrNoiseEnvelope, 0u);
1190:Generated_Source\PSoC4/CapSense_Processing.c **** 
1191:Generated_Source\PSoC4/CapSense_Processing.c ****             /* Calculate Proximity Touch Threshold in SmartSense mode based on Finger Threshold and
1192:Generated_Source\PSoC4/CapSense_Processing.c ****             #if (CapSense_ENABLE == CapSense_PROXIMITY_WIDGET_EN)
1193:Generated_Source\PSoC4/CapSense_Processing.c ****                 if (CapSense_WD_PROXIMITY_E == CapSense_GET_WIDGET_TYPE(ptrFlashWdgt))
1194:Generated_Source\PSoC4/CapSense_Processing.c ****                 {
1195:Generated_Source\PSoC4/CapSense_Processing.c ****                     proximityThreshold = ((uint32)ptrRamWdgt->fingerTh * CapSense_PROX_TOUCH_COEFF)
1196:Generated_Source\PSoC4/CapSense_Processing.c ****                     if ((((1Lu) << CapSense_THRESHOLD_SIZE) - 1u) < proximityThreshold)
1197:Generated_Source\PSoC4/CapSense_Processing.c ****                     {
1198:Generated_Source\PSoC4/CapSense_Processing.c ****                         proximityThreshold = ((1Lu) << CapSense_THRESHOLD_SIZE) - 1u;
1199:Generated_Source\PSoC4/CapSense_Processing.c ****                     }
1200:Generated_Source\PSoC4/CapSense_Processing.c ****                     ((CapSense_RAM_WD_PROXIMITY_STRUCT *)ptrFlashWdgt->ptr2WdgtRam)->proxTouchTh =
1201:Generated_Source\PSoC4/CapSense_Processing.c ****                         (CapSense_THRESHOLD_TYPE)proximityThreshold;
1202:Generated_Source\PSoC4/CapSense_Processing.c ****                 }
1203:Generated_Source\PSoC4/CapSense_Processing.c ****             #endif /* (0 != CapSense_PROXIMITY_WIDGET_EN) */
1204:Generated_Source\PSoC4/CapSense_Processing.c ****         }
1205:Generated_Source\PSoC4/CapSense_Processing.c ****     #endif /* #if (0u != (CapSense_CSD_AUTOTUNE & CapSense_CSD_SS_TH_EN)) */
1206:Generated_Source\PSoC4/CapSense_Processing.c **** 
1207:Generated_Source\PSoC4/CapSense_Processing.c ****     if (0u != (mode & CapSense_PROCESS_BASELINE))
1208:Generated_Source\PSoC4/CapSense_Processing.c ****     {
1209:Generated_Source\PSoC4/CapSense_Processing.c ****         result = CapSense_FtUpdateBaseline(ptrRamWdgt, curSnsPtr, widgetType);
1210:Generated_Source\PSoC4/CapSense_Processing.c ****     }
1211:Generated_Source\PSoC4/CapSense_Processing.c **** 
ARM GAS  C:\Users\Zhu\AppData\Local\Temp\ccMjsG6v.s 			page 25


1212:Generated_Source\PSoC4/CapSense_Processing.c ****     if (0u != (mode & CapSense_PROCESS_DIFFCOUNTS))
1213:Generated_Source\PSoC4/CapSense_Processing.c ****     {
1214:Generated_Source\PSoC4/CapSense_Processing.c ****         CapSense_DpUpdateDifferences(ptrRamWdgt, curSnsPtr);
1215:Generated_Source\PSoC4/CapSense_Processing.c ****     }
1216:Generated_Source\PSoC4/CapSense_Processing.c ****     return result;
1217:Generated_Source\PSoC4/CapSense_Processing.c **** }
1218:Generated_Source\PSoC4/CapSense_Processing.c **** 
1219:Generated_Source\PSoC4/CapSense_Processing.c **** /*******************************************************************************
1220:Generated_Source\PSoC4/CapSense_Processing.c **** * Function Name: CapSense_DpProcessCsdWidgetStatus
1221:Generated_Source\PSoC4/CapSense_Processing.c **** ****************************************************************************//**
1222:Generated_Source\PSoC4/CapSense_Processing.c **** *
1223:Generated_Source\PSoC4/CapSense_Processing.c **** * \brief
1224:Generated_Source\PSoC4/CapSense_Processing.c **** *  Runs the status processing of the CSD widget and updates it in the Data Structure.
1225:Generated_Source\PSoC4/CapSense_Processing.c **** *
1226:Generated_Source\PSoC4/CapSense_Processing.c **** * \details
1227:Generated_Source\PSoC4/CapSense_Processing.c **** *  This API determines the widget type and calls the appropriate low-level processing
1228:Generated_Source\PSoC4/CapSense_Processing.c **** *  function. Based on the returned results it updates the widget and sensor
1229:Generated_Source\PSoC4/CapSense_Processing.c **** *  status in the data structure. Any widget specific registers like the centroid
1230:Generated_Source\PSoC4/CapSense_Processing.c **** *  position are updated directly in the low-level processing function.
1231:Generated_Source\PSoC4/CapSense_Processing.c **** *
1232:Generated_Source\PSoC4/CapSense_Processing.c **** *  When the widget-specific processing completes this API updates the snsStatus
1233:Generated_Source\PSoC4/CapSense_Processing.c **** *  and wdgtStatus registers in the data structure. The wdgtStatus register
1234:Generated_Source\PSoC4/CapSense_Processing.c **** *  is a bitmask were each bit corresponds to the specific widget identified by
1235:Generated_Source\PSoC4/CapSense_Processing.c **** *  the widget index. When the bit is set the widget is active (touched);
1236:Generated_Source\PSoC4/CapSense_Processing.c **** *
1237:Generated_Source\PSoC4/CapSense_Processing.c **** *  The snsStatus register for CSD widgets contains status of each widget sensor
1238:Generated_Source\PSoC4/CapSense_Processing.c **** *  (active/non-active). Each bit corresponds to one sensor. In case of the
1239:Generated_Source\PSoC4/CapSense_Processing.c **** *  Proximity widget two bits are used per sensor: one for proximity status and
1240:Generated_Source\PSoC4/CapSense_Processing.c **** *  second for the touch status.
1241:Generated_Source\PSoC4/CapSense_Processing.c **** *
1242:Generated_Source\PSoC4/CapSense_Processing.c **** * \param widgetId      The widget index number.
1243:Generated_Source\PSoC4/CapSense_Processing.c **** * \param ptrFlashWdgt  The pointer to the Flash widget structure.
1244:Generated_Source\PSoC4/CapSense_Processing.c **** *
1245:Generated_Source\PSoC4/CapSense_Processing.c **** *******************************************************************************/
1246:Generated_Source\PSoC4/CapSense_Processing.c **** void CapSense_DpProcessCsdWidgetStatus(uint32 widgetId, CapSense_FLASH_WD_STRUCT const *ptrFlashWdg
1247:Generated_Source\PSoC4/CapSense_Processing.c **** {
1248:Generated_Source\PSoC4/CapSense_Processing.c ****     uint32 sensorStatus;
1249:Generated_Source\PSoC4/CapSense_Processing.c ****     uint32 wdStatusIndex;
1250:Generated_Source\PSoC4/CapSense_Processing.c ****     uint32 wdStatusMask;
1251:Generated_Source\PSoC4/CapSense_Processing.c ****     CapSense_WD_TYPE_ENUM widgetType;
1252:Generated_Source\PSoC4/CapSense_Processing.c **** 
1253:Generated_Source\PSoC4/CapSense_Processing.c ****     widgetType = (CapSense_WD_TYPE_ENUM)ptrFlashWdgt->wdgtType;
1254:Generated_Source\PSoC4/CapSense_Processing.c ****     sensorStatus = CapSense_dsRam.snsStatus[widgetId];
1255:Generated_Source\PSoC4/CapSense_Processing.c **** 
1256:Generated_Source\PSoC4/CapSense_Processing.c ****     switch (widgetType)
1257:Generated_Source\PSoC4/CapSense_Processing.c ****     {
1258:Generated_Source\PSoC4/CapSense_Processing.c ****     #if (0u != CapSense_BUTTON_WIDGET_EN)
1259:Generated_Source\PSoC4/CapSense_Processing.c ****         case CapSense_WD_BUTTON_E:
1260:Generated_Source\PSoC4/CapSense_Processing.c ****             sensorStatus = CapSense_DpProcessButton(sensorStatus, ptrFlashWdgt);
1261:Generated_Source\PSoC4/CapSense_Processing.c ****             break;
1262:Generated_Source\PSoC4/CapSense_Processing.c ****     #endif /* #if (0u != CapSense_BUTTON_WIDGET_EN) */
1263:Generated_Source\PSoC4/CapSense_Processing.c **** 
1264:Generated_Source\PSoC4/CapSense_Processing.c ****     #if (0u != CapSense_SLIDER_WIDGET_EN)
1265:Generated_Source\PSoC4/CapSense_Processing.c ****         case CapSense_WD_LINEAR_SLIDER_E:
1266:Generated_Source\PSoC4/CapSense_Processing.c ****         case CapSense_WD_RADIAL_SLIDER_E:
1267:Generated_Source\PSoC4/CapSense_Processing.c ****             sensorStatus = CapSense_DpProcessSlider(sensorStatus, ptrFlashWdgt);
1268:Generated_Source\PSoC4/CapSense_Processing.c ****             break;
ARM GAS  C:\Users\Zhu\AppData\Local\Temp\ccMjsG6v.s 			page 26


1269:Generated_Source\PSoC4/CapSense_Processing.c ****     #endif /* #if (0u != CapSense_SLIDER_WIDGET_EN) */
1270:Generated_Source\PSoC4/CapSense_Processing.c **** 
1271:Generated_Source\PSoC4/CapSense_Processing.c ****     #if (0u != CapSense_CSD_MATRIX_WIDGET_EN)
1272:Generated_Source\PSoC4/CapSense_Processing.c ****         case CapSense_WD_MATRIX_BUTTON_E:
1273:Generated_Source\PSoC4/CapSense_Processing.c ****             sensorStatus = CapSense_DpProcessCsdMatrix(sensorStatus, ptrFlashWdgt);
1274:Generated_Source\PSoC4/CapSense_Processing.c ****             break;
1275:Generated_Source\PSoC4/CapSense_Processing.c ****     #endif /* #if (0u != CapSense_CSD_MATRIX_WIDGET_EN) */
1276:Generated_Source\PSoC4/CapSense_Processing.c **** 
1277:Generated_Source\PSoC4/CapSense_Processing.c ****     #if (0u != CapSense_CSD_TOUCHPAD_WIDGET_EN)
1278:Generated_Source\PSoC4/CapSense_Processing.c ****         case CapSense_WD_TOUCHPAD_E:
1279:Generated_Source\PSoC4/CapSense_Processing.c ****             sensorStatus = CapSense_DpProcessCsdTouchpad(sensorStatus, ptrFlashWdgt);
1280:Generated_Source\PSoC4/CapSense_Processing.c ****             #if (0u != CapSense_BALLISTIC_MULTIPLIER_EN)
1281:Generated_Source\PSoC4/CapSense_Processing.c ****                 CapSense_RunBallisticMultiplier(widgetId);
1282:Generated_Source\PSoC4/CapSense_Processing.c ****             #endif /* (0u != CapSense_BALLISTIC_MULTIPLIER_EN) */
1283:Generated_Source\PSoC4/CapSense_Processing.c ****             break;
1284:Generated_Source\PSoC4/CapSense_Processing.c ****     #endif /* #if (0u != CapSense_CSD_TOUCHPAD_WIDGET_EN) */
1285:Generated_Source\PSoC4/CapSense_Processing.c **** 
1286:Generated_Source\PSoC4/CapSense_Processing.c ****     #if (0u != CapSense_PROXIMITY_WIDGET_EN)
1287:Generated_Source\PSoC4/CapSense_Processing.c ****         case CapSense_WD_PROXIMITY_E:
1288:Generated_Source\PSoC4/CapSense_Processing.c ****             sensorStatus = CapSense_DpProcessProximity(sensorStatus, ptrFlashWdgt);
1289:Generated_Source\PSoC4/CapSense_Processing.c ****             break;
1290:Generated_Source\PSoC4/CapSense_Processing.c ****     #endif /* #if (0u != CapSense_PROXIMITY_WIDGET_EN) */
1291:Generated_Source\PSoC4/CapSense_Processing.c **** 
1292:Generated_Source\PSoC4/CapSense_Processing.c ****     default:
1293:Generated_Source\PSoC4/CapSense_Processing.c ****         CYASSERT(0u);
1294:Generated_Source\PSoC4/CapSense_Processing.c ****         break;
1295:Generated_Source\PSoC4/CapSense_Processing.c ****     }
1296:Generated_Source\PSoC4/CapSense_Processing.c **** 
1297:Generated_Source\PSoC4/CapSense_Processing.c ****     CapSense_dsRam.snsStatus[widgetId] = (CapSense_SNS_STS_TYPE)sensorStatus;
1298:Generated_Source\PSoC4/CapSense_Processing.c **** 
1299:Generated_Source\PSoC4/CapSense_Processing.c ****     /* The next two lines calculate index and bitmask of the widget status bit in the wdgtStatus ar
1300:Generated_Source\PSoC4/CapSense_Processing.c ****     wdStatusIndex = CapSense_GET_WDGT_STATUS_INDEX(widgetId);
1301:Generated_Source\PSoC4/CapSense_Processing.c ****     wdStatusMask = CapSense_GET_WDGT_STATUS_MASK(widgetId);
1302:Generated_Source\PSoC4/CapSense_Processing.c **** 
1303:Generated_Source\PSoC4/CapSense_Processing.c ****     /* Check if there are active sensors and update widget status accordingly */
1304:Generated_Source\PSoC4/CapSense_Processing.c ****     if (0u == sensorStatus)
1305:Generated_Source\PSoC4/CapSense_Processing.c ****     {
1306:Generated_Source\PSoC4/CapSense_Processing.c ****         CapSense_dsRam.wdgtStatus[wdStatusIndex] &= ~wdStatusMask;
1307:Generated_Source\PSoC4/CapSense_Processing.c ****     }
1308:Generated_Source\PSoC4/CapSense_Processing.c ****     else
1309:Generated_Source\PSoC4/CapSense_Processing.c ****     {
1310:Generated_Source\PSoC4/CapSense_Processing.c ****         CapSense_dsRam.wdgtStatus[wdStatusIndex] |= wdStatusMask;
1311:Generated_Source\PSoC4/CapSense_Processing.c ****     }
1312:Generated_Source\PSoC4/CapSense_Processing.c **** }
1313:Generated_Source\PSoC4/CapSense_Processing.c **** #endif /* #if (0u != CapSense_TOTAL_CSD_WIDGETS) */
1314:Generated_Source\PSoC4/CapSense_Processing.c **** 
1315:Generated_Source\PSoC4/CapSense_Processing.c **** 
1316:Generated_Source\PSoC4/CapSense_Processing.c **** #if (0 != (CapSense_CSD_AUTOTUNE & CapSense_CSD_SS_TH_EN))
1317:Generated_Source\PSoC4/CapSense_Processing.c **** /*******************************************************************************
1318:Generated_Source\PSoC4/CapSense_Processing.c **** * Function Name: CapSense_DpUpdateThresholds
1319:Generated_Source\PSoC4/CapSense_Processing.c **** ****************************************************************************//**
1320:Generated_Source\PSoC4/CapSense_Processing.c **** *
1321:Generated_Source\PSoC4/CapSense_Processing.c **** * \brief
1322:Generated_Source\PSoC4/CapSense_Processing.c **** *   Updates noise and finger thresholds for a specified widget.
1323:Generated_Source\PSoC4/CapSense_Processing.c **** *
1324:Generated_Source\PSoC4/CapSense_Processing.c **** * \details
1325:Generated_Source\PSoC4/CapSense_Processing.c **** *   Updates noise and finger thresholds for a specified widget.
ARM GAS  C:\Users\Zhu\AppData\Local\Temp\ccMjsG6v.s 			page 27


1326:Generated_Source\PSoC4/CapSense_Processing.c **** *   This algorithm is a part of Auto-tuning feature.
1327:Generated_Source\PSoC4/CapSense_Processing.c **** *
1328:Generated_Source\PSoC4/CapSense_Processing.c **** * \param ptrRamWdgt       The pointer to the RAM widget object.
1329:Generated_Source\PSoC4/CapSense_Processing.c **** * \param ptrNoiseEnvelope The pointer to the noise-envelope object in RAM.
1330:Generated_Source\PSoC4/CapSense_Processing.c **** * \param startFlag        The flag indicates when new widget is processed.
1331:Generated_Source\PSoC4/CapSense_Processing.c **** *
1332:Generated_Source\PSoC4/CapSense_Processing.c **** *******************************************************************************/
1333:Generated_Source\PSoC4/CapSense_Processing.c **** void CapSense_DpUpdateThresholds(CapSense_RAM_WD_BASE_STRUCT *ptrRamWdgt,
1334:Generated_Source\PSoC4/CapSense_Processing.c ****                                          SMARTSENSE_CSD_NOISE_ENVELOPE_STRUCT *ptrNoiseEnvelope,
1335:Generated_Source\PSoC4/CapSense_Processing.c ****                                          uint32 startFlag)
1336:Generated_Source\PSoC4/CapSense_Processing.c **** {
1337:Generated_Source\PSoC4/CapSense_Processing.c ****     SMARTSENSE_UPDATE_THRESHOLDS_STRUCT thresholds;
1338:Generated_Source\PSoC4/CapSense_Processing.c ****     SMARTSENSE_UPDATE_THRESHOLDS_STRUCT *ptrThresholds = &thresholds;
1339:Generated_Source\PSoC4/CapSense_Processing.c ****     ptrThresholds->fingerTh = ptrRamWdgt->fingerTh;
1340:Generated_Source\PSoC4/CapSense_Processing.c **** 
1341:Generated_Source\PSoC4/CapSense_Processing.c ****     SmartSense_UpdateThresholds(ptrNoiseEnvelope, ptrThresholds, ptrRamWdgt->sigPFC, startFlag);
1342:Generated_Source\PSoC4/CapSense_Processing.c **** 
1343:Generated_Source\PSoC4/CapSense_Processing.c ****     ptrRamWdgt->fingerTh = ptrThresholds->fingerTh;
1344:Generated_Source\PSoC4/CapSense_Processing.c ****     ptrRamWdgt->noiseTh = ptrThresholds->noiseTh;
1345:Generated_Source\PSoC4/CapSense_Processing.c ****     ptrRamWdgt->nNoiseTh = ptrThresholds->nNoiseTh;
1346:Generated_Source\PSoC4/CapSense_Processing.c ****     ptrRamWdgt->hysteresis = ptrThresholds->hysteresis;
1347:Generated_Source\PSoC4/CapSense_Processing.c **** }
1348:Generated_Source\PSoC4/CapSense_Processing.c **** #endif /* #if (0u != (CapSense_CSD_AUTOTUNE & CapSense_CSD_SS_TH_EN)) */
1349:Generated_Source\PSoC4/CapSense_Processing.c **** 
1350:Generated_Source\PSoC4/CapSense_Processing.c **** 
1351:Generated_Source\PSoC4/CapSense_Processing.c **** /*******************************************************************************
1352:Generated_Source\PSoC4/CapSense_Processing.c **** * Function Name: CapSense_DpUpdateDifferences
1353:Generated_Source\PSoC4/CapSense_Processing.c **** ****************************************************************************//**
1354:Generated_Source\PSoC4/CapSense_Processing.c **** *
1355:Generated_Source\PSoC4/CapSense_Processing.c **** * \brief
1356:Generated_Source\PSoC4/CapSense_Processing.c **** *   Calculates new difference values.
1357:Generated_Source\PSoC4/CapSense_Processing.c **** *   Also, executes the multi-frequency scan algorithm if it is enabled.
1358:Generated_Source\PSoC4/CapSense_Processing.c **** *
1359:Generated_Source\PSoC4/CapSense_Processing.c **** * \details
1360:Generated_Source\PSoC4/CapSense_Processing.c **** *   This API calculates the difference between the baseline and raw counts.
1361:Generated_Source\PSoC4/CapSense_Processing.c **** *   If the difference is positive (raw > baseline), and higher than the widget
1362:Generated_Source\PSoC4/CapSense_Processing.c **** *   noise threshold, it is saved into the data structure for further processing.
1363:Generated_Source\PSoC4/CapSense_Processing.c **** *   Otherwise the difference is set to zero. The final difference value is saved
1364:Generated_Source\PSoC4/CapSense_Processing.c **** *   with the subtracted noise threshold value.
1365:Generated_Source\PSoC4/CapSense_Processing.c **** *
1366:Generated_Source\PSoC4/CapSense_Processing.c **** *   If the multi-frequency scan algorithm is enabled, the difference is calculated
1367:Generated_Source\PSoC4/CapSense_Processing.c **** *   for the three sets of data available for each sensor. Then
1368:Generated_Source\PSoC4/CapSense_Processing.c **** *   the median filter selects the final difference value.
1369:Generated_Source\PSoC4/CapSense_Processing.c **** *
1370:Generated_Source\PSoC4/CapSense_Processing.c **** * \param ptrRamWdgt The pointer to the RAR Widget Object.
1371:Generated_Source\PSoC4/CapSense_Processing.c **** * \param curSnsPtr  The pointer to the sensor object in RAM.
1372:Generated_Source\PSoC4/CapSense_Processing.c **** *
1373:Generated_Source\PSoC4/CapSense_Processing.c **** *******************************************************************************/
1374:Generated_Source\PSoC4/CapSense_Processing.c **** void CapSense_DpUpdateDifferences(
1375:Generated_Source\PSoC4/CapSense_Processing.c ****                         CapSense_RAM_WD_BASE_STRUCT *ptrRamWdgt,
1376:Generated_Source\PSoC4/CapSense_Processing.c ****                         CapSense_RAM_SNS_STRUCT *curSnsPtr)
1377:Generated_Source\PSoC4/CapSense_Processing.c **** {
 152              		.loc 1 1377 0
 153              		.cfi_startproc
 154              		@ args = 0, pretend = 0, frame = 0
 155              		@ frame_needed = 0, uses_anonymous_args = 0
 156              	.LVL17:
ARM GAS  C:\Users\Zhu\AppData\Local\Temp\ccMjsG6v.s 			page 28


 157 0000 30B5     		push	{r4, r5, lr}
 158              		.cfi_def_cfa_offset 12
 159              		.cfi_offset 4, -12
 160              		.cfi_offset 5, -8
 161              		.cfi_offset 14, -4
 162              	.LVL18:
1378:Generated_Source\PSoC4/CapSense_Processing.c ****     register int32 diffValue = 0;
1379:Generated_Source\PSoC4/CapSense_Processing.c **** 
1380:Generated_Source\PSoC4/CapSense_Processing.c ****     #if (0u != CapSense_MULTI_FREQ_SCAN_EN)
1381:Generated_Source\PSoC4/CapSense_Processing.c ****         register int32 diffValue_0 = 0;
1382:Generated_Source\PSoC4/CapSense_Processing.c ****         register int32 diffValue_2 = 0;
1383:Generated_Source\PSoC4/CapSense_Processing.c ****     #endif /* #if (0u != CapSense_MULTI_FREQ_SCAN_EN) */
1384:Generated_Source\PSoC4/CapSense_Processing.c **** 
1385:Generated_Source\PSoC4/CapSense_Processing.c ****     /* Calculate difference */
1386:Generated_Source\PSoC4/CapSense_Processing.c ****     diffValue = (int32)curSnsPtr->raw[0u] - (int32)curSnsPtr->bsln[0u];
 163              		.loc 1 1386 0
 164 0002 0B88     		ldrh	r3, [r1]
 165 0004 4A88     		ldrh	r2, [r1, #2]
 166 0006 9C1A     		subs	r4, r3, r2
 167              	.LVL19:
1387:Generated_Source\PSoC4/CapSense_Processing.c **** 
1388:Generated_Source\PSoC4/CapSense_Processing.c ****     #if (0u != CapSense_MULTI_FREQ_SCAN_EN)
1389:Generated_Source\PSoC4/CapSense_Processing.c ****         diffValue_0 = (int32)curSnsPtr->raw[1u] - (int32)curSnsPtr->bsln[1u];
1390:Generated_Source\PSoC4/CapSense_Processing.c ****         diffValue_2 = (int32)curSnsPtr->raw[2u] - (int32)curSnsPtr->bsln[2u];
1391:Generated_Source\PSoC4/CapSense_Processing.c **** 
1392:Generated_Source\PSoC4/CapSense_Processing.c ****         /* Find median and put it into [0u] element */
1393:Generated_Source\PSoC4/CapSense_Processing.c ****         if (diffValue_0 > diffValue)
1394:Generated_Source\PSoC4/CapSense_Processing.c ****         {
1395:Generated_Source\PSoC4/CapSense_Processing.c ****             register int32 swapv = diffValue_0;
1396:Generated_Source\PSoC4/CapSense_Processing.c ****             diffValue_0 = diffValue;
1397:Generated_Source\PSoC4/CapSense_Processing.c ****             diffValue = swapv;
1398:Generated_Source\PSoC4/CapSense_Processing.c ****         }
1399:Generated_Source\PSoC4/CapSense_Processing.c **** 
1400:Generated_Source\PSoC4/CapSense_Processing.c ****         if (diffValue > diffValue_2)
1401:Generated_Source\PSoC4/CapSense_Processing.c ****         {
1402:Generated_Source\PSoC4/CapSense_Processing.c ****             register int32 swapv = diffValue;
1403:Generated_Source\PSoC4/CapSense_Processing.c ****             diffValue = diffValue_2;
1404:Generated_Source\PSoC4/CapSense_Processing.c ****             diffValue_2 = swapv;
1405:Generated_Source\PSoC4/CapSense_Processing.c ****         }
1406:Generated_Source\PSoC4/CapSense_Processing.c **** 
1407:Generated_Source\PSoC4/CapSense_Processing.c ****         if (diffValue_0 > diffValue)
1408:Generated_Source\PSoC4/CapSense_Processing.c ****         {
1409:Generated_Source\PSoC4/CapSense_Processing.c ****             register int32 swapv = diffValue_0;
1410:Generated_Source\PSoC4/CapSense_Processing.c ****             diffValue_0 = diffValue;
1411:Generated_Source\PSoC4/CapSense_Processing.c ****             diffValue = swapv;
1412:Generated_Source\PSoC4/CapSense_Processing.c ****         }
1413:Generated_Source\PSoC4/CapSense_Processing.c ****     #endif /* #if (0u != CapSense_MULTI_FREQ_SCAN_EN) */
1414:Generated_Source\PSoC4/CapSense_Processing.c **** 
1415:Generated_Source\PSoC4/CapSense_Processing.c ****     curSnsPtr->diff = 0u;
 168              		.loc 1 1415 0
 169 0008 0025     		movs	r5, #0
 170 000a 0D81     		strh	r5, [r1, #8]
1416:Generated_Source\PSoC4/CapSense_Processing.c **** 
1417:Generated_Source\PSoC4/CapSense_Processing.c ****     if (diffValue > (int32)ptrRamWdgt->noiseTh)
 171              		.loc 1 1417 0
 172 000c 8079     		ldrb	r0, [r0, #6]
 173              	.LVL20:
ARM GAS  C:\Users\Zhu\AppData\Local\Temp\ccMjsG6v.s 			page 29


 174 000e 8442     		cmp	r4, r0
 175 0010 00DD     		ble	.L11
1418:Generated_Source\PSoC4/CapSense_Processing.c ****     {
1419:Generated_Source\PSoC4/CapSense_Processing.c ****         curSnsPtr->diff = (CapSense_THRESHOLD_TYPE) diffValue;
 176              		.loc 1 1419 0
 177 0012 0C81     		strh	r4, [r1, #8]
 178              	.L11:
1420:Generated_Source\PSoC4/CapSense_Processing.c ****     }
1421:Generated_Source\PSoC4/CapSense_Processing.c **** }
 179              		.loc 1 1421 0
 180              		@ sp needed
 181              	.LVL21:
 182 0014 30BD     		pop	{r4, r5, pc}
 183              		.cfi_endproc
 184              	.LFE6:
 185              		.size	CapSense_DpUpdateDifferences, .-CapSense_DpUpdateDifferences
 186 0016 C046     		.section	.text.CapSense_DpProcessCsdWidgetRawCounts,"ax",%progbits
 187              		.align	2
 188              		.global	CapSense_DpProcessCsdWidgetRawCounts
 189              		.code	16
 190              		.thumb_func
 191              		.type	CapSense_DpProcessCsdWidgetRawCounts, %function
 192              	CapSense_DpProcessCsdWidgetRawCounts:
 193              	.LFB3:
1017:Generated_Source\PSoC4/CapSense_Processing.c ****     uint32  result = CYRET_SUCCESS;
 194              		.loc 1 1017 0
 195              		.cfi_startproc
 196              		@ args = 0, pretend = 0, frame = 8
 197              		@ frame_needed = 0, uses_anonymous_args = 0
 198              	.LVL22:
 199 0000 F0B5     		push	{r4, r5, r6, r7, lr}
 200              		.cfi_def_cfa_offset 20
 201              		.cfi_offset 4, -20
 202              		.cfi_offset 5, -16
 203              		.cfi_offset 6, -12
 204              		.cfi_offset 7, -8
 205              		.cfi_offset 14, -4
 206 0002 5F46     		mov	r7, fp
 207 0004 4646     		mov	r6, r8
 208 0006 C0B4     		push	{r6, r7}
 209              		.cfi_def_cfa_offset 28
 210              		.cfi_offset 8, -28
 211              		.cfi_offset 11, -24
 212 0008 83B0     		sub	sp, sp, #12
 213              		.cfi_def_cfa_offset 40
 214 000a 0700     		movs	r7, r0
 215              	.LVL23:
1041:Generated_Source\PSoC4/CapSense_Processing.c **** 
 216              		.loc 1 1041 0
 217 000c 837E     		ldrb	r3, [r0, #26]
 218 000e 062B     		cmp	r3, #6
 219 0010 02D1     		bne	.L20
 220 0012 0122     		movs	r2, #1
 221 0014 9346     		mov	fp, r2
 222 0016 01E0     		b	.L14
 223              	.L20:
 224 0018 0022     		movs	r2, #0
ARM GAS  C:\Users\Zhu\AppData\Local\Temp\ccMjsG6v.s 			page 30


 225 001a 9346     		mov	fp, r2
 226              	.L14:
 227              	.LVL24:
1044:Generated_Source\PSoC4/CapSense_Processing.c ****     #endif /* #if (CapSense_ENABLE == CapSense_RC_FILTER_EN) */
 228              		.loc 1 1044 0 discriminator 4
 229 001c FE68     		ldr	r6, [r7, #12]
 230              	.LVL25:
1047:Generated_Source\PSoC4/CapSense_Processing.c ****     ptrRamWdgt = (CapSense_RAM_WD_BASE_STRUCT *)ptrFlashWdgt->ptr2WdgtRam;
 231              		.loc 1 1047 0 discriminator 4
 232 001e BC68     		ldr	r4, [r7, #8]
 233              	.LVL26:
1048:Generated_Source\PSoC4/CapSense_Processing.c ****     widgetType = ptrFlashWdgt->wdgtType;
 234              		.loc 1 1048 0 discriminator 4
 235 0020 7A68     		ldr	r2, [r7, #4]
 236 0022 0092     		str	r2, [sp]
 237              	.LVL27:
1049:Generated_Source\PSoC4/CapSense_Processing.c **** 
 238              		.loc 1 1049 0 discriminator 4
 239 0024 0193     		str	r3, [sp, #4]
 240              	.LVL28:
1056:Generated_Source\PSoC4/CapSense_Processing.c ****     {
 241              		.loc 1 1056 0 discriminator 4
 242 0026 0025     		movs	r5, #0
1018:Generated_Source\PSoC4/CapSense_Processing.c **** 
 243              		.loc 1 1018 0 discriminator 4
 244 0028 0023     		movs	r3, #0
 245 002a 9846     		mov	r8, r3
1056:Generated_Source\PSoC4/CapSense_Processing.c ****     {
 246              		.loc 1 1056 0 discriminator 4
 247 002c 1EE0     		b	.L15
 248              	.LVL29:
 249              	.L19:
1060:Generated_Source\PSoC4/CapSense_Processing.c ****             #if (CapSense_ALP_FILTER_EN)
 250              		.loc 1 1060 0
 251 002e 019A     		ldr	r2, [sp, #4]
 252 0030 2100     		movs	r1, r4
 253              	.LVL30:
 254 0032 3000     		movs	r0, r6
 255 0034 FFF7FEFF 		bl	CapSense_FtRunEnabledFiltersInternal
 256              	.LVL31:
1090:Generated_Source\PSoC4/CapSense_Processing.c ****             if ((CYRET_SUCCESS != bslnTstResult) && (CYRET_SUCCESS == result))
 257              		.loc 1 1090 0
 258 0038 019A     		ldr	r2, [sp, #4]
 259 003a 2100     		movs	r1, r4
 260 003c 0098     		ldr	r0, [sp]
 261 003e FFF7FEFF 		bl	CapSense_FtUpdateBaseline
 262              	.LVL32:
1091:Generated_Source\PSoC4/CapSense_Processing.c ****             {
 263              		.loc 1 1091 0
 264 0042 0028     		cmp	r0, #0
 265 0044 06D0     		beq	.L16
1091:Generated_Source\PSoC4/CapSense_Processing.c ****             {
 266              		.loc 1 1091 0 is_stmt 0 discriminator 1
 267 0046 4346     		mov	r3, r8
 268 0048 002B     		cmp	r3, #0
 269 004a 03D1     		bne	.L16
 270              	.LVL33:
ARM GAS  C:\Users\Zhu\AppData\Local\Temp\ccMjsG6v.s 			page 31


1093:Generated_Source\PSoC4/CapSense_Processing.c ****             }
 271              		.loc 1 1093 0 is_stmt 1
 272 004c 8023     		movs	r3, #128
 273              	.LVL34:
 274 004e 1B06     		lsls	r3, r3, #24
 275 0050 2B43     		orrs	r3, r5
 276 0052 9846     		mov	r8, r3
 277              	.LVL35:
 278              	.L16:
1099:Generated_Source\PSoC4/CapSense_Processing.c **** 
 279              		.loc 1 1099 0
 280 0054 2100     		movs	r1, r4
 281 0056 0098     		ldr	r0, [sp]
 282              	.LVL36:
 283 0058 FFF7FEFF 		bl	CapSense_DpUpdateDifferences
 284              	.LVL37:
1102:Generated_Source\PSoC4/CapSense_Processing.c **** 
 285              		.loc 1 1102 0
 286 005c 0C34     		adds	r4, r4, #12
 287              	.LVL38:
1106:Generated_Source\PSoC4/CapSense_Processing.c ****         #endif /* #if (CapSense_ENABLE == CapSense_RC_FILTER_EN) */
 288              		.loc 1 1106 0
 289 005e 5B46     		mov	r3, fp
 290 0060 002B     		cmp	r3, #0
 291 0062 01D1     		bne	.L17
 292              	.LVL39:
1106:Generated_Source\PSoC4/CapSense_Processing.c ****         #endif /* #if (CapSense_ENABLE == CapSense_RC_FILTER_EN) */
 293              		.loc 1 1106 0 is_stmt 0 discriminator 1
 294 0064 0C36     		adds	r6, r6, #12
 295              	.LVL40:
 296 0066 00E0     		b	.L18
 297              	.LVL41:
 298              	.L17:
1106:Generated_Source\PSoC4/CapSense_Processing.c ****         #endif /* #if (CapSense_ENABLE == CapSense_RC_FILTER_EN) */
 299              		.loc 1 1106 0 discriminator 2
 300 0068 0C36     		adds	r6, r6, #12
 301              	.LVL42:
 302              	.L18:
1056:Generated_Source\PSoC4/CapSense_Processing.c ****     {
 303              		.loc 1 1056 0 is_stmt 1 discriminator 2
 304 006a 0135     		adds	r5, r5, #1
 305              	.LVL43:
 306              	.L15:
1056:Generated_Source\PSoC4/CapSense_Processing.c ****     {
 307              		.loc 1 1056 0 is_stmt 0 discriminator 1
 308 006c 3B8B     		ldrh	r3, [r7, #24]
 309 006e 9D42     		cmp	r5, r3
 310 0070 DDD3     		bcc	.L19
1110:Generated_Source\PSoC4/CapSense_Processing.c **** 
 311              		.loc 1 1110 0 is_stmt 1
 312 0072 4046     		mov	r0, r8
 313 0074 03B0     		add	sp, sp, #12
 314              	.LVL44:
 315              		@ sp needed
 316              	.LVL45:
 317              	.LVL46:
 318              	.LVL47:
ARM GAS  C:\Users\Zhu\AppData\Local\Temp\ccMjsG6v.s 			page 32


 319              	.LVL48:
 320              	.LVL49:
 321 0076 0CBC     		pop	{r2, r3}
 322 0078 9046     		mov	r8, r2
 323 007a 9B46     		mov	fp, r3
 324 007c F0BD     		pop	{r4, r5, r6, r7, pc}
 325              		.cfi_endproc
 326              	.LFE3:
 327              		.size	CapSense_DpProcessCsdWidgetRawCounts, .-CapSense_DpProcessCsdWidgetRawCounts
 328 007e C046     		.section	.text.CapSense_DpProcessCsdSensorRawCountsExt,"ax",%progbits
 329              		.align	2
 330              		.global	CapSense_DpProcessCsdSensorRawCountsExt
 331              		.code	16
 332              		.thumb_func
 333              		.type	CapSense_DpProcessCsdSensorRawCountsExt, %function
 334              	CapSense_DpProcessCsdSensorRawCountsExt:
 335              	.LFB4:
1151:Generated_Source\PSoC4/CapSense_Processing.c ****     uint32 result = CYRET_SUCCESS;
 336              		.loc 1 1151 0
 337              		.cfi_startproc
 338              		@ args = 0, pretend = 0, frame = 8
 339              		@ frame_needed = 0, uses_anonymous_args = 0
 340              	.LVL50:
 341 0000 F0B5     		push	{r4, r5, r6, r7, lr}
 342              		.cfi_def_cfa_offset 20
 343              		.cfi_offset 4, -20
 344              		.cfi_offset 5, -16
 345              		.cfi_offset 6, -12
 346              		.cfi_offset 7, -8
 347              		.cfi_offset 14, -4
 348 0002 83B0     		sub	sp, sp, #12
 349              		.cfi_def_cfa_offset 32
 350 0004 0E00     		movs	r6, r1
 351 0006 0192     		str	r2, [sp, #4]
 352 0008 1C00     		movs	r4, r3
 353              	.LVL51:
1166:Generated_Source\PSoC4/CapSense_Processing.c ****     ptrRamWdgt = (CapSense_RAM_WD_BASE_STRUCT *)ptrFlashWdgt->ptr2WdgtRam;
 354              		.loc 1 1166 0
 355 000a 857E     		ldrb	r5, [r0, #26]
 356              	.LVL52:
1167:Generated_Source\PSoC4/CapSense_Processing.c **** 
 357              		.loc 1 1167 0
 358 000c 4768     		ldr	r7, [r0, #4]
 359              	.LVL53:
1170:Generated_Source\PSoC4/CapSense_Processing.c ****         {
 360              		.loc 1 1170 0
 361 000e E307     		lsls	r3, r4, #31
 362 0010 03D5     		bpl	.L22
 363              	.LVL54:
1172:Generated_Source\PSoC4/CapSense_Processing.c ****             #if (CapSense_ALP_FILTER_EN)
 364              		.loc 1 1172 0
 365 0012 2A00     		movs	r2, r5
 366              	.LVL55:
 367 0014 0198     		ldr	r0, [sp, #4]
 368              	.LVL56:
 369 0016 FFF7FEFF 		bl	CapSense_FtRunEnabledFiltersInternal
 370              	.LVL57:
ARM GAS  C:\Users\Zhu\AppData\Local\Temp\ccMjsG6v.s 			page 33


 371              	.L22:
1207:Generated_Source\PSoC4/CapSense_Processing.c ****     {
 372              		.loc 1 1207 0
 373 001a A307     		lsls	r3, r4, #30
 374 001c 06D5     		bpl	.L25
1209:Generated_Source\PSoC4/CapSense_Processing.c ****     }
 375              		.loc 1 1209 0
 376 001e 2A00     		movs	r2, r5
 377              	.LVL58:
 378 0020 3100     		movs	r1, r6
 379 0022 3800     		movs	r0, r7
 380 0024 FFF7FEFF 		bl	CapSense_FtUpdateBaseline
 381              	.LVL59:
 382 0028 0500     		movs	r5, r0
 383              	.LVL60:
 384 002a 00E0     		b	.L23
 385              	.LVL61:
 386              	.L25:
1152:Generated_Source\PSoC4/CapSense_Processing.c ****     uint32  widgetType;
 387              		.loc 1 1152 0
 388 002c 0025     		movs	r5, #0
 389              	.LVL62:
 390              	.L23:
1212:Generated_Source\PSoC4/CapSense_Processing.c ****     {
 391              		.loc 1 1212 0
 392 002e 6307     		lsls	r3, r4, #29
 393 0030 03D5     		bpl	.L24
1214:Generated_Source\PSoC4/CapSense_Processing.c ****     }
 394              		.loc 1 1214 0
 395 0032 3100     		movs	r1, r6
 396 0034 3800     		movs	r0, r7
 397 0036 FFF7FEFF 		bl	CapSense_DpUpdateDifferences
 398              	.LVL63:
 399              	.L24:
1217:Generated_Source\PSoC4/CapSense_Processing.c **** 
 400              		.loc 1 1217 0
 401 003a 2800     		movs	r0, r5
 402 003c 03B0     		add	sp, sp, #12
 403              		@ sp needed
 404              	.LVL64:
 405              	.LVL65:
 406              	.LVL66:
 407              	.LVL67:
 408 003e F0BD     		pop	{r4, r5, r6, r7, pc}
 409              		.cfi_endproc
 410              	.LFE4:
 411              		.size	CapSense_DpProcessCsdSensorRawCountsExt, .-CapSense_DpProcessCsdSensorRawCountsExt
 412              		.section	.text.CapSense_DpProcessButton,"ax",%progbits
 413              		.align	2
 414              		.global	CapSense_DpProcessButton
 415              		.code	16
 416              		.thumb_func
 417              		.type	CapSense_DpProcessButton, %function
 418              	CapSense_DpProcessButton:
 419              	.LFB7:
1422:Generated_Source\PSoC4/CapSense_Processing.c **** 
1423:Generated_Source\PSoC4/CapSense_Processing.c **** 
ARM GAS  C:\Users\Zhu\AppData\Local\Temp\ccMjsG6v.s 			page 34


1424:Generated_Source\PSoC4/CapSense_Processing.c **** #if ((0u != CapSense_BUTTON_WIDGET_EN) || (0u != CapSense_CSX_MATRIX_WIDGET_EN))
1425:Generated_Source\PSoC4/CapSense_Processing.c **** /*******************************************************************************
1426:Generated_Source\PSoC4/CapSense_Processing.c **** * Function Name: CapSense_DpProcessButton
1427:Generated_Source\PSoC4/CapSense_Processing.c **** ****************************************************************************//**
1428:Generated_Source\PSoC4/CapSense_Processing.c **** *
1429:Generated_Source\PSoC4/CapSense_Processing.c **** * \brief
1430:Generated_Source\PSoC4/CapSense_Processing.c **** *   Processes the status of the Button widget.
1431:Generated_Source\PSoC4/CapSense_Processing.c **** *
1432:Generated_Source\PSoC4/CapSense_Processing.c **** * \details
1433:Generated_Source\PSoC4/CapSense_Processing.c **** *   This API processes the status of the CSD/CSX Button widget and
1434:Generated_Source\PSoC4/CapSense_Processing.c **** *   CSX Matrix Button widget. It applies the hysteresis and de-bounce algorithm
1435:Generated_Source\PSoC4/CapSense_Processing.c **** *   to each sensor difference value. This API is expected to be called
1436:Generated_Source\PSoC4/CapSense_Processing.c **** *   after each new widget scan. If it is called multiple times for the same
1437:Generated_Source\PSoC4/CapSense_Processing.c **** *   scan data, the de-bounce algorithm will not work properly.
1438:Generated_Source\PSoC4/CapSense_Processing.c **** *
1439:Generated_Source\PSoC4/CapSense_Processing.c **** *   This API does not update any Data Structure registers
1440:Generated_Source\PSoC4/CapSense_Processing.c **** *   except the de-bounce counters.
1441:Generated_Source\PSoC4/CapSense_Processing.c **** *
1442:Generated_Source\PSoC4/CapSense_Processing.c **** * \param currStatus   The current status of the widget sensors.
1443:Generated_Source\PSoC4/CapSense_Processing.c **** * \param ptrFlashWdgt The pointer to the Flash Widget Object.
1444:Generated_Source\PSoC4/CapSense_Processing.c **** *
1445:Generated_Source\PSoC4/CapSense_Processing.c **** * \return Returns the status of the widget's sensors. Bit #0 - corresponds to Sensor #0.
1446:Generated_Source\PSoC4/CapSense_Processing.c **** *
1447:Generated_Source\PSoC4/CapSense_Processing.c **** *******************************************************************************/
1448:Generated_Source\PSoC4/CapSense_Processing.c **** uint32 CapSense_DpProcessButton(uint32 currStatus, CapSense_FLASH_WD_STRUCT const *ptrFlashWdgt)
1449:Generated_Source\PSoC4/CapSense_Processing.c **** {
 420              		.loc 1 1449 0
 421              		.cfi_startproc
 422              		@ args = 0, pretend = 0, frame = 0
 423              		@ frame_needed = 0, uses_anonymous_args = 0
 424              	.LVL68:
 425 0000 F0B5     		push	{r4, r5, r6, r7, lr}
 426              		.cfi_def_cfa_offset 20
 427              		.cfi_offset 4, -20
 428              		.cfi_offset 5, -16
 429              		.cfi_offset 6, -12
 430              		.cfi_offset 7, -8
 431              		.cfi_offset 14, -4
1450:Generated_Source\PSoC4/CapSense_Processing.c ****     uint32 snsCnt;
1451:Generated_Source\PSoC4/CapSense_Processing.c ****     uint32 snsMask;
1452:Generated_Source\PSoC4/CapSense_Processing.c ****     uint32 newStatus;
1453:Generated_Source\PSoC4/CapSense_Processing.c ****     uint32 touchTh;
1454:Generated_Source\PSoC4/CapSense_Processing.c ****     CapSense_RAM_SNS_STRUCT *ptrSnsTmp;
1455:Generated_Source\PSoC4/CapSense_Processing.c ****     CapSense_RAM_WD_BASE_STRUCT *ptrRamWdgt;
1456:Generated_Source\PSoC4/CapSense_Processing.c ****     uint8 * ptrDebounceCnt;
1457:Generated_Source\PSoC4/CapSense_Processing.c **** 
1458:Generated_Source\PSoC4/CapSense_Processing.c ****     snsCnt = ptrFlashWdgt->totalNumSns;
 432              		.loc 1 1458 0
 433 0002 0A8B     		ldrh	r2, [r1, #24]
 434              	.LVL69:
1459:Generated_Source\PSoC4/CapSense_Processing.c ****     ptrSnsTmp = ptrFlashWdgt->ptr2SnsRam;
 435              		.loc 1 1459 0
 436 0004 8D68     		ldr	r5, [r1, #8]
 437              	.LVL70:
1460:Generated_Source\PSoC4/CapSense_Processing.c ****     ptrRamWdgt = (CapSense_RAM_WD_BASE_STRUCT *)ptrFlashWdgt->ptr2WdgtRam;
 438              		.loc 1 1460 0
 439 0006 4F68     		ldr	r7, [r1, #4]
ARM GAS  C:\Users\Zhu\AppData\Local\Temp\ccMjsG6v.s 			page 35


 440              	.LVL71:
1461:Generated_Source\PSoC4/CapSense_Processing.c ****     ptrDebounceCnt = ptrFlashWdgt->ptr2DebounceArr;
 441              		.loc 1 1461 0
 442 0008 0B69     		ldr	r3, [r1, #16]
 443              	.LVL72:
1462:Generated_Source\PSoC4/CapSense_Processing.c **** 
1463:Generated_Source\PSoC4/CapSense_Processing.c ****     /* Go through all widget's sensors */
1464:Generated_Source\PSoC4/CapSense_Processing.c ****     snsMask = 1Lu;
 444              		.loc 1 1464 0
 445 000a 0121     		movs	r1, #1
 446              	.LVL73:
1465:Generated_Source\PSoC4/CapSense_Processing.c ****     for (; snsCnt-- > 0u; )
 447              		.loc 1 1465 0
 448 000c 25E0     		b	.L27
 449              	.LVL74:
 450              	.L35:
1466:Generated_Source\PSoC4/CapSense_Processing.c ****     {
1467:Generated_Source\PSoC4/CapSense_Processing.c ****         /* Calculate touch threshold taking into account hysteresis
1468:Generated_Source\PSoC4/CapSense_Processing.c ****            and current sensor state. */
1469:Generated_Source\PSoC4/CapSense_Processing.c ****         touchTh = (0u == (currStatus & snsMask)) ?
 451              		.loc 1 1469 0
 452 000e 0C00     		movs	r4, r1
 453              	.LVL75:
 454 0010 0440     		ands	r4, r0
1470:Generated_Source\PSoC4/CapSense_Processing.c ****                   ((uint32)ptrRamWdgt->fingerTh + ptrRamWdgt->hysteresis) :
 455              		.loc 1 1470 0
 456 0012 03D1     		bne	.L28
 457              		.loc 1 1470 0 is_stmt 0 discriminator 1
 458 0014 BE88     		ldrh	r6, [r7, #4]
 459 0016 3A7A     		ldrb	r2, [r7, #8]
 460 0018 B218     		adds	r2, r6, r2
 461 001a 02E0     		b	.L29
 462              	.L28:
1471:Generated_Source\PSoC4/CapSense_Processing.c ****                   ((uint32)ptrRamWdgt->fingerTh - ptrRamWdgt->hysteresis);
 463              		.loc 1 1471 0 is_stmt 1 discriminator 2
 464 001c BA88     		ldrh	r2, [r7, #4]
 465 001e 3E7A     		ldrb	r6, [r7, #8]
1470:Generated_Source\PSoC4/CapSense_Processing.c ****                   ((uint32)ptrRamWdgt->fingerTh + ptrRamWdgt->hysteresis) :
 466              		.loc 1 1470 0 discriminator 2
 467 0020 921B     		subs	r2, r2, r6
 468              	.L29:
 469              	.LVL76:
1472:Generated_Source\PSoC4/CapSense_Processing.c **** 
1473:Generated_Source\PSoC4/CapSense_Processing.c ****         /* Determine new potential sensor state */
1474:Generated_Source\PSoC4/CapSense_Processing.c ****         newStatus = (ptrSnsTmp->diff > touchTh) ? snsMask : 0u;
 470              		.loc 1 1474 0
 471 0022 2E89     		ldrh	r6, [r5, #8]
 472 0024 B242     		cmp	r2, r6
 473 0026 01D3     		bcc	.L36
 474 0028 0022     		movs	r2, #0
 475              	.LVL77:
 476 002a 00E0     		b	.L30
 477              	.LVL78:
 478              	.L36:
 479 002c 0A00     		movs	r2, r1
 480              	.LVL79:
 481              	.L30:
ARM GAS  C:\Users\Zhu\AppData\Local\Temp\ccMjsG6v.s 			page 36


1475:Generated_Source\PSoC4/CapSense_Processing.c **** 
1476:Generated_Source\PSoC4/CapSense_Processing.c ****         /* Sensor state changed ? */
1477:Generated_Source\PSoC4/CapSense_Processing.c ****         if (newStatus != (currStatus & snsMask))
 482              		.loc 1 1477 0 discriminator 4
 483 002e A242     		cmp	r2, r4
 484 0030 02D0     		beq	.L31
1478:Generated_Source\PSoC4/CapSense_Processing.c ****         {
1479:Generated_Source\PSoC4/CapSense_Processing.c ****             /* Decrement de-bounce counter */
1480:Generated_Source\PSoC4/CapSense_Processing.c ****             (*ptrDebounceCnt)--;
 485              		.loc 1 1480 0
 486 0032 1E78     		ldrb	r6, [r3]
 487 0034 013E     		subs	r6, r6, #1
 488 0036 1E70     		strb	r6, [r3]
 489              	.L31:
1481:Generated_Source\PSoC4/CapSense_Processing.c ****         }
1482:Generated_Source\PSoC4/CapSense_Processing.c **** 
1483:Generated_Source\PSoC4/CapSense_Processing.c ****         /*
1484:Generated_Source\PSoC4/CapSense_Processing.c ****         *  This piece of code has two objectives:
1485:Generated_Source\PSoC4/CapSense_Processing.c ****         *  1. Reset de-bounce counter if the sensor state did not change.
1486:Generated_Source\PSoC4/CapSense_Processing.c ****         *     (It is possible that during previous processing cycles sensor
1487:Generated_Source\PSoC4/CapSense_Processing.c ****         *     was active and de-bounce counter was decremented.)
1488:Generated_Source\PSoC4/CapSense_Processing.c ****         *  2. Set new sensor state after successful de-bounce.
1489:Generated_Source\PSoC4/CapSense_Processing.c ****         */
1490:Generated_Source\PSoC4/CapSense_Processing.c ****         if ((newStatus == (currStatus & snsMask)) || (0u == (*ptrDebounceCnt)))
 490              		.loc 1 1490 0
 491 0038 A242     		cmp	r2, r4
 492 003a 02D0     		beq	.L32
 493              		.loc 1 1490 0 is_stmt 0 discriminator 1
 494 003c 1C78     		ldrb	r4, [r3]
 495 003e 002C     		cmp	r4, #0
 496 0040 07D1     		bne	.L33
 497              	.L32:
1491:Generated_Source\PSoC4/CapSense_Processing.c ****         {
1492:Generated_Source\PSoC4/CapSense_Processing.c ****             /* Set new sensor status */
1493:Generated_Source\PSoC4/CapSense_Processing.c ****             currStatus &= ~snsMask;
 498              		.loc 1 1493 0 is_stmt 1
 499 0042 8843     		bics	r0, r1
 500              	.LVL80:
1494:Generated_Source\PSoC4/CapSense_Processing.c ****             currStatus |= newStatus;
 501              		.loc 1 1494 0
 502 0044 1043     		orrs	r0, r2
 503              	.LVL81:
1495:Generated_Source\PSoC4/CapSense_Processing.c **** 
1496:Generated_Source\PSoC4/CapSense_Processing.c ****             /* Reset de-bounce counter */
1497:Generated_Source\PSoC4/CapSense_Processing.c ****             #if (0u != CapSense_OFF_DEBOUNCE_EN)
1498:Generated_Source\PSoC4/CapSense_Processing.c ****                 *ptrDebounceCnt = (0Lu == newStatus) ? ptrRamWdgt->onDebounce : ptrRamWdgt->offDebo
1499:Generated_Source\PSoC4/CapSense_Processing.c ****             #else
1500:Generated_Source\PSoC4/CapSense_Processing.c ****                 *ptrDebounceCnt = (0Lu == newStatus) ? ptrRamWdgt->onDebounce : DEFAULT_OFF_DEBOUNC
 504              		.loc 1 1500 0
 505 0046 002A     		cmp	r2, #0
 506 0048 01D1     		bne	.L37
 507              		.loc 1 1500 0 is_stmt 0 discriminator 1
 508 004a 7A7A     		ldrb	r2, [r7, #9]
 509              	.LVL82:
 510 004c 00E0     		b	.L34
 511              	.LVL83:
 512              	.L37:
ARM GAS  C:\Users\Zhu\AppData\Local\Temp\ccMjsG6v.s 			page 37


 513              		.loc 1 1500 0
 514 004e 0122     		movs	r2, #1
 515              	.LVL84:
 516              	.L34:
 517              		.loc 1 1500 0 discriminator 4
 518 0050 1A70     		strb	r2, [r3]
 519              	.L33:
1501:Generated_Source\PSoC4/CapSense_Processing.c ****             #endif /* #if (0u != CapSense_OFF_DEBOUNCE_EN) */
1502:Generated_Source\PSoC4/CapSense_Processing.c ****         }
1503:Generated_Source\PSoC4/CapSense_Processing.c **** 
1504:Generated_Source\PSoC4/CapSense_Processing.c ****         /* Move mask to the next sensor */
1505:Generated_Source\PSoC4/CapSense_Processing.c ****         snsMask <<= 1u;
 520              		.loc 1 1505 0 is_stmt 1
 521 0052 4900     		lsls	r1, r1, #1
 522              	.LVL85:
1506:Generated_Source\PSoC4/CapSense_Processing.c **** 
1507:Generated_Source\PSoC4/CapSense_Processing.c ****         ptrSnsTmp++;
 523              		.loc 1 1507 0
 524 0054 0C35     		adds	r5, r5, #12
 525              	.LVL86:
1508:Generated_Source\PSoC4/CapSense_Processing.c ****         ptrDebounceCnt++;
 526              		.loc 1 1508 0
 527 0056 0133     		adds	r3, r3, #1
 528              	.LVL87:
1465:Generated_Source\PSoC4/CapSense_Processing.c ****     {
 529              		.loc 1 1465 0
 530 0058 6246     		mov	r2, ip
 531              	.LVL88:
 532              	.L27:
 533 005a 541E     		subs	r4, r2, #1
 534 005c A446     		mov	ip, r4
 535              	.LVL89:
 536 005e 002A     		cmp	r2, #0
 537 0060 D5D1     		bne	.L35
1509:Generated_Source\PSoC4/CapSense_Processing.c ****     }
1510:Generated_Source\PSoC4/CapSense_Processing.c **** 
1511:Generated_Source\PSoC4/CapSense_Processing.c ****     return currStatus;
1512:Generated_Source\PSoC4/CapSense_Processing.c **** }
 538              		.loc 1 1512 0
 539              		@ sp needed
 540              	.LVL90:
 541              	.LVL91:
 542              	.LVL92:
 543 0062 F0BD     		pop	{r4, r5, r6, r7, pc}
 544              		.cfi_endproc
 545              	.LFE7:
 546              		.size	CapSense_DpProcessButton, .-CapSense_DpProcessButton
 547              		.section	.text.CapSense_DpProcessProximity,"ax",%progbits
 548              		.align	2
 549              		.global	CapSense_DpProcessProximity
 550              		.code	16
 551              		.thumb_func
 552              		.type	CapSense_DpProcessProximity, %function
 553              	CapSense_DpProcessProximity:
 554              	.LFB8:
1513:Generated_Source\PSoC4/CapSense_Processing.c **** #endif /* #if ((0u != CapSense_BUTTON_WIDGET_EN) || (0u != CapSense_CSX_MATRIX_WIDGET_EN)) */
1514:Generated_Source\PSoC4/CapSense_Processing.c **** 
ARM GAS  C:\Users\Zhu\AppData\Local\Temp\ccMjsG6v.s 			page 38


1515:Generated_Source\PSoC4/CapSense_Processing.c **** 
1516:Generated_Source\PSoC4/CapSense_Processing.c **** #if (0u != CapSense_PROXIMITY_WIDGET_EN)
1517:Generated_Source\PSoC4/CapSense_Processing.c **** /*******************************************************************************
1518:Generated_Source\PSoC4/CapSense_Processing.c **** * Function Name: CapSense_DpProcessProximity
1519:Generated_Source\PSoC4/CapSense_Processing.c **** ****************************************************************************//**
1520:Generated_Source\PSoC4/CapSense_Processing.c **** *
1521:Generated_Source\PSoC4/CapSense_Processing.c **** * \brief
1522:Generated_Source\PSoC4/CapSense_Processing.c **** *   Processes the status of the Proximity widget.
1523:Generated_Source\PSoC4/CapSense_Processing.c **** *
1524:Generated_Source\PSoC4/CapSense_Processing.c **** * \details
1525:Generated_Source\PSoC4/CapSense_Processing.c **** *   This API processes the status of the CSD Proximity widget. It applies the
1526:Generated_Source\PSoC4/CapSense_Processing.c **** *   hysteresis and debounce algorithm to each sensor difference value.
1527:Generated_Source\PSoC4/CapSense_Processing.c **** *   The proximity and touch events are considered independently so debounce and
1528:Generated_Source\PSoC4/CapSense_Processing.c **** *   hysteresis are also applied independently.
1529:Generated_Source\PSoC4/CapSense_Processing.c **** *
1530:Generated_Source\PSoC4/CapSense_Processing.c **** *   This API is expected to be called after each new widget scan. If it is
1531:Generated_Source\PSoC4/CapSense_Processing.c **** *   called multiple times for the same scan data the debounce algorithm
1532:Generated_Source\PSoC4/CapSense_Processing.c **** *   will not work properly.
1533:Generated_Source\PSoC4/CapSense_Processing.c **** *
1534:Generated_Source\PSoC4/CapSense_Processing.c **** *   This API does not update any Data Structure registers
1535:Generated_Source\PSoC4/CapSense_Processing.c **** *   except the debounce counters.
1536:Generated_Source\PSoC4/CapSense_Processing.c **** *
1537:Generated_Source\PSoC4/CapSense_Processing.c **** * \param currStatus   The value with the current widget status.
1538:Generated_Source\PSoC4/CapSense_Processing.c **** * \param ptrFlashWdgt The pointer to the Flash Widget Object.
1539:Generated_Source\PSoC4/CapSense_Processing.c **** *
1540:Generated_Source\PSoC4/CapSense_Processing.c **** * \return
1541:Generated_Source\PSoC4/CapSense_Processing.c **** *  Returns the status of the proximity sensors. Each sensor is represented by two bits
1542:Generated_Source\PSoC4/CapSense_Processing.c **** *  that can take the following values:
1543:Generated_Source\PSoC4/CapSense_Processing.c **** *   - 00b not active
1544:Generated_Source\PSoC4/CapSense_Processing.c **** *   - 01b proximity is detected (signal is above finger threshold)
1545:Generated_Source\PSoC4/CapSense_Processing.c **** *   - 11b finger touch is detected (signal is above the touch threshold)
1546:Generated_Source\PSoC4/CapSense_Processing.c **** *
1547:Generated_Source\PSoC4/CapSense_Processing.c **** *******************************************************************************/
1548:Generated_Source\PSoC4/CapSense_Processing.c **** uint32 CapSense_DpProcessProximity(uint32 currStatus, CapSense_FLASH_WD_STRUCT const *ptrFlashWdgt)
1549:Generated_Source\PSoC4/CapSense_Processing.c **** {
 555              		.loc 1 1549 0
 556              		.cfi_startproc
 557              		@ args = 0, pretend = 0, frame = 0
 558              		@ frame_needed = 0, uses_anonymous_args = 0
 559              	.LVL93:
 560 0000 F0B5     		push	{r4, r5, r6, r7, lr}
 561              		.cfi_def_cfa_offset 20
 562              		.cfi_offset 4, -20
 563              		.cfi_offset 5, -16
 564              		.cfi_offset 6, -12
 565              		.cfi_offset 7, -8
 566              		.cfi_offset 14, -4
 567 0002 4F46     		mov	r7, r9
 568 0004 4646     		mov	r6, r8
 569 0006 C0B4     		push	{r6, r7}
 570              		.cfi_def_cfa_offset 28
 571              		.cfi_offset 8, -28
 572              		.cfi_offset 9, -24
 573              	.LVL94:
1550:Generated_Source\PSoC4/CapSense_Processing.c ****     uint32 currTh;
1551:Generated_Source\PSoC4/CapSense_Processing.c ****     uint32 snsCnt;
1552:Generated_Source\PSoC4/CapSense_Processing.c ****     uint32 snsMask;
ARM GAS  C:\Users\Zhu\AppData\Local\Temp\ccMjsG6v.s 			page 39


1553:Generated_Source\PSoC4/CapSense_Processing.c ****     uint32 newStatus;
1554:Generated_Source\PSoC4/CapSense_Processing.c ****     uint32 difference;
1555:Generated_Source\PSoC4/CapSense_Processing.c **** 
1556:Generated_Source\PSoC4/CapSense_Processing.c ****     uint8 *ptrDebounceCnt;
1557:Generated_Source\PSoC4/CapSense_Processing.c ****     CapSense_RAM_SNS_STRUCT *ptrSnsTmp;
1558:Generated_Source\PSoC4/CapSense_Processing.c ****     CapSense_RAM_WD_PROXIMITY_STRUCT *ptrRamWdgt;
1559:Generated_Source\PSoC4/CapSense_Processing.c **** 
1560:Generated_Source\PSoC4/CapSense_Processing.c ****     /* Mask for proximity status bits. (All odd bits.) */
1561:Generated_Source\PSoC4/CapSense_Processing.c ****     const uint32 proxMask = UINT32_ODD_BITS_CONST;
1562:Generated_Source\PSoC4/CapSense_Processing.c **** 
1563:Generated_Source\PSoC4/CapSense_Processing.c ****     ptrSnsTmp = ptrFlashWdgt->ptr2SnsRam;
 574              		.loc 1 1563 0
 575 0008 8B68     		ldr	r3, [r1, #8]
 576 000a 9946     		mov	r9, r3
 577              	.LVL95:
1564:Generated_Source\PSoC4/CapSense_Processing.c ****     ptrRamWdgt = (CapSense_RAM_WD_PROXIMITY_STRUCT *)ptrFlashWdgt->ptr2WdgtRam;
 578              		.loc 1 1564 0
 579 000c 4D68     		ldr	r5, [r1, #4]
 580              	.LVL96:
1565:Generated_Source\PSoC4/CapSense_Processing.c ****     ptrDebounceCnt = ptrFlashWdgt->ptr2DebounceArr;
 581              		.loc 1 1565 0
 582 000e 0A69     		ldr	r2, [r1, #16]
 583              	.LVL97:
1566:Generated_Source\PSoC4/CapSense_Processing.c **** 
1567:Generated_Source\PSoC4/CapSense_Processing.c ****     /* Get number of sensors and multiply it by 2 - proximity and touch statuses per sensor. */
1568:Generated_Source\PSoC4/CapSense_Processing.c ****     snsCnt = (uint32)ptrFlashWdgt->totalNumSns << 1u;
 584              		.loc 1 1568 0
 585 0010 098B     		ldrh	r1, [r1, #24]
 586              	.LVL98:
 587 0012 4900     		lsls	r1, r1, #1
 588              	.LVL99:
1569:Generated_Source\PSoC4/CapSense_Processing.c **** 
1570:Generated_Source\PSoC4/CapSense_Processing.c ****     /* Go through all sensor's status bits */
1571:Generated_Source\PSoC4/CapSense_Processing.c ****     snsMask = 1Lu;
 589              		.loc 1 1571 0
 590 0014 0123     		movs	r3, #1
 591              	.LVL100:
1572:Generated_Source\PSoC4/CapSense_Processing.c ****     for (; snsCnt-- > 0u;)
 592              		.loc 1 1572 0
 593 0016 2CE0     		b	.L39
 594              	.LVL101:
 595              	.L48:
1573:Generated_Source\PSoC4/CapSense_Processing.c ****     {
1574:Generated_Source\PSoC4/CapSense_Processing.c ****         difference = ptrSnsTmp->diff;
 596              		.loc 1 1574 0
 597 0018 4946     		mov	r1, r9
 598 001a 0E89     		ldrh	r6, [r1, #8]
 599              	.LVL102:
1575:Generated_Source\PSoC4/CapSense_Processing.c **** 
1576:Generated_Source\PSoC4/CapSense_Processing.c ****         /* Determine current event (proximity - odd; touch - even) and get appropriate threshold. *
1577:Generated_Source\PSoC4/CapSense_Processing.c ****         currTh = ptrRamWdgt->fingerTh;
 600              		.loc 1 1577 0
 601 001c A988     		ldrh	r1, [r5, #4]
 602              	.LVL103:
1578:Generated_Source\PSoC4/CapSense_Processing.c **** 
1579:Generated_Source\PSoC4/CapSense_Processing.c ****         if (0u == (snsMask & proxMask))
 603              		.loc 1 1579 0
ARM GAS  C:\Users\Zhu\AppData\Local\Temp\ccMjsG6v.s 			page 40


 604 001e 194C     		ldr	r4, .L51
 605              	.LVL104:
 606 0020 2342     		tst	r3, r4
 607 0022 03D1     		bne	.L40
1580:Generated_Source\PSoC4/CapSense_Processing.c ****         {
1581:Generated_Source\PSoC4/CapSense_Processing.c ****             currTh = ptrRamWdgt->proxTouchTh;
 608              		.loc 1 1581 0
 609 0024 E989     		ldrh	r1, [r5, #14]
 610              	.LVL105:
1582:Generated_Source\PSoC4/CapSense_Processing.c ****             ptrSnsTmp++;
 611              		.loc 1 1582 0
 612 0026 0C24     		movs	r4, #12
 613 0028 A046     		mov	r8, r4
 614 002a C144     		add	r9, r9, r8
 615              	.LVL106:
 616              	.L40:
1583:Generated_Source\PSoC4/CapSense_Processing.c ****         }
1584:Generated_Source\PSoC4/CapSense_Processing.c **** 
1585:Generated_Source\PSoC4/CapSense_Processing.c ****         /* Calculate finger threshold applying hysteresis based on current sensor state. */
1586:Generated_Source\PSoC4/CapSense_Processing.c ****         currTh = (0u == (currStatus & snsMask)) ? (currTh + ptrRamWdgt->hysteresis) : (currTh - ptr
 617              		.loc 1 1586 0
 618 002c 1C00     		movs	r4, r3
 619 002e 0440     		ands	r4, r0
 620 0030 03D1     		bne	.L41
 621              		.loc 1 1586 0 is_stmt 0 discriminator 1
 622 0032 2F7A     		ldrb	r7, [r5, #8]
 623 0034 B846     		mov	r8, r7
 624 0036 4144     		add	r1, r1, r8
 625              	.LVL107:
 626 0038 01E0     		b	.L42
 627              	.LVL108:
 628              	.L41:
 629              		.loc 1 1586 0 discriminator 2
 630 003a 2F7A     		ldrb	r7, [r5, #8]
 631 003c C91B     		subs	r1, r1, r7
 632              	.LVL109:
 633              	.L42:
1587:Generated_Source\PSoC4/CapSense_Processing.c **** 
1588:Generated_Source\PSoC4/CapSense_Processing.c ****         /* Determine new potential sensor state before de-bounce */
1589:Generated_Source\PSoC4/CapSense_Processing.c ****         newStatus = (difference > currTh) ? snsMask : 0Lu;
 634              		.loc 1 1589 0 is_stmt 1 discriminator 4
 635 003e B142     		cmp	r1, r6
 636 0040 01D3     		bcc	.L49
 637              		.loc 1 1589 0 is_stmt 0
 638 0042 0021     		movs	r1, #0
 639              	.LVL110:
 640 0044 00E0     		b	.L43
 641              	.LVL111:
 642              	.L49:
 643 0046 1900     		movs	r1, r3
 644              	.LVL112:
 645              	.L43:
1590:Generated_Source\PSoC4/CapSense_Processing.c **** 
1591:Generated_Source\PSoC4/CapSense_Processing.c ****         /* Sensor state changed ? */
1592:Generated_Source\PSoC4/CapSense_Processing.c ****         if (newStatus != (currStatus & snsMask))
 646              		.loc 1 1592 0 is_stmt 1 discriminator 4
 647 0048 A142     		cmp	r1, r4
ARM GAS  C:\Users\Zhu\AppData\Local\Temp\ccMjsG6v.s 			page 41


 648 004a 02D0     		beq	.L44
1593:Generated_Source\PSoC4/CapSense_Processing.c ****         {
1594:Generated_Source\PSoC4/CapSense_Processing.c ****             /* Decrement de-bounce counter */
1595:Generated_Source\PSoC4/CapSense_Processing.c ****             (*ptrDebounceCnt)--;
 649              		.loc 1 1595 0
 650 004c 1678     		ldrb	r6, [r2]
 651              	.LVL113:
 652 004e 013E     		subs	r6, r6, #1
 653 0050 1670     		strb	r6, [r2]
 654              	.L44:
1596:Generated_Source\PSoC4/CapSense_Processing.c ****         }
1597:Generated_Source\PSoC4/CapSense_Processing.c **** 
1598:Generated_Source\PSoC4/CapSense_Processing.c ****         /*
1599:Generated_Source\PSoC4/CapSense_Processing.c ****         *  This piece of code has two objectives:
1600:Generated_Source\PSoC4/CapSense_Processing.c ****         *  1. Reset de-bounce counter if new sensor state has not changed.
1601:Generated_Source\PSoC4/CapSense_Processing.c ****         *     (It is possible that during previous processing cycles the sensor
1602:Generated_Source\PSoC4/CapSense_Processing.c ****         *     state was different which caused de-bounce counter change.)
1603:Generated_Source\PSoC4/CapSense_Processing.c ****         *  2. Set new sensor state after successful de-bounce.
1604:Generated_Source\PSoC4/CapSense_Processing.c ****         */
1605:Generated_Source\PSoC4/CapSense_Processing.c ****         if ((newStatus == (currStatus & snsMask)) || (0u == (*ptrDebounceCnt)))
 655              		.loc 1 1605 0
 656 0052 A142     		cmp	r1, r4
 657 0054 02D0     		beq	.L45
 658              		.loc 1 1605 0 is_stmt 0 discriminator 1
 659 0056 1478     		ldrb	r4, [r2]
 660 0058 002C     		cmp	r4, #0
 661 005a 07D1     		bne	.L46
 662              	.L45:
1606:Generated_Source\PSoC4/CapSense_Processing.c ****         {
1607:Generated_Source\PSoC4/CapSense_Processing.c ****             /* Set new sensor status */
1608:Generated_Source\PSoC4/CapSense_Processing.c ****             currStatus &= ~snsMask;
 663              		.loc 1 1608 0 is_stmt 1
 664 005c 9843     		bics	r0, r3
 665              	.LVL114:
1609:Generated_Source\PSoC4/CapSense_Processing.c ****             currStatus |= newStatus;
 666              		.loc 1 1609 0
 667 005e 0843     		orrs	r0, r1
 668              	.LVL115:
1610:Generated_Source\PSoC4/CapSense_Processing.c **** 
1611:Generated_Source\PSoC4/CapSense_Processing.c ****             /* Reset de-bounce counter */
1612:Generated_Source\PSoC4/CapSense_Processing.c ****             #if (0u != CapSense_OFF_DEBOUNCE_EN)
1613:Generated_Source\PSoC4/CapSense_Processing.c ****                 *ptrDebounceCnt = (0Lu == newStatus) ? ptrRamWdgt->onDebounce : ptrRamWdgt->offDebo
1614:Generated_Source\PSoC4/CapSense_Processing.c ****             #else
1615:Generated_Source\PSoC4/CapSense_Processing.c ****                 *ptrDebounceCnt = (0Lu == newStatus) ? ptrRamWdgt->onDebounce : DEFAULT_OFF_DEBOUNC
 669              		.loc 1 1615 0
 670 0060 0029     		cmp	r1, #0
 671 0062 01D1     		bne	.L50
 672              		.loc 1 1615 0 is_stmt 0 discriminator 1
 673 0064 697A     		ldrb	r1, [r5, #9]
 674              	.LVL116:
 675 0066 00E0     		b	.L47
 676              	.LVL117:
 677              	.L50:
 678              		.loc 1 1615 0
 679 0068 0121     		movs	r1, #1
 680              	.LVL118:
 681              	.L47:
ARM GAS  C:\Users\Zhu\AppData\Local\Temp\ccMjsG6v.s 			page 42


 682              		.loc 1 1615 0 discriminator 4
 683 006a 1170     		strb	r1, [r2]
 684              	.L46:
1616:Generated_Source\PSoC4/CapSense_Processing.c ****             #endif /* #if (0u != CapSense_OFF_DEBOUNCE_EN) */
1617:Generated_Source\PSoC4/CapSense_Processing.c ****         }
1618:Generated_Source\PSoC4/CapSense_Processing.c **** 
1619:Generated_Source\PSoC4/CapSense_Processing.c ****         ptrDebounceCnt++;
 685              		.loc 1 1619 0 is_stmt 1
 686 006c 0132     		adds	r2, r2, #1
 687              	.LVL119:
1620:Generated_Source\PSoC4/CapSense_Processing.c **** 
1621:Generated_Source\PSoC4/CapSense_Processing.c ****         /* Move sensor mask to the next sensor */
1622:Generated_Source\PSoC4/CapSense_Processing.c ****         snsMask <<= 1u;
 688              		.loc 1 1622 0
 689 006e 5B00     		lsls	r3, r3, #1
 690              	.LVL120:
1572:Generated_Source\PSoC4/CapSense_Processing.c ****     {
 691              		.loc 1 1572 0
 692 0070 6146     		mov	r1, ip
 693              	.LVL121:
 694              	.L39:
 695 0072 4C1E     		subs	r4, r1, #1
 696 0074 A446     		mov	ip, r4
 697              	.LVL122:
 698 0076 0029     		cmp	r1, #0
 699 0078 CED1     		bne	.L48
1623:Generated_Source\PSoC4/CapSense_Processing.c ****     }
1624:Generated_Source\PSoC4/CapSense_Processing.c **** 
1625:Generated_Source\PSoC4/CapSense_Processing.c ****     return currStatus;
1626:Generated_Source\PSoC4/CapSense_Processing.c **** }
 700              		.loc 1 1626 0
 701              		@ sp needed
 702              	.LVL123:
 703              	.LVL124:
 704              	.LVL125:
 705 007a 0CBC     		pop	{r2, r3}
 706 007c 9046     		mov	r8, r2
 707 007e 9946     		mov	r9, r3
 708 0080 F0BD     		pop	{r4, r5, r6, r7, pc}
 709              	.L52:
 710 0082 C046     		.align	2
 711              	.L51:
 712 0084 55555555 		.word	1431655765
 713              		.cfi_endproc
 714              	.LFE8:
 715              		.size	CapSense_DpProcessProximity, .-CapSense_DpProcessProximity
 716              		.section	.text.CapSense_DpProcessCsdWidgetStatus,"ax",%progbits
 717              		.align	2
 718              		.global	CapSense_DpProcessCsdWidgetStatus
 719              		.code	16
 720              		.thumb_func
 721              		.type	CapSense_DpProcessCsdWidgetStatus, %function
 722              	CapSense_DpProcessCsdWidgetStatus:
 723              	.LFB5:
1247:Generated_Source\PSoC4/CapSense_Processing.c ****     uint32 sensorStatus;
 724              		.loc 1 1247 0
 725              		.cfi_startproc
ARM GAS  C:\Users\Zhu\AppData\Local\Temp\ccMjsG6v.s 			page 43


 726              		@ args = 0, pretend = 0, frame = 0
 727              		@ frame_needed = 0, uses_anonymous_args = 0
 728              	.LVL126:
 729 0000 70B5     		push	{r4, r5, r6, lr}
 730              		.cfi_def_cfa_offset 16
 731              		.cfi_offset 4, -16
 732              		.cfi_offset 5, -12
 733              		.cfi_offset 6, -8
 734              		.cfi_offset 14, -4
 735 0002 0400     		movs	r4, r0
1253:Generated_Source\PSoC4/CapSense_Processing.c ****     sensorStatus = CapSense_dsRam.snsStatus[widgetId];
 736              		.loc 1 1253 0
 737 0004 8A7E     		ldrb	r2, [r1, #26]
 738              	.LVL127:
1254:Generated_Source\PSoC4/CapSense_Processing.c **** 
 739              		.loc 1 1254 0
 740 0006 164B     		ldr	r3, .L61
 741 0008 1B18     		adds	r3, r3, r0
 742 000a 1D7F     		ldrb	r5, [r3, #28]
 743              	.LVL128:
1256:Generated_Source\PSoC4/CapSense_Processing.c ****     {
 744              		.loc 1 1256 0
 745 000c 012A     		cmp	r2, #1
 746 000e 02D0     		beq	.L55
 747 0010 062A     		cmp	r2, #6
 748 0012 05D0     		beq	.L56
 749 0014 09E0     		b	.L60
 750              	.L55:
1260:Generated_Source\PSoC4/CapSense_Processing.c ****             break;
 751              		.loc 1 1260 0
 752 0016 2800     		movs	r0, r5
 753              	.LVL129:
 754 0018 FFF7FEFF 		bl	CapSense_DpProcessButton
 755              	.LVL130:
 756 001c 0500     		movs	r5, r0
 757              	.LVL131:
1261:Generated_Source\PSoC4/CapSense_Processing.c ****     #endif /* #if (0u != CapSense_BUTTON_WIDGET_EN) */
 758              		.loc 1 1261 0
 759 001e 07E0     		b	.L57
 760              	.LVL132:
 761              	.L56:
1288:Generated_Source\PSoC4/CapSense_Processing.c ****             break;
 762              		.loc 1 1288 0
 763 0020 2800     		movs	r0, r5
 764              	.LVL133:
 765 0022 FFF7FEFF 		bl	CapSense_DpProcessProximity
 766              	.LVL134:
 767 0026 0500     		movs	r5, r0
 768              	.LVL135:
1289:Generated_Source\PSoC4/CapSense_Processing.c ****     #endif /* #if (0u != CapSense_PROXIMITY_WIDGET_EN) */
 769              		.loc 1 1289 0
 770 0028 02E0     		b	.L57
 771              	.LVL136:
 772              	.L60:
1293:Generated_Source\PSoC4/CapSense_Processing.c ****         break;
 773              		.loc 1 1293 0 discriminator 1
 774 002a 0020     		movs	r0, #0
ARM GAS  C:\Users\Zhu\AppData\Local\Temp\ccMjsG6v.s 			page 44


 775              	.LVL137:
 776 002c FFF7FEFF 		bl	CyHalt
 777              	.LVL138:
 778              	.L57:
1297:Generated_Source\PSoC4/CapSense_Processing.c **** 
 779              		.loc 1 1297 0
 780 0030 0B4B     		ldr	r3, .L61
 781 0032 1B19     		adds	r3, r3, r4
 782 0034 1D77     		strb	r5, [r3, #28]
1300:Generated_Source\PSoC4/CapSense_Processing.c ****     wdStatusMask = CapSense_GET_WDGT_STATUS_MASK(widgetId);
 783              		.loc 1 1300 0
 784 0036 6309     		lsrs	r3, r4, #5
 785              	.LVL139:
1301:Generated_Source\PSoC4/CapSense_Processing.c **** 
 786              		.loc 1 1301 0
 787 0038 1F22     		movs	r2, #31
 788 003a 1440     		ands	r4, r2
 789              	.LVL140:
 790 003c 1E3A     		subs	r2, r2, #30
 791 003e A240     		lsls	r2, r2, r4
 792              	.LVL141:
1304:Generated_Source\PSoC4/CapSense_Processing.c ****     {
 793              		.loc 1 1304 0
 794 0040 002D     		cmp	r5, #0
 795 0042 06D1     		bne	.L58
1306:Generated_Source\PSoC4/CapSense_Processing.c ****     }
 796              		.loc 1 1306 0
 797 0044 0649     		ldr	r1, .L61
 798 0046 0633     		adds	r3, r3, #6
 799              	.LVL142:
 800 0048 9B00     		lsls	r3, r3, #2
 801              	.LVL143:
 802 004a 5858     		ldr	r0, [r3, r1]
 803 004c 9043     		bics	r0, r2
 804 004e 5850     		str	r0, [r3, r1]
 805 0050 05E0     		b	.L53
 806              	.LVL144:
 807              	.L58:
1310:Generated_Source\PSoC4/CapSense_Processing.c ****     }
 808              		.loc 1 1310 0
 809 0052 0349     		ldr	r1, .L61
 810 0054 0633     		adds	r3, r3, #6
 811              	.LVL145:
 812 0056 9B00     		lsls	r3, r3, #2
 813              	.LVL146:
 814 0058 5858     		ldr	r0, [r3, r1]
 815 005a 0243     		orrs	r2, r0
 816              	.LVL147:
 817 005c 5A50     		str	r2, [r3, r1]
 818              	.L53:
1312:Generated_Source\PSoC4/CapSense_Processing.c **** #endif /* #if (0u != CapSense_TOTAL_CSD_WIDGETS) */
 819              		.loc 1 1312 0
 820              		@ sp needed
 821              	.LVL148:
 822              	.LVL149:
 823 005e 70BD     		pop	{r4, r5, r6, pc}
 824              	.L62:
ARM GAS  C:\Users\Zhu\AppData\Local\Temp\ccMjsG6v.s 			page 45


 825              		.align	2
 826              	.L61:
 827 0060 00000000 		.word	CapSense_dsRam
 828              		.cfi_endproc
 829              	.LFE5:
 830              		.size	CapSense_DpProcessCsdWidgetStatus, .-CapSense_DpProcessCsdWidgetStatus
 831              		.text
 832              	.Letext0:
 833              		.file 2 "Generated_Source\\PSoC4\\cytypes.h"
 834              		.file 3 "c:\\program files (x86)\\cypress\\psoc creator\\4.2\\psoc creator\\import\\gnu\\arm\\5.4.
 835              		.file 4 "Generated_Source\\PSoC4\\CapSense_Configuration.h"
 836              		.file 5 "Generated_Source\\PSoC4\\CapSense_Structure.h"
 837              		.file 6 "c:\\program files (x86)\\cypress\\psoc creator\\4.2\\psoc creator\\import\\gnu\\arm\\5.4.
 838              		.file 7 "Generated_Source\\PSoC4\\CapSense_Filter.h"
 839              		.file 8 "Generated_Source\\PSoC4\\CyLib.h"
 840              		.section	.debug_info,"",%progbits
 841              	.Ldebug_info0:
 842 0000 1F0F0000 		.4byte	0xf1f
 843 0004 0400     		.2byte	0x4
 844 0006 00000000 		.4byte	.Ldebug_abbrev0
 845 000a 04       		.byte	0x4
 846 000b 01       		.uleb128 0x1
 847 000c AF020000 		.4byte	.LASF165
 848 0010 0C       		.byte	0xc
 849 0011 6D040000 		.4byte	.LASF166
 850 0015 D7040000 		.4byte	.LASF167
 851 0019 00000000 		.4byte	.Ldebug_ranges0+0
 852 001d 00000000 		.4byte	0
 853 0021 00000000 		.4byte	.Ldebug_line0
 854 0025 02       		.uleb128 0x2
 855 0026 01       		.byte	0x1
 856 0027 06       		.byte	0x6
 857 0028 5E090000 		.4byte	.LASF0
 858 002c 02       		.uleb128 0x2
 859 002d 01       		.byte	0x1
 860 002e 08       		.byte	0x8
 861 002f A3080000 		.4byte	.LASF1
 862 0033 02       		.uleb128 0x2
 863 0034 02       		.byte	0x2
 864 0035 05       		.byte	0x5
 865 0036 BA060000 		.4byte	.LASF2
 866 003a 02       		.uleb128 0x2
 867 003b 02       		.byte	0x2
 868 003c 07       		.byte	0x7
 869 003d 6F090000 		.4byte	.LASF3
 870 0041 02       		.uleb128 0x2
 871 0042 04       		.byte	0x4
 872 0043 05       		.byte	0x5
 873 0044 F5060000 		.4byte	.LASF4
 874 0048 02       		.uleb128 0x2
 875 0049 04       		.byte	0x4
 876 004a 07       		.byte	0x7
 877 004b 1D080000 		.4byte	.LASF5
 878 004f 02       		.uleb128 0x2
 879 0050 08       		.byte	0x8
 880 0051 05       		.byte	0x5
 881 0052 F7040000 		.4byte	.LASF6
ARM GAS  C:\Users\Zhu\AppData\Local\Temp\ccMjsG6v.s 			page 46


 882 0056 02       		.uleb128 0x2
 883 0057 08       		.byte	0x8
 884 0058 07       		.byte	0x7
 885 0059 10020000 		.4byte	.LASF7
 886 005d 03       		.uleb128 0x3
 887 005e 04       		.byte	0x4
 888 005f 05       		.byte	0x5
 889 0060 696E7400 		.ascii	"int\000"
 890 0064 02       		.uleb128 0x2
 891 0065 04       		.byte	0x4
 892 0066 07       		.byte	0x7
 893 0067 A0000000 		.4byte	.LASF8
 894 006b 04       		.uleb128 0x4
 895 006c A0090000 		.4byte	.LASF9
 896 0070 02       		.byte	0x2
 897 0071 E401     		.2byte	0x1e4
 898 0073 2C000000 		.4byte	0x2c
 899 0077 04       		.uleb128 0x4
 900 0078 47040000 		.4byte	.LASF10
 901 007c 02       		.byte	0x2
 902 007d E501     		.2byte	0x1e5
 903 007f 3A000000 		.4byte	0x3a
 904 0083 04       		.uleb128 0x4
 905 0084 D2050000 		.4byte	.LASF11
 906 0088 02       		.byte	0x2
 907 0089 E601     		.2byte	0x1e6
 908 008b 48000000 		.4byte	0x48
 909 008f 04       		.uleb128 0x4
 910 0090 92010000 		.4byte	.LASF12
 911 0094 02       		.byte	0x2
 912 0095 E901     		.2byte	0x1e9
 913 0097 41000000 		.4byte	0x41
 914 009b 02       		.uleb128 0x2
 915 009c 04       		.byte	0x4
 916 009d 04       		.byte	0x4
 917 009e 80010000 		.4byte	.LASF13
 918 00a2 02       		.uleb128 0x2
 919 00a3 08       		.byte	0x8
 920 00a4 04       		.byte	0x4
 921 00a5 A6090000 		.4byte	.LASF14
 922 00a9 02       		.uleb128 0x2
 923 00aa 01       		.byte	0x1
 924 00ab 08       		.byte	0x8
 925 00ac F4030000 		.4byte	.LASF15
 926 00b0 05       		.uleb128 0x5
 927 00b1 83000000 		.4byte	0x83
 928 00b5 06       		.uleb128 0x6
 929 00b6 79030000 		.4byte	.LASF16
 930 00ba 03       		.byte	0x3
 931 00bb D8       		.byte	0xd8
 932 00bc 64000000 		.4byte	0x64
 933 00c0 02       		.uleb128 0x2
 934 00c1 08       		.byte	0x8
 935 00c2 04       		.byte	0x4
 936 00c3 38060000 		.4byte	.LASF17
 937 00c7 02       		.uleb128 0x2
 938 00c8 04       		.byte	0x4
ARM GAS  C:\Users\Zhu\AppData\Local\Temp\ccMjsG6v.s 			page 47


 939 00c9 07       		.byte	0x7
 940 00ca 0A080000 		.4byte	.LASF18
 941 00ce 07       		.uleb128 0x7
 942 00cf 04       		.byte	0x4
 943 00d0 04       		.uleb128 0x4
 944 00d1 EF080000 		.4byte	.LASF19
 945 00d5 04       		.byte	0x4
 946 00d6 4D01     		.2byte	0x14d
 947 00d8 77000000 		.4byte	0x77
 948 00dc 04       		.uleb128 0x4
 949 00dd 9A040000 		.4byte	.LASF20
 950 00e1 04       		.byte	0x4
 951 00e2 5101     		.2byte	0x151
 952 00e4 6B000000 		.4byte	0x6b
 953 00e8 08       		.uleb128 0x8
 954 00e9 01       		.byte	0x1
 955 00ea 2C000000 		.4byte	0x2c
 956 00ee 05       		.byte	0x5
 957 00ef 61       		.byte	0x61
 958 00f0 1F010000 		.4byte	0x11f
 959 00f4 09       		.uleb128 0x9
 960 00f5 47070000 		.4byte	.LASF21
 961 00f9 01       		.byte	0x1
 962 00fa 09       		.uleb128 0x9
 963 00fb F1050000 		.4byte	.LASF22
 964 00ff 02       		.byte	0x2
 965 0100 09       		.uleb128 0x9
 966 0101 91030000 		.4byte	.LASF23
 967 0105 03       		.byte	0x3
 968 0106 09       		.uleb128 0x9
 969 0107 27020000 		.4byte	.LASF24
 970 010b 04       		.byte	0x4
 971 010c 09       		.uleb128 0x9
 972 010d 19010000 		.4byte	.LASF25
 973 0111 05       		.byte	0x5
 974 0112 09       		.uleb128 0x9
 975 0113 00000000 		.4byte	.LASF26
 976 0117 06       		.byte	0x6
 977 0118 09       		.uleb128 0x9
 978 0119 93060000 		.4byte	.LASF27
 979 011d 07       		.byte	0x7
 980 011e 00       		.byte	0
 981 011f 06       		.uleb128 0x6
 982 0120 AF050000 		.4byte	.LASF28
 983 0124 05       		.byte	0x5
 984 0125 69       		.byte	0x69
 985 0126 E8000000 		.4byte	0xe8
 986 012a 0A       		.uleb128 0xa
 987 012b 0E       		.byte	0xe
 988 012c 05       		.byte	0x5
 989 012d 8E       		.byte	0x8e
 990 012e AB010000 		.4byte	0x1ab
 991 0132 0B       		.uleb128 0xb
 992 0133 63726300 		.ascii	"crc\000"
 993 0137 05       		.byte	0x5
 994 0138 93       		.byte	0x93
 995 0139 77000000 		.4byte	0x77
ARM GAS  C:\Users\Zhu\AppData\Local\Temp\ccMjsG6v.s 			page 48


 996 013d 00       		.byte	0
 997 013e 0C       		.uleb128 0xc
 998 013f 5B040000 		.4byte	.LASF29
 999 0143 05       		.byte	0x5
 1000 0144 98       		.byte	0x98
 1001 0145 77000000 		.4byte	0x77
 1002 0149 02       		.byte	0x2
 1003 014a 0C       		.uleb128 0xc
 1004 014b 53080000 		.4byte	.LASF30
 1005 014f 05       		.byte	0x5
 1006 0150 9D       		.byte	0x9d
 1007 0151 D0000000 		.4byte	0xd0
 1008 0155 04       		.byte	0x4
 1009 0156 0C       		.uleb128 0xc
 1010 0157 EC030000 		.4byte	.LASF31
 1011 015b 05       		.byte	0x5
 1012 015c A2       		.byte	0xa2
 1013 015d 6B000000 		.4byte	0x6b
 1014 0161 06       		.byte	0x6
 1015 0162 0C       		.uleb128 0xc
 1016 0163 7F050000 		.4byte	.LASF32
 1017 0167 05       		.byte	0x5
 1018 0168 A7       		.byte	0xa7
 1019 0169 6B000000 		.4byte	0x6b
 1020 016d 07       		.byte	0x7
 1021 016e 0C       		.uleb128 0xc
 1022 016f 86030000 		.4byte	.LASF33
 1023 0173 05       		.byte	0x5
 1024 0174 AD       		.byte	0xad
 1025 0175 6B000000 		.4byte	0x6b
 1026 0179 08       		.byte	0x8
 1027 017a 0C       		.uleb128 0xc
 1028 017b 0D050000 		.4byte	.LASF34
 1029 017f 05       		.byte	0x5
 1030 0180 B3       		.byte	0xb3
 1031 0181 6B000000 		.4byte	0x6b
 1032 0185 09       		.byte	0x9
 1033 0186 0C       		.uleb128 0xc
 1034 0187 C6030000 		.4byte	.LASF35
 1035 018b 05       		.byte	0x5
 1036 018c BA       		.byte	0xba
 1037 018d DC000000 		.4byte	0xdc
 1038 0191 0A       		.byte	0xa
 1039 0192 0C       		.uleb128 0xc
 1040 0193 2F080000 		.4byte	.LASF36
 1041 0197 05       		.byte	0x5
 1042 0198 C1       		.byte	0xc1
 1043 0199 AB010000 		.4byte	0x1ab
 1044 019d 0B       		.byte	0xb
 1045 019e 0C       		.uleb128 0xc
 1046 019f AD060000 		.4byte	.LASF37
 1047 01a3 05       		.byte	0x5
 1048 01a4 C6       		.byte	0xc6
 1049 01a5 6B000000 		.4byte	0x6b
 1050 01a9 0C       		.byte	0xc
 1051 01aa 00       		.byte	0
 1052 01ab 0D       		.uleb128 0xd
ARM GAS  C:\Users\Zhu\AppData\Local\Temp\ccMjsG6v.s 			page 49


 1053 01ac 6B000000 		.4byte	0x6b
 1054 01b0 BB010000 		.4byte	0x1bb
 1055 01b4 0E       		.uleb128 0xe
 1056 01b5 C7000000 		.4byte	0xc7
 1057 01b9 00       		.byte	0
 1058 01ba 00       		.byte	0
 1059 01bb 06       		.uleb128 0x6
 1060 01bc 93050000 		.4byte	.LASF38
 1061 01c0 05       		.byte	0x5
 1062 01c1 C7       		.byte	0xc7
 1063 01c2 2A010000 		.4byte	0x12a
 1064 01c6 0A       		.uleb128 0xa
 1065 01c7 0E       		.byte	0xe
 1066 01c8 05       		.byte	0x5
 1067 01c9 CC       		.byte	0xcc
 1068 01ca 48020000 		.4byte	0x248
 1069 01ce 0B       		.uleb128 0xb
 1070 01cf 63726300 		.ascii	"crc\000"
 1071 01d3 05       		.byte	0x5
 1072 01d4 D1       		.byte	0xd1
 1073 01d5 77000000 		.4byte	0x77
 1074 01d9 00       		.byte	0
 1075 01da 0C       		.uleb128 0xc
 1076 01db 5B040000 		.4byte	.LASF29
 1077 01df 05       		.byte	0x5
 1078 01e0 D6       		.byte	0xd6
 1079 01e1 77000000 		.4byte	0x77
 1080 01e5 02       		.byte	0x2
 1081 01e6 0C       		.uleb128 0xc
 1082 01e7 53080000 		.4byte	.LASF30
 1083 01eb 05       		.byte	0x5
 1084 01ec DB       		.byte	0xdb
 1085 01ed D0000000 		.4byte	0xd0
 1086 01f1 04       		.byte	0x4
 1087 01f2 0C       		.uleb128 0xc
 1088 01f3 EC030000 		.4byte	.LASF31
 1089 01f7 05       		.byte	0x5
 1090 01f8 E0       		.byte	0xe0
 1091 01f9 6B000000 		.4byte	0x6b
 1092 01fd 06       		.byte	0x6
 1093 01fe 0C       		.uleb128 0xc
 1094 01ff 7F050000 		.4byte	.LASF32
 1095 0203 05       		.byte	0x5
 1096 0204 E5       		.byte	0xe5
 1097 0205 6B000000 		.4byte	0x6b
 1098 0209 07       		.byte	0x7
 1099 020a 0C       		.uleb128 0xc
 1100 020b 86030000 		.4byte	.LASF33
 1101 020f 05       		.byte	0x5
 1102 0210 EB       		.byte	0xeb
 1103 0211 6B000000 		.4byte	0x6b
 1104 0215 08       		.byte	0x8
 1105 0216 0C       		.uleb128 0xc
 1106 0217 0D050000 		.4byte	.LASF34
 1107 021b 05       		.byte	0x5
 1108 021c F1       		.byte	0xf1
 1109 021d 6B000000 		.4byte	0x6b
ARM GAS  C:\Users\Zhu\AppData\Local\Temp\ccMjsG6v.s 			page 50


 1110 0221 09       		.byte	0x9
 1111 0222 0C       		.uleb128 0xc
 1112 0223 C6030000 		.4byte	.LASF35
 1113 0227 05       		.byte	0x5
 1114 0228 F8       		.byte	0xf8
 1115 0229 DC000000 		.4byte	0xdc
 1116 022d 0A       		.byte	0xa
 1117 022e 0C       		.uleb128 0xc
 1118 022f 2F080000 		.4byte	.LASF36
 1119 0233 05       		.byte	0x5
 1120 0234 FF       		.byte	0xff
 1121 0235 AB010000 		.4byte	0x1ab
 1122 0239 0B       		.byte	0xb
 1123 023a 0F       		.uleb128 0xf
 1124 023b AD060000 		.4byte	.LASF37
 1125 023f 05       		.byte	0x5
 1126 0240 0401     		.2byte	0x104
 1127 0242 6B000000 		.4byte	0x6b
 1128 0246 0C       		.byte	0xc
 1129 0247 00       		.byte	0
 1130 0248 04       		.uleb128 0x4
 1131 0249 64080000 		.4byte	.LASF39
 1132 024d 05       		.byte	0x5
 1133 024e 0501     		.2byte	0x105
 1134 0250 C6010000 		.4byte	0x1c6
 1135 0254 10       		.uleb128 0x10
 1136 0255 10       		.byte	0x10
 1137 0256 05       		.byte	0x5
 1138 0257 0A01     		.2byte	0x10a
 1139 0259 ED020000 		.4byte	0x2ed
 1140 025d 11       		.uleb128 0x11
 1141 025e 63726300 		.ascii	"crc\000"
 1142 0262 05       		.byte	0x5
 1143 0263 0F01     		.2byte	0x10f
 1144 0265 77000000 		.4byte	0x77
 1145 0269 00       		.byte	0
 1146 026a 0F       		.uleb128 0xf
 1147 026b 5B040000 		.4byte	.LASF29
 1148 026f 05       		.byte	0x5
 1149 0270 1401     		.2byte	0x114
 1150 0272 77000000 		.4byte	0x77
 1151 0276 02       		.byte	0x2
 1152 0277 0F       		.uleb128 0xf
 1153 0278 53080000 		.4byte	.LASF30
 1154 027c 05       		.byte	0x5
 1155 027d 1901     		.2byte	0x119
 1156 027f D0000000 		.4byte	0xd0
 1157 0283 04       		.byte	0x4
 1158 0284 0F       		.uleb128 0xf
 1159 0285 EC030000 		.4byte	.LASF31
 1160 0289 05       		.byte	0x5
 1161 028a 1E01     		.2byte	0x11e
 1162 028c 6B000000 		.4byte	0x6b
 1163 0290 06       		.byte	0x6
 1164 0291 0F       		.uleb128 0xf
 1165 0292 7F050000 		.4byte	.LASF32
 1166 0296 05       		.byte	0x5
ARM GAS  C:\Users\Zhu\AppData\Local\Temp\ccMjsG6v.s 			page 51


 1167 0297 2301     		.2byte	0x123
 1168 0299 6B000000 		.4byte	0x6b
 1169 029d 07       		.byte	0x7
 1170 029e 0F       		.uleb128 0xf
 1171 029f 86030000 		.4byte	.LASF33
 1172 02a3 05       		.byte	0x5
 1173 02a4 2901     		.2byte	0x129
 1174 02a6 6B000000 		.4byte	0x6b
 1175 02aa 08       		.byte	0x8
 1176 02ab 0F       		.uleb128 0xf
 1177 02ac 0D050000 		.4byte	.LASF34
 1178 02b0 05       		.byte	0x5
 1179 02b1 2F01     		.2byte	0x12f
 1180 02b3 6B000000 		.4byte	0x6b
 1181 02b7 09       		.byte	0x9
 1182 02b8 0F       		.uleb128 0xf
 1183 02b9 C6030000 		.4byte	.LASF35
 1184 02bd 05       		.byte	0x5
 1185 02be 3601     		.2byte	0x136
 1186 02c0 DC000000 		.4byte	0xdc
 1187 02c4 0A       		.byte	0xa
 1188 02c5 0F       		.uleb128 0xf
 1189 02c6 2F080000 		.4byte	.LASF36
 1190 02ca 05       		.byte	0x5
 1191 02cb 3D01     		.2byte	0x13d
 1192 02cd AB010000 		.4byte	0x1ab
 1193 02d1 0B       		.byte	0xb
 1194 02d2 0F       		.uleb128 0xf
 1195 02d3 AD060000 		.4byte	.LASF37
 1196 02d7 05       		.byte	0x5
 1197 02d8 4201     		.2byte	0x142
 1198 02da 6B000000 		.4byte	0x6b
 1199 02de 0C       		.byte	0xc
 1200 02df 0F       		.uleb128 0xf
 1201 02e0 51000000 		.4byte	.LASF40
 1202 02e4 05       		.byte	0x5
 1203 02e5 4701     		.2byte	0x147
 1204 02e7 D0000000 		.4byte	0xd0
 1205 02eb 0E       		.byte	0xe
 1206 02ec 00       		.byte	0
 1207 02ed 04       		.uleb128 0x4
 1208 02ee 82080000 		.4byte	.LASF41
 1209 02f2 05       		.byte	0x5
 1210 02f3 4801     		.2byte	0x148
 1211 02f5 54020000 		.4byte	0x254
 1212 02f9 10       		.uleb128 0x10
 1213 02fa B8       		.byte	0xb8
 1214 02fb 05       		.byte	0x5
 1215 02fc 4E01     		.2byte	0x14e
 1216 02fe AC030000 		.4byte	0x3ac
 1217 0302 0F       		.uleb128 0xf
 1218 0303 17070000 		.4byte	.LASF42
 1219 0307 05       		.byte	0x5
 1220 0308 5301     		.2byte	0x153
 1221 030a 48020000 		.4byte	0x248
 1222 030e 00       		.byte	0
 1223 030f 0F       		.uleb128 0xf
ARM GAS  C:\Users\Zhu\AppData\Local\Temp\ccMjsG6v.s 			page 52


 1224 0310 1F070000 		.4byte	.LASF43
 1225 0314 05       		.byte	0x5
 1226 0315 5801     		.2byte	0x158
 1227 0317 48020000 		.4byte	0x248
 1228 031b 0E       		.byte	0xe
 1229 031c 0F       		.uleb128 0xf
 1230 031d 27070000 		.4byte	.LASF44
 1231 0321 05       		.byte	0x5
 1232 0322 5D01     		.2byte	0x15d
 1233 0324 48020000 		.4byte	0x248
 1234 0328 1C       		.byte	0x1c
 1235 0329 0F       		.uleb128 0xf
 1236 032a 2F070000 		.4byte	.LASF45
 1237 032e 05       		.byte	0x5
 1238 032f 6201     		.2byte	0x162
 1239 0331 48020000 		.4byte	0x248
 1240 0335 2A       		.byte	0x2a
 1241 0336 0F       		.uleb128 0xf
 1242 0337 37070000 		.4byte	.LASF46
 1243 033b 05       		.byte	0x5
 1244 033c 6701     		.2byte	0x167
 1245 033e 48020000 		.4byte	0x248
 1246 0342 38       		.byte	0x38
 1247 0343 0F       		.uleb128 0xf
 1248 0344 3F070000 		.4byte	.LASF47
 1249 0348 05       		.byte	0x5
 1250 0349 6C01     		.2byte	0x16c
 1251 034b 48020000 		.4byte	0x248
 1252 034f 46       		.byte	0x46
 1253 0350 0F       		.uleb128 0xf
 1254 0351 21050000 		.4byte	.LASF48
 1255 0355 05       		.byte	0x5
 1256 0356 7101     		.2byte	0x171
 1257 0358 48020000 		.4byte	0x248
 1258 035c 54       		.byte	0x54
 1259 035d 0F       		.uleb128 0xf
 1260 035e 5C070000 		.4byte	.LASF49
 1261 0362 05       		.byte	0x5
 1262 0363 7601     		.2byte	0x176
 1263 0365 48020000 		.4byte	0x248
 1264 0369 62       		.byte	0x62
 1265 036a 0F       		.uleb128 0xf
 1266 036b 64070000 		.4byte	.LASF50
 1267 036f 05       		.byte	0x5
 1268 0370 7B01     		.2byte	0x17b
 1269 0372 48020000 		.4byte	0x248
 1270 0376 70       		.byte	0x70
 1271 0377 0F       		.uleb128 0xf
 1272 0378 6C070000 		.4byte	.LASF51
 1273 037c 05       		.byte	0x5
 1274 037d 8001     		.2byte	0x180
 1275 037f 48020000 		.4byte	0x248
 1276 0383 7E       		.byte	0x7e
 1277 0384 0F       		.uleb128 0xf
 1278 0385 13080000 		.4byte	.LASF52
 1279 0389 05       		.byte	0x5
 1280 038a 8501     		.2byte	0x185
ARM GAS  C:\Users\Zhu\AppData\Local\Temp\ccMjsG6v.s 			page 53


 1281 038c 48020000 		.4byte	0x248
 1282 0390 8C       		.byte	0x8c
 1283 0391 0F       		.uleb128 0xf
 1284 0392 4C030000 		.4byte	.LASF53
 1285 0396 05       		.byte	0x5
 1286 0397 8A01     		.2byte	0x18a
 1287 0399 48020000 		.4byte	0x248
 1288 039d 9A       		.byte	0x9a
 1289 039e 0F       		.uleb128 0xf
 1290 039f 53090000 		.4byte	.LASF54
 1291 03a3 05       		.byte	0x5
 1292 03a4 8F01     		.2byte	0x18f
 1293 03a6 ED020000 		.4byte	0x2ed
 1294 03aa A8       		.byte	0xa8
 1295 03ab 00       		.byte	0
 1296 03ac 04       		.uleb128 0x4
 1297 03ad 30010000 		.4byte	.LASF55
 1298 03b1 05       		.byte	0x5
 1299 03b2 9001     		.2byte	0x190
 1300 03b4 F9020000 		.4byte	0x2f9
 1301 03b8 10       		.uleb128 0x10
 1302 03b9 0C       		.byte	0xc
 1303 03ba 05       		.byte	0x5
 1304 03bb 9601     		.2byte	0x196
 1305 03bd 1D040000 		.4byte	0x41d
 1306 03c1 11       		.uleb128 0x11
 1307 03c2 72617700 		.ascii	"raw\000"
 1308 03c6 05       		.byte	0x5
 1309 03c7 9B01     		.2byte	0x19b
 1310 03c9 1D040000 		.4byte	0x41d
 1311 03cd 00       		.byte	0
 1312 03ce 0F       		.uleb128 0xf
 1313 03cf 6A090000 		.4byte	.LASF56
 1314 03d3 05       		.byte	0x5
 1315 03d4 A001     		.2byte	0x1a0
 1316 03d6 1D040000 		.4byte	0x41d
 1317 03da 02       		.byte	0x2
 1318 03db 0F       		.uleb128 0xf
 1319 03dc 1B090000 		.4byte	.LASF57
 1320 03e0 05       		.byte	0x5
 1321 03e1 A501     		.2byte	0x1a5
 1322 03e3 1D040000 		.4byte	0x41d
 1323 03e7 04       		.byte	0x4
 1324 03e8 0F       		.uleb128 0xf
 1325 03e9 5C080000 		.4byte	.LASF58
 1326 03ed 05       		.byte	0x5
 1327 03ee AB01     		.2byte	0x1ab
 1328 03f0 AB010000 		.4byte	0x1ab
 1329 03f4 06       		.byte	0x6
 1330 03f5 0F       		.uleb128 0xf
 1331 03f6 09070000 		.4byte	.LASF59
 1332 03fa 05       		.byte	0x5
 1333 03fb B001     		.2byte	0x1b0
 1334 03fd D0000000 		.4byte	0xd0
 1335 0401 08       		.byte	0x8
 1336 0402 0F       		.uleb128 0xf
 1337 0403 AD090000 		.4byte	.LASF60
ARM GAS  C:\Users\Zhu\AppData\Local\Temp\ccMjsG6v.s 			page 54


 1338 0407 05       		.byte	0x5
 1339 0408 B501     		.2byte	0x1b5
 1340 040a 2D040000 		.4byte	0x42d
 1341 040e 0A       		.byte	0xa
 1342 040f 0F       		.uleb128 0xf
 1343 0410 CE040000 		.4byte	.LASF61
 1344 0414 05       		.byte	0x5
 1345 0415 BA01     		.2byte	0x1ba
 1346 0417 AB010000 		.4byte	0x1ab
 1347 041b 0B       		.byte	0xb
 1348 041c 00       		.byte	0
 1349 041d 0D       		.uleb128 0xd
 1350 041e 77000000 		.4byte	0x77
 1351 0422 2D040000 		.4byte	0x42d
 1352 0426 0E       		.uleb128 0xe
 1353 0427 C7000000 		.4byte	0xc7
 1354 042b 00       		.byte	0
 1355 042c 00       		.byte	0
 1356 042d 0D       		.uleb128 0xd
 1357 042e DC000000 		.4byte	0xdc
 1358 0432 3D040000 		.4byte	0x43d
 1359 0436 0E       		.uleb128 0xe
 1360 0437 C7000000 		.4byte	0xc7
 1361 043b 00       		.byte	0
 1362 043c 00       		.byte	0
 1363 043d 04       		.uleb128 0x4
 1364 043e 61030000 		.4byte	.LASF62
 1365 0442 05       		.byte	0x5
 1366 0443 BB01     		.2byte	0x1bb
 1367 0445 B8030000 		.4byte	0x3b8
 1368 0449 10       		.uleb128 0x10
 1369 044a 9C       		.byte	0x9c
 1370 044b 05       		.byte	0x5
 1371 044c C101     		.2byte	0x1c1
 1372 044e FC040000 		.4byte	0x4fc
 1373 0452 0F       		.uleb128 0xf
 1374 0453 17070000 		.4byte	.LASF42
 1375 0457 05       		.byte	0x5
 1376 0458 C601     		.2byte	0x1c6
 1377 045a FC040000 		.4byte	0x4fc
 1378 045e 00       		.byte	0
 1379 045f 0F       		.uleb128 0xf
 1380 0460 1F070000 		.4byte	.LASF43
 1381 0464 05       		.byte	0x5
 1382 0465 CB01     		.2byte	0x1cb
 1383 0467 FC040000 		.4byte	0x4fc
 1384 046b 0C       		.byte	0xc
 1385 046c 0F       		.uleb128 0xf
 1386 046d 27070000 		.4byte	.LASF44
 1387 0471 05       		.byte	0x5
 1388 0472 D001     		.2byte	0x1d0
 1389 0474 FC040000 		.4byte	0x4fc
 1390 0478 18       		.byte	0x18
 1391 0479 0F       		.uleb128 0xf
 1392 047a 2F070000 		.4byte	.LASF45
 1393 047e 05       		.byte	0x5
 1394 047f D501     		.2byte	0x1d5
ARM GAS  C:\Users\Zhu\AppData\Local\Temp\ccMjsG6v.s 			page 55


 1395 0481 FC040000 		.4byte	0x4fc
 1396 0485 24       		.byte	0x24
 1397 0486 0F       		.uleb128 0xf
 1398 0487 37070000 		.4byte	.LASF46
 1399 048b 05       		.byte	0x5
 1400 048c DA01     		.2byte	0x1da
 1401 048e FC040000 		.4byte	0x4fc
 1402 0492 30       		.byte	0x30
 1403 0493 0F       		.uleb128 0xf
 1404 0494 3F070000 		.4byte	.LASF47
 1405 0498 05       		.byte	0x5
 1406 0499 DF01     		.2byte	0x1df
 1407 049b FC040000 		.4byte	0x4fc
 1408 049f 3C       		.byte	0x3c
 1409 04a0 0F       		.uleb128 0xf
 1410 04a1 21050000 		.4byte	.LASF48
 1411 04a5 05       		.byte	0x5
 1412 04a6 E401     		.2byte	0x1e4
 1413 04a8 FC040000 		.4byte	0x4fc
 1414 04ac 48       		.byte	0x48
 1415 04ad 0F       		.uleb128 0xf
 1416 04ae 5C070000 		.4byte	.LASF49
 1417 04b2 05       		.byte	0x5
 1418 04b3 E901     		.2byte	0x1e9
 1419 04b5 FC040000 		.4byte	0x4fc
 1420 04b9 54       		.byte	0x54
 1421 04ba 0F       		.uleb128 0xf
 1422 04bb 64070000 		.4byte	.LASF50
 1423 04bf 05       		.byte	0x5
 1424 04c0 EE01     		.2byte	0x1ee
 1425 04c2 FC040000 		.4byte	0x4fc
 1426 04c6 60       		.byte	0x60
 1427 04c7 0F       		.uleb128 0xf
 1428 04c8 6C070000 		.4byte	.LASF51
 1429 04cc 05       		.byte	0x5
 1430 04cd F301     		.2byte	0x1f3
 1431 04cf FC040000 		.4byte	0x4fc
 1432 04d3 6C       		.byte	0x6c
 1433 04d4 0F       		.uleb128 0xf
 1434 04d5 13080000 		.4byte	.LASF52
 1435 04d9 05       		.byte	0x5
 1436 04da F801     		.2byte	0x1f8
 1437 04dc FC040000 		.4byte	0x4fc
 1438 04e0 78       		.byte	0x78
 1439 04e1 0F       		.uleb128 0xf
 1440 04e2 4C030000 		.4byte	.LASF53
 1441 04e6 05       		.byte	0x5
 1442 04e7 FD01     		.2byte	0x1fd
 1443 04e9 FC040000 		.4byte	0x4fc
 1444 04ed 84       		.byte	0x84
 1445 04ee 0F       		.uleb128 0xf
 1446 04ef 53090000 		.4byte	.LASF54
 1447 04f3 05       		.byte	0x5
 1448 04f4 0202     		.2byte	0x202
 1449 04f6 FC040000 		.4byte	0x4fc
 1450 04fa 90       		.byte	0x90
 1451 04fb 00       		.byte	0
ARM GAS  C:\Users\Zhu\AppData\Local\Temp\ccMjsG6v.s 			page 56


 1452 04fc 0D       		.uleb128 0xd
 1453 04fd 3D040000 		.4byte	0x43d
 1454 0501 0C050000 		.4byte	0x50c
 1455 0505 0E       		.uleb128 0xe
 1456 0506 C7000000 		.4byte	0xc7
 1457 050a 00       		.byte	0
 1458 050b 00       		.byte	0
 1459 050c 04       		.uleb128 0x4
 1460 050d D8090000 		.4byte	.LASF63
 1461 0511 05       		.byte	0x5
 1462 0512 0302     		.2byte	0x203
 1463 0514 49040000 		.4byte	0x449
 1464 0518 10       		.uleb128 0x10
 1465 0519 14       		.byte	0x14
 1466 051a 05       		.byte	0x5
 1467 051b 0902     		.2byte	0x209
 1468 051d BE050000 		.4byte	0x5be
 1469 0521 0F       		.uleb128 0xf
 1470 0522 D1030000 		.4byte	.LASF64
 1471 0526 05       		.byte	0x5
 1472 0527 0E02     		.2byte	0x20e
 1473 0529 83000000 		.4byte	0x83
 1474 052d 00       		.byte	0
 1475 052e 0F       		.uleb128 0xf
 1476 052f D3070000 		.4byte	.LASF65
 1477 0533 05       		.byte	0x5
 1478 0534 1302     		.2byte	0x213
 1479 0536 1D040000 		.4byte	0x41d
 1480 053a 04       		.byte	0x4
 1481 053b 0F       		.uleb128 0xf
 1482 053c FE070000 		.4byte	.LASF66
 1483 0540 05       		.byte	0x5
 1484 0541 1802     		.2byte	0x218
 1485 0543 77000000 		.4byte	0x77
 1486 0547 06       		.byte	0x6
 1487 0548 0F       		.uleb128 0xf
 1488 0549 3C040000 		.4byte	.LASF67
 1489 054d 05       		.byte	0x5
 1490 054e 1D02     		.2byte	0x21d
 1491 0550 77000000 		.4byte	0x77
 1492 0554 08       		.byte	0x8
 1493 0555 0F       		.uleb128 0xf
 1494 0556 37080000 		.4byte	.LASF68
 1495 055a 05       		.byte	0x5
 1496 055b 2302     		.2byte	0x223
 1497 055d 77000000 		.4byte	0x77
 1498 0561 0A       		.byte	0xa
 1499 0562 0F       		.uleb128 0xf
 1500 0563 E9070000 		.4byte	.LASF69
 1501 0567 05       		.byte	0x5
 1502 0568 2902     		.2byte	0x229
 1503 056a 6B000000 		.4byte	0x6b
 1504 056e 0C       		.byte	0xc
 1505 056f 0F       		.uleb128 0xf
 1506 0570 A3070000 		.4byte	.LASF70
 1507 0574 05       		.byte	0x5
 1508 0575 2E02     		.2byte	0x22e
ARM GAS  C:\Users\Zhu\AppData\Local\Temp\ccMjsG6v.s 			page 57


 1509 0577 6B000000 		.4byte	0x6b
 1510 057b 0D       		.byte	0xd
 1511 057c 0F       		.uleb128 0xf
 1512 057d 4E040000 		.4byte	.LASF71
 1513 0581 05       		.byte	0x5
 1514 0582 3302     		.2byte	0x233
 1515 0584 6B000000 		.4byte	0x6b
 1516 0588 0E       		.byte	0xe
 1517 0589 0F       		.uleb128 0xf
 1518 058a A1020000 		.4byte	.LASF72
 1519 058e 05       		.byte	0x5
 1520 058f 3802     		.2byte	0x238
 1521 0591 6B000000 		.4byte	0x6b
 1522 0595 0F       		.byte	0xf
 1523 0596 0F       		.uleb128 0xf
 1524 0597 72050000 		.4byte	.LASF73
 1525 059b 05       		.byte	0x5
 1526 059c 3D02     		.2byte	0x23d
 1527 059e 6B000000 		.4byte	0x6b
 1528 05a2 10       		.byte	0x10
 1529 05a3 0F       		.uleb128 0xf
 1530 05a4 82090000 		.4byte	.LASF74
 1531 05a8 05       		.byte	0x5
 1532 05a9 4202     		.2byte	0x242
 1533 05ab 6B000000 		.4byte	0x6b
 1534 05af 11       		.byte	0x11
 1535 05b0 0F       		.uleb128 0xf
 1536 05b1 07090000 		.4byte	.LASF75
 1537 05b5 05       		.byte	0x5
 1538 05b6 4702     		.2byte	0x247
 1539 05b8 6B000000 		.4byte	0x6b
 1540 05bc 12       		.byte	0x12
 1541 05bd 00       		.byte	0
 1542 05be 04       		.uleb128 0x4
 1543 05bf 1E040000 		.4byte	.LASF76
 1544 05c3 05       		.byte	0x5
 1545 05c4 4802     		.2byte	0x248
 1546 05c6 18050000 		.4byte	0x518
 1547 05ca 10       		.uleb128 0x10
 1548 05cb 0D       		.byte	0xd
 1549 05cc 05       		.byte	0x5
 1550 05cd 4E02     		.2byte	0x24e
 1551 05cf 7D060000 		.4byte	0x67d
 1552 05d3 0F       		.uleb128 0xf
 1553 05d4 17070000 		.4byte	.LASF42
 1554 05d8 05       		.byte	0x5
 1555 05d9 5302     		.2byte	0x253
 1556 05db AB010000 		.4byte	0x1ab
 1557 05df 00       		.byte	0
 1558 05e0 0F       		.uleb128 0xf
 1559 05e1 1F070000 		.4byte	.LASF43
 1560 05e5 05       		.byte	0x5
 1561 05e6 5702     		.2byte	0x257
 1562 05e8 AB010000 		.4byte	0x1ab
 1563 05ec 01       		.byte	0x1
 1564 05ed 0F       		.uleb128 0xf
 1565 05ee 27070000 		.4byte	.LASF44
ARM GAS  C:\Users\Zhu\AppData\Local\Temp\ccMjsG6v.s 			page 58


 1566 05f2 05       		.byte	0x5
 1567 05f3 5B02     		.2byte	0x25b
 1568 05f5 AB010000 		.4byte	0x1ab
 1569 05f9 02       		.byte	0x2
 1570 05fa 0F       		.uleb128 0xf
 1571 05fb 2F070000 		.4byte	.LASF45
 1572 05ff 05       		.byte	0x5
 1573 0600 5F02     		.2byte	0x25f
 1574 0602 AB010000 		.4byte	0x1ab
 1575 0606 03       		.byte	0x3
 1576 0607 0F       		.uleb128 0xf
 1577 0608 37070000 		.4byte	.LASF46
 1578 060c 05       		.byte	0x5
 1579 060d 6302     		.2byte	0x263
 1580 060f AB010000 		.4byte	0x1ab
 1581 0613 04       		.byte	0x4
 1582 0614 0F       		.uleb128 0xf
 1583 0615 3F070000 		.4byte	.LASF47
 1584 0619 05       		.byte	0x5
 1585 061a 6702     		.2byte	0x267
 1586 061c AB010000 		.4byte	0x1ab
 1587 0620 05       		.byte	0x5
 1588 0621 0F       		.uleb128 0xf
 1589 0622 21050000 		.4byte	.LASF48
 1590 0626 05       		.byte	0x5
 1591 0627 6B02     		.2byte	0x26b
 1592 0629 AB010000 		.4byte	0x1ab
 1593 062d 06       		.byte	0x6
 1594 062e 0F       		.uleb128 0xf
 1595 062f 5C070000 		.4byte	.LASF49
 1596 0633 05       		.byte	0x5
 1597 0634 6F02     		.2byte	0x26f
 1598 0636 AB010000 		.4byte	0x1ab
 1599 063a 07       		.byte	0x7
 1600 063b 0F       		.uleb128 0xf
 1601 063c 64070000 		.4byte	.LASF50
 1602 0640 05       		.byte	0x5
 1603 0641 7302     		.2byte	0x273
 1604 0643 AB010000 		.4byte	0x1ab
 1605 0647 08       		.byte	0x8
 1606 0648 0F       		.uleb128 0xf
 1607 0649 6C070000 		.4byte	.LASF51
 1608 064d 05       		.byte	0x5
 1609 064e 7702     		.2byte	0x277
 1610 0650 AB010000 		.4byte	0x1ab
 1611 0654 09       		.byte	0x9
 1612 0655 0F       		.uleb128 0xf
 1613 0656 13080000 		.4byte	.LASF52
 1614 065a 05       		.byte	0x5
 1615 065b 7B02     		.2byte	0x27b
 1616 065d AB010000 		.4byte	0x1ab
 1617 0661 0A       		.byte	0xa
 1618 0662 0F       		.uleb128 0xf
 1619 0663 4C030000 		.4byte	.LASF53
 1620 0667 05       		.byte	0x5
 1621 0668 7F02     		.2byte	0x27f
 1622 066a AB010000 		.4byte	0x1ab
ARM GAS  C:\Users\Zhu\AppData\Local\Temp\ccMjsG6v.s 			page 59


 1623 066e 0B       		.byte	0xb
 1624 066f 0F       		.uleb128 0xf
 1625 0670 53090000 		.4byte	.LASF54
 1626 0674 05       		.byte	0x5
 1627 0675 8302     		.2byte	0x283
 1628 0677 AB010000 		.4byte	0x1ab
 1629 067b 0C       		.byte	0xc
 1630 067c 00       		.byte	0
 1631 067d 04       		.uleb128 0x4
 1632 067e F4000000 		.4byte	.LASF77
 1633 0682 05       		.byte	0x5
 1634 0683 8402     		.2byte	0x284
 1635 0685 CA050000 		.4byte	0x5ca
 1636 0689 12       		.uleb128 0x12
 1637 068a B001     		.2byte	0x1b0
 1638 068c 05       		.byte	0x5
 1639 068d 8902     		.2byte	0x289
 1640 068f B8070000 		.4byte	0x7b8
 1641 0693 0F       		.uleb128 0xf
 1642 0694 6A060000 		.4byte	.LASF78
 1643 0698 05       		.byte	0x5
 1644 0699 9002     		.2byte	0x290
 1645 069b 77000000 		.4byte	0x77
 1646 069f 00       		.byte	0
 1647 06a0 0F       		.uleb128 0xf
 1648 06a1 C6090000 		.4byte	.LASF79
 1649 06a5 05       		.byte	0x5
 1650 06a6 9502     		.2byte	0x295
 1651 06a8 77000000 		.4byte	0x77
 1652 06ac 02       		.byte	0x2
 1653 06ad 0F       		.uleb128 0xf
 1654 06ae D6000000 		.4byte	.LASF80
 1655 06b2 05       		.byte	0x5
 1656 06b3 9A02     		.2byte	0x29a
 1657 06b5 77000000 		.4byte	0x77
 1658 06b9 04       		.byte	0x4
 1659 06ba 0F       		.uleb128 0xf
 1660 06bb 0E070000 		.4byte	.LASF81
 1661 06bf 05       		.byte	0x5
 1662 06c0 A002     		.2byte	0x2a0
 1663 06c2 77000000 		.4byte	0x77
 1664 06c6 06       		.byte	0x6
 1665 06c7 0F       		.uleb128 0xf
 1666 06c8 AD000000 		.4byte	.LASF82
 1667 06cc 05       		.byte	0x5
 1668 06cd A502     		.2byte	0x2a5
 1669 06cf 77000000 		.4byte	0x77
 1670 06d3 08       		.byte	0x8
 1671 06d4 0F       		.uleb128 0xf
 1672 06d5 66040000 		.4byte	.LASF83
 1673 06d9 05       		.byte	0x5
 1674 06da AA02     		.2byte	0x2aa
 1675 06dc B0000000 		.4byte	0xb0
 1676 06e0 0C       		.byte	0xc
 1677 06e1 0F       		.uleb128 0xf
 1678 06e2 FE060000 		.4byte	.LASF84
 1679 06e6 05       		.byte	0x5
ARM GAS  C:\Users\Zhu\AppData\Local\Temp\ccMjsG6v.s 			page 60


 1680 06e7 B002     		.2byte	0x2b0
 1681 06e9 B8070000 		.4byte	0x7b8
 1682 06ed 10       		.byte	0x10
 1683 06ee 0F       		.uleb128 0xf
 1684 06ef 74010000 		.4byte	.LASF85
 1685 06f3 05       		.byte	0x5
 1686 06f4 B602     		.2byte	0x2b6
 1687 06f6 B8070000 		.4byte	0x7b8
 1688 06fa 14       		.byte	0x14
 1689 06fb 0F       		.uleb128 0xf
 1690 06fc F3070000 		.4byte	.LASF86
 1691 0700 05       		.byte	0x5
 1692 0701 BD02     		.2byte	0x2bd
 1693 0703 B8070000 		.4byte	0x7b8
 1694 0707 18       		.byte	0x18
 1695 0708 0F       		.uleb128 0xf
 1696 0709 89060000 		.4byte	.LASF87
 1697 070d 05       		.byte	0x5
 1698 070e CD02     		.2byte	0x2cd
 1699 0710 C8070000 		.4byte	0x7c8
 1700 0714 1C       		.byte	0x1c
 1701 0715 0F       		.uleb128 0xf
 1702 0716 88050000 		.4byte	.LASF88
 1703 071a 05       		.byte	0x5
 1704 071b D302     		.2byte	0x2d3
 1705 071d 77000000 		.4byte	0x77
 1706 0721 2A       		.byte	0x2a
 1707 0722 0F       		.uleb128 0xf
 1708 0723 57030000 		.4byte	.LASF89
 1709 0727 05       		.byte	0x5
 1710 0728 D802     		.2byte	0x2d8
 1711 072a 6B000000 		.4byte	0x6b
 1712 072e 2C       		.byte	0x2c
 1713 072f 0F       		.uleb128 0xf
 1714 0730 40000000 		.4byte	.LASF90
 1715 0734 05       		.byte	0x5
 1716 0735 DD02     		.2byte	0x2dd
 1717 0737 77000000 		.4byte	0x77
 1718 073b 2E       		.byte	0x2e
 1719 073c 0F       		.uleb128 0xf
 1720 073d 99090000 		.4byte	.LASF91
 1721 0741 05       		.byte	0x5
 1722 0742 E202     		.2byte	0x2e2
 1723 0744 77000000 		.4byte	0x77
 1724 0748 30       		.byte	0x30
 1725 0749 0F       		.uleb128 0xf
 1726 074a 18050000 		.4byte	.LASF92
 1727 074e 05       		.byte	0x5
 1728 074f E702     		.2byte	0x2e7
 1729 0751 AC030000 		.4byte	0x3ac
 1730 0755 32       		.byte	0x32
 1731 0756 0F       		.uleb128 0xf
 1732 0757 E4010000 		.4byte	.LASF93
 1733 075b 05       		.byte	0x5
 1734 075c EC02     		.2byte	0x2ec
 1735 075e 0C050000 		.4byte	0x50c
 1736 0762 EA       		.byte	0xea
ARM GAS  C:\Users\Zhu\AppData\Local\Temp\ccMjsG6v.s 			page 61


 1737 0763 13       		.uleb128 0x13
 1738 0764 1B060000 		.4byte	.LASF94
 1739 0768 05       		.byte	0x5
 1740 0769 F102     		.2byte	0x2f1
 1741 076b BE050000 		.4byte	0x5be
 1742 076f 8801     		.2byte	0x188
 1743 0771 13       		.uleb128 0x13
 1744 0772 80030000 		.4byte	.LASF95
 1745 0776 05       		.byte	0x5
 1746 0777 F602     		.2byte	0x2f6
 1747 0779 7D060000 		.4byte	0x67d
 1748 077d 9C01     		.2byte	0x19c
 1749 077f 13       		.uleb128 0x13
 1750 0780 6E000000 		.4byte	.LASF96
 1751 0784 05       		.byte	0x5
 1752 0785 FB02     		.2byte	0x2fb
 1753 0787 6B000000 		.4byte	0x6b
 1754 078b A901     		.2byte	0x1a9
 1755 078d 13       		.uleb128 0x13
 1756 078e 55020000 		.4byte	.LASF97
 1757 0792 05       		.byte	0x5
 1758 0793 0003     		.2byte	0x300
 1759 0795 6B000000 		.4byte	0x6b
 1760 0799 AA01     		.2byte	0x1aa
 1761 079b 13       		.uleb128 0x13
 1762 079c 57060000 		.4byte	.LASF98
 1763 07a0 05       		.byte	0x5
 1764 07a1 0503     		.2byte	0x305
 1765 07a3 77000000 		.4byte	0x77
 1766 07a7 AC01     		.2byte	0x1ac
 1767 07a9 13       		.uleb128 0x13
 1768 07aa 5B050000 		.4byte	.LASF99
 1769 07ae 05       		.byte	0x5
 1770 07af 0A03     		.2byte	0x30a
 1771 07b1 1D040000 		.4byte	0x41d
 1772 07b5 AE01     		.2byte	0x1ae
 1773 07b7 00       		.byte	0
 1774 07b8 0D       		.uleb128 0xd
 1775 07b9 83000000 		.4byte	0x83
 1776 07bd C8070000 		.4byte	0x7c8
 1777 07c1 0E       		.uleb128 0xe
 1778 07c2 C7000000 		.4byte	0xc7
 1779 07c6 00       		.byte	0
 1780 07c7 00       		.byte	0
 1781 07c8 0D       		.uleb128 0xd
 1782 07c9 6B000000 		.4byte	0x6b
 1783 07cd D8070000 		.4byte	0x7d8
 1784 07d1 0E       		.uleb128 0xe
 1785 07d2 C7000000 		.4byte	0xc7
 1786 07d6 0C       		.byte	0xc
 1787 07d7 00       		.byte	0
 1788 07d8 04       		.uleb128 0x4
 1789 07d9 C4060000 		.4byte	.LASF100
 1790 07dd 05       		.byte	0x5
 1791 07de 0B03     		.2byte	0x30b
 1792 07e0 89060000 		.4byte	0x689
 1793 07e4 10       		.uleb128 0x10
ARM GAS  C:\Users\Zhu\AppData\Local\Temp\ccMjsG6v.s 			page 62


 1794 07e5 20       		.byte	0x20
 1795 07e6 05       		.byte	0x5
 1796 07e7 7703     		.2byte	0x377
 1797 07e9 70080000 		.4byte	0x870
 1798 07ed 0F       		.uleb128 0xf
 1799 07ee 8C090000 		.4byte	.LASF101
 1800 07f2 05       		.byte	0x5
 1801 07f3 8003     		.2byte	0x380
 1802 07f5 70080000 		.4byte	0x870
 1803 07f9 00       		.byte	0
 1804 07fa 0F       		.uleb128 0xf
 1805 07fb E3080000 		.4byte	.LASF102
 1806 07ff 05       		.byte	0x5
 1807 0800 8703     		.2byte	0x387
 1808 0802 CE000000 		.4byte	0xce
 1809 0806 04       		.byte	0x4
 1810 0807 0F       		.uleb128 0xf
 1811 0808 73060000 		.4byte	.LASF103
 1812 080c 05       		.byte	0x5
 1813 080d 8D03     		.2byte	0x38d
 1814 080f 77080000 		.4byte	0x877
 1815 0813 08       		.byte	0x8
 1816 0814 0F       		.uleb128 0xf
 1817 0815 E1050000 		.4byte	.LASF104
 1818 0819 05       		.byte	0x5
 1819 081a 9303     		.2byte	0x393
 1820 081c CE000000 		.4byte	0xce
 1821 0820 0C       		.byte	0xc
 1822 0821 0F       		.uleb128 0xf
 1823 0822 43080000 		.4byte	.LASF105
 1824 0826 05       		.byte	0x5
 1825 0827 9A03     		.2byte	0x39a
 1826 0829 7D080000 		.4byte	0x87d
 1827 082d 10       		.byte	0x10
 1828 082e 0F       		.uleb128 0xf
 1829 082f D6080000 		.4byte	.LASF106
 1830 0833 05       		.byte	0x5
 1831 0834 9F03     		.2byte	0x39f
 1832 0836 83000000 		.4byte	0x83
 1833 083a 14       		.byte	0x14
 1834 083b 0F       		.uleb128 0xf
 1835 083c E0030000 		.4byte	.LASF107
 1836 0840 05       		.byte	0x5
 1837 0841 A603     		.2byte	0x3a6
 1838 0843 77000000 		.4byte	0x77
 1839 0847 18       		.byte	0x18
 1840 0848 0F       		.uleb128 0xf
 1841 0849 65020000 		.4byte	.LASF108
 1842 084d 05       		.byte	0x5
 1843 084e AD03     		.2byte	0x3ad
 1844 0850 6B000000 		.4byte	0x6b
 1845 0854 1A       		.byte	0x1a
 1846 0855 0F       		.uleb128 0xf
 1847 0856 05050000 		.4byte	.LASF109
 1848 085a 05       		.byte	0x5
 1849 085b B703     		.2byte	0x3b7
 1850 085d 6B000000 		.4byte	0x6b
ARM GAS  C:\Users\Zhu\AppData\Local\Temp\ccMjsG6v.s 			page 63


 1851 0861 1B       		.byte	0x1b
 1852 0862 0F       		.uleb128 0xf
 1853 0863 3F050000 		.4byte	.LASF110
 1854 0867 05       		.byte	0x5
 1855 0868 BC03     		.2byte	0x3bc
 1856 086a 7D080000 		.4byte	0x87d
 1857 086e 1C       		.byte	0x1c
 1858 086f 00       		.byte	0
 1859 0870 14       		.uleb128 0x14
 1860 0871 04       		.byte	0x4
 1861 0872 76080000 		.4byte	0x876
 1862 0876 15       		.uleb128 0x15
 1863 0877 14       		.uleb128 0x14
 1864 0878 04       		.byte	0x4
 1865 0879 3D040000 		.4byte	0x43d
 1866 087d 14       		.uleb128 0x14
 1867 087e 04       		.byte	0x4
 1868 087f 6B000000 		.4byte	0x6b
 1869 0883 04       		.uleb128 0x4
 1870 0884 AD030000 		.4byte	.LASF111
 1871 0888 05       		.byte	0x5
 1872 0889 BD03     		.2byte	0x3bd
 1873 088b E4070000 		.4byte	0x7e4
 1874 088f 12       		.uleb128 0x12
 1875 0890 A001     		.2byte	0x1a0
 1876 0892 05       		.byte	0x5
 1877 0893 C303     		.2byte	0x3c3
 1878 0895 A7080000 		.4byte	0x8a7
 1879 0899 0F       		.uleb128 0xf
 1880 089a F5090000 		.4byte	.LASF112
 1881 089e 05       		.byte	0x5
 1882 089f C803     		.2byte	0x3c8
 1883 08a1 A7080000 		.4byte	0x8a7
 1884 08a5 00       		.byte	0
 1885 08a6 00       		.byte	0
 1886 08a7 0D       		.uleb128 0xd
 1887 08a8 83080000 		.4byte	0x883
 1888 08ac B7080000 		.4byte	0x8b7
 1889 08b0 0E       		.uleb128 0xe
 1890 08b1 C7000000 		.4byte	0xc7
 1891 08b5 0C       		.byte	0xc
 1892 08b6 00       		.byte	0
 1893 08b7 04       		.uleb128 0x4
 1894 08b8 29050000 		.4byte	.LASF113
 1895 08bc 05       		.byte	0x5
 1896 08bd C903     		.2byte	0x3c9
 1897 08bf 8F080000 		.4byte	0x88f
 1898 08c3 10       		.uleb128 0x10
 1899 08c4 0C       		.byte	0xc
 1900 08c5 05       		.byte	0x5
 1901 08c6 FE03     		.2byte	0x3fe
 1902 08c8 F4080000 		.4byte	0x8f4
 1903 08cc 0F       		.uleb128 0xf
 1904 08cd 10090000 		.4byte	.LASF114
 1905 08d1 05       		.byte	0x5
 1906 08d2 0304     		.2byte	0x403
 1907 08d4 77000000 		.4byte	0x77
ARM GAS  C:\Users\Zhu\AppData\Local\Temp\ccMjsG6v.s 			page 64


 1908 08d8 00       		.byte	0
 1909 08d9 0F       		.uleb128 0xf
 1910 08da 24060000 		.4byte	.LASF115
 1911 08de 05       		.byte	0x5
 1912 08df 0904     		.2byte	0x409
 1913 08e1 F4080000 		.4byte	0x8f4
 1914 08e5 02       		.byte	0x2
 1915 08e6 0F       		.uleb128 0xf
 1916 08e7 7E060000 		.4byte	.LASF116
 1917 08eb 05       		.byte	0x5
 1918 08ec 0E04     		.2byte	0x40e
 1919 08ee 04090000 		.4byte	0x904
 1920 08f2 06       		.byte	0x6
 1921 08f3 00       		.byte	0
 1922 08f4 0D       		.uleb128 0xd
 1923 08f5 77000000 		.4byte	0x77
 1924 08f9 04090000 		.4byte	0x904
 1925 08fd 0E       		.uleb128 0xe
 1926 08fe C7000000 		.4byte	0xc7
 1927 0902 01       		.byte	0x1
 1928 0903 00       		.byte	0
 1929 0904 0D       		.uleb128 0xd
 1930 0905 77000000 		.4byte	0x77
 1931 0909 14090000 		.4byte	0x914
 1932 090d 0E       		.uleb128 0xe
 1933 090e C7000000 		.4byte	0xc7
 1934 0912 02       		.byte	0x2
 1935 0913 00       		.byte	0
 1936 0914 04       		.uleb128 0x4
 1937 0915 74070000 		.4byte	.LASF117
 1938 0919 05       		.byte	0x5
 1939 091a 0F04     		.2byte	0x40f
 1940 091c C3080000 		.4byte	0x8c3
 1941 0920 10       		.uleb128 0x10
 1942 0921 0C       		.byte	0xc
 1943 0922 05       		.byte	0x5
 1944 0923 1404     		.2byte	0x414
 1945 0925 51090000 		.4byte	0x951
 1946 0929 0F       		.uleb128 0xf
 1947 092a 10090000 		.4byte	.LASF114
 1948 092e 05       		.byte	0x5
 1949 092f 1904     		.2byte	0x419
 1950 0931 77000000 		.4byte	0x77
 1951 0935 00       		.byte	0
 1952 0936 0F       		.uleb128 0xf
 1953 0937 24060000 		.4byte	.LASF115
 1954 093b 05       		.byte	0x5
 1955 093c 1E04     		.2byte	0x41e
 1956 093e F4080000 		.4byte	0x8f4
 1957 0942 02       		.byte	0x2
 1958 0943 0F       		.uleb128 0xf
 1959 0944 7E060000 		.4byte	.LASF116
 1960 0948 05       		.byte	0x5
 1961 0949 2304     		.2byte	0x423
 1962 094b 04090000 		.4byte	0x904
 1963 094f 06       		.byte	0x6
 1964 0950 00       		.byte	0
ARM GAS  C:\Users\Zhu\AppData\Local\Temp\ccMjsG6v.s 			page 65


 1965 0951 04       		.uleb128 0x4
 1966 0952 B1070000 		.4byte	.LASF118
 1967 0956 05       		.byte	0x5
 1968 0957 2404     		.2byte	0x424
 1969 0959 20090000 		.4byte	0x920
 1970 095d 10       		.uleb128 0x10
 1971 095e 0C       		.byte	0xc
 1972 095f 05       		.byte	0x5
 1973 0960 2904     		.2byte	0x429
 1974 0962 74090000 		.4byte	0x974
 1975 0966 0F       		.uleb128 0xf
 1976 0967 3D030000 		.4byte	.LASF119
 1977 096b 05       		.byte	0x5
 1978 096c 2E04     		.2byte	0x42e
 1979 096e 74090000 		.4byte	0x974
 1980 0972 00       		.byte	0
 1981 0973 00       		.byte	0
 1982 0974 0D       		.uleb128 0xd
 1983 0975 14090000 		.4byte	0x914
 1984 0979 84090000 		.4byte	0x984
 1985 097d 0E       		.uleb128 0xe
 1986 097e C7000000 		.4byte	0xc7
 1987 0982 00       		.byte	0
 1988 0983 00       		.byte	0
 1989 0984 04       		.uleb128 0x4
 1990 0985 D8060000 		.4byte	.LASF120
 1991 0989 05       		.byte	0x5
 1992 098a 2F04     		.2byte	0x42f
 1993 098c 5D090000 		.4byte	0x95d
 1994 0990 10       		.uleb128 0x10
 1995 0991 0C       		.byte	0xc
 1996 0992 05       		.byte	0x5
 1997 0993 3404     		.2byte	0x434
 1998 0995 A7090000 		.4byte	0x9a7
 1999 0999 0F       		.uleb128 0xf
 2000 099a 86010000 		.4byte	.LASF121
 2001 099e 05       		.byte	0x5
 2002 099f 3904     		.2byte	0x439
 2003 09a1 A7090000 		.4byte	0x9a7
 2004 09a5 00       		.byte	0
 2005 09a6 00       		.byte	0
 2006 09a7 0D       		.uleb128 0xd
 2007 09a8 51090000 		.4byte	0x951
 2008 09ac B7090000 		.4byte	0x9b7
 2009 09b0 0E       		.uleb128 0xe
 2010 09b1 C7000000 		.4byte	0xc7
 2011 09b5 00       		.byte	0
 2012 09b6 00       		.byte	0
 2013 09b7 04       		.uleb128 0x4
 2014 09b8 39090000 		.4byte	.LASF122
 2015 09bc 05       		.byte	0x5
 2016 09bd 3A04     		.2byte	0x43a
 2017 09bf 90090000 		.4byte	0x990
 2018 09c3 16       		.uleb128 0x16
 2019 09c4 04       		.byte	0x4
 2020 09c5 05       		.byte	0x5
 2021 09c6 4004     		.2byte	0x440
ARM GAS  C:\Users\Zhu\AppData\Local\Temp\ccMjsG6v.s 			page 66


 2022 09c8 F1090000 		.4byte	0x9f1
 2023 09cc 17       		.uleb128 0x17
 2024 09cd 70747200 		.ascii	"ptr\000"
 2025 09d1 05       		.byte	0x5
 2026 09d2 4504     		.2byte	0x445
 2027 09d4 CE000000 		.4byte	0xce
 2028 09d8 18       		.uleb128 0x18
 2029 09d9 43020000 		.4byte	.LASF123
 2030 09dd 05       		.byte	0x5
 2031 09de 4A04     		.2byte	0x44a
 2032 09e0 F1090000 		.4byte	0x9f1
 2033 09e4 18       		.uleb128 0x18
 2034 09e5 EC010000 		.4byte	.LASF124
 2035 09e9 05       		.byte	0x5
 2036 09ea 4F04     		.2byte	0x44f
 2037 09ec F7090000 		.4byte	0x9f7
 2038 09f0 00       		.byte	0
 2039 09f1 14       		.uleb128 0x14
 2040 09f2 04       		.byte	0x4
 2041 09f3 84090000 		.4byte	0x984
 2042 09f7 14       		.uleb128 0x14
 2043 09f8 04       		.byte	0x4
 2044 09f9 B7090000 		.4byte	0x9b7
 2045 09fd 04       		.uleb128 0x4
 2046 09fe F4010000 		.4byte	.LASF125
 2047 0a02 05       		.byte	0x5
 2048 0a03 5004     		.2byte	0x450
 2049 0a05 C3090000 		.4byte	0x9c3
 2050 0a09 19       		.uleb128 0x19
 2051 0a0a B4010000 		.4byte	.LASF130
 2052 0a0e 01       		.byte	0x1
 2053 0a0f 9001     		.2byte	0x190
 2054 0a11 00000000 		.4byte	.LFB2
 2055 0a15 74000000 		.4byte	.LFE2-.LFB2
 2056 0a19 01       		.uleb128 0x1
 2057 0a1a 9C       		.byte	0x9c
 2058 0a1b 720A0000 		.4byte	0xa72
 2059 0a1f 1A       		.uleb128 0x1a
 2060 0a20 5D000000 		.4byte	.LASF126
 2061 0a24 01       		.byte	0x1
 2062 0a25 9201     		.2byte	0x192
 2063 0a27 83000000 		.4byte	0x83
 2064 0a2b 00000000 		.4byte	.LLST0
 2065 0a2f 1A       		.uleb128 0x1a
 2066 0a30 BB090000 		.4byte	.LASF127
 2067 0a34 01       		.byte	0x1
 2068 0a35 9301     		.2byte	0x193
 2069 0a37 1F010000 		.4byte	0x11f
 2070 0a3b 4D000000 		.4byte	.LLST1
 2071 0a3f 1A       		.uleb128 0x1a
 2072 0a40 44060000 		.4byte	.LASF128
 2073 0a44 01       		.byte	0x1
 2074 0a45 9401     		.2byte	0x194
 2075 0a47 720A0000 		.4byte	0xa72
 2076 0a4b 6B000000 		.4byte	.LLST2
 2077 0a4f 1A       		.uleb128 0x1a
 2078 0a50 C9080000 		.4byte	.LASF129
ARM GAS  C:\Users\Zhu\AppData\Local\Temp\ccMjsG6v.s 			page 67


 2079 0a54 01       		.byte	0x1
 2080 0a55 9501     		.2byte	0x195
 2081 0a57 780A0000 		.4byte	0xa78
 2082 0a5b 7E000000 		.4byte	.LLST3
 2083 0a5f 1B       		.uleb128 0x1b
 2084 0a60 4E000000 		.4byte	.LVL8
 2085 0a64 F60E0000 		.4byte	0xef6
 2086 0a68 1B       		.uleb128 0x1b
 2087 0a69 60000000 		.4byte	.LVL11
 2088 0a6d F60E0000 		.4byte	0xef6
 2089 0a71 00       		.byte	0
 2090 0a72 14       		.uleb128 0x14
 2091 0a73 04       		.byte	0x4
 2092 0a74 BB010000 		.4byte	0x1bb
 2093 0a78 14       		.uleb128 0x14
 2094 0a79 04       		.byte	0x4
 2095 0a7a 7E0A0000 		.4byte	0xa7e
 2096 0a7e 1C       		.uleb128 0x1c
 2097 0a7f 83080000 		.4byte	0x883
 2098 0a83 19       		.uleb128 0x19
 2099 0a84 B9000000 		.4byte	.LASF131
 2100 0a88 01       		.byte	0x1
 2101 0a89 5E05     		.2byte	0x55e
 2102 0a8b 00000000 		.4byte	.LFB6
 2103 0a8f 16000000 		.4byte	.LFE6-.LFB6
 2104 0a93 01       		.uleb128 0x1
 2105 0a94 9C       		.byte	0x9c
 2106 0a95 C80A0000 		.4byte	0xac8
 2107 0a99 1D       		.uleb128 0x1d
 2108 0a9a 44060000 		.4byte	.LASF128
 2109 0a9e 01       		.byte	0x1
 2110 0a9f 5F05     		.2byte	0x55f
 2111 0aa1 720A0000 		.4byte	0xa72
 2112 0aa5 91000000 		.4byte	.LLST4
 2113 0aa9 1E       		.uleb128 0x1e
 2114 0aaa 0F010000 		.4byte	.LASF132
 2115 0aae 01       		.byte	0x1
 2116 0aaf 6005     		.2byte	0x560
 2117 0ab1 77080000 		.4byte	0x877
 2118 0ab5 01       		.uleb128 0x1
 2119 0ab6 51       		.byte	0x51
 2120 0ab7 1A       		.uleb128 0x1a
 2121 0ab8 E5000000 		.4byte	.LASF133
 2122 0abc 01       		.byte	0x1
 2123 0abd 6205     		.2byte	0x562
 2124 0abf 8F000000 		.4byte	0x8f
 2125 0ac3 B2000000 		.4byte	.LLST5
 2126 0ac7 00       		.byte	0
 2127 0ac8 1F       		.uleb128 0x1f
 2128 0ac9 F9030000 		.4byte	.LASF140
 2129 0acd 01       		.byte	0x1
 2130 0ace F803     		.2byte	0x3f8
 2131 0ad0 83000000 		.4byte	0x83
 2132 0ad4 00000000 		.4byte	.LFB3
 2133 0ad8 7E000000 		.4byte	.LFE3-.LFB3
 2134 0adc 01       		.uleb128 0x1
 2135 0add 9C       		.byte	0x9c
ARM GAS  C:\Users\Zhu\AppData\Local\Temp\ccMjsG6v.s 			page 68


 2136 0ade CC0B0000 		.4byte	0xbcc
 2137 0ae2 1D       		.uleb128 0x1d
 2138 0ae3 C9080000 		.4byte	.LASF129
 2139 0ae7 01       		.byte	0x1
 2140 0ae8 F803     		.2byte	0x3f8
 2141 0aea 780A0000 		.4byte	0xa78
 2142 0aee E1000000 		.4byte	.LLST6
 2143 0af2 1A       		.uleb128 0x1a
 2144 0af3 5D010000 		.4byte	.LASF134
 2145 0af7 01       		.byte	0x1
 2146 0af8 FA03     		.2byte	0x3fa
 2147 0afa 83000000 		.4byte	0x83
 2148 0afe 0D010000 		.4byte	.LLST7
 2149 0b02 1A       		.uleb128 0x1a
 2150 0b03 93020000 		.4byte	.LASF135
 2151 0b07 01       		.byte	0x1
 2152 0b08 FD03     		.2byte	0x3fd
 2153 0b0a 83000000 		.4byte	0x83
 2154 0b0e 4D010000 		.4byte	.LLST8
 2155 0b12 20       		.uleb128 0x20
 2156 0b13 BB090000 		.4byte	.LASF127
 2157 0b17 01       		.byte	0x1
 2158 0b18 0004     		.2byte	0x400
 2159 0b1a 83000000 		.4byte	0x83
 2160 0b1e 02       		.uleb128 0x2
 2161 0b1f 91       		.byte	0x91
 2162 0b20 5C       		.sleb128 -36
 2163 0b21 1A       		.uleb128 0x1a
 2164 0b22 6E010000 		.4byte	.LASF136
 2165 0b26 01       		.byte	0x1
 2166 0b27 0104     		.2byte	0x401
 2167 0b29 83000000 		.4byte	0x83
 2168 0b2d 6C010000 		.4byte	.LLST9
 2169 0b31 1A       		.uleb128 0x1a
 2170 0b32 99070000 		.4byte	.LASF137
 2171 0b36 01       		.byte	0x1
 2172 0b37 0204     		.2byte	0x402
 2173 0b39 77080000 		.4byte	0x877
 2174 0b3d 8B010000 		.4byte	.LLST10
 2175 0b41 1A       		.uleb128 0x1a
 2176 0b42 44060000 		.4byte	.LASF128
 2177 0b46 01       		.byte	0x1
 2178 0b47 0304     		.2byte	0x403
 2179 0b49 720A0000 		.4byte	0xa72
 2180 0b4d 9E010000 		.4byte	.LLST11
 2181 0b51 1A       		.uleb128 0x1a
 2182 0b52 64000000 		.4byte	.LASF138
 2183 0b56 01       		.byte	0x1
 2184 0b57 0E04     		.2byte	0x40e
 2185 0b59 FD090000 		.4byte	0x9fd
 2186 0b5d C9010000 		.4byte	.LLST12
 2187 0b61 1A       		.uleb128 0x1a
 2188 0b62 BE080000 		.4byte	.LASF139
 2189 0b66 01       		.byte	0x1
 2190 0b67 1104     		.2byte	0x411
 2191 0b69 83000000 		.4byte	0x83
 2192 0b6d E7010000 		.4byte	.LLST13
ARM GAS  C:\Users\Zhu\AppData\Local\Temp\ccMjsG6v.s 			page 69


 2193 0b71 21       		.uleb128 0x21
 2194 0b72 38000000 		.4byte	.LVL31
 2195 0b76 010F0000 		.4byte	0xf01
 2196 0b7a 920B0000 		.4byte	0xb92
 2197 0b7e 22       		.uleb128 0x22
 2198 0b7f 01       		.uleb128 0x1
 2199 0b80 50       		.byte	0x50
 2200 0b81 02       		.uleb128 0x2
 2201 0b82 76       		.byte	0x76
 2202 0b83 00       		.sleb128 0
 2203 0b84 22       		.uleb128 0x22
 2204 0b85 01       		.uleb128 0x1
 2205 0b86 51       		.byte	0x51
 2206 0b87 02       		.uleb128 0x2
 2207 0b88 74       		.byte	0x74
 2208 0b89 00       		.sleb128 0
 2209 0b8a 22       		.uleb128 0x22
 2210 0b8b 01       		.uleb128 0x1
 2211 0b8c 52       		.byte	0x52
 2212 0b8d 03       		.uleb128 0x3
 2213 0b8e 91       		.byte	0x91
 2214 0b8f 5C       		.sleb128 -36
 2215 0b90 06       		.byte	0x6
 2216 0b91 00       		.byte	0
 2217 0b92 21       		.uleb128 0x21
 2218 0b93 42000000 		.4byte	.LVL32
 2219 0b97 0C0F0000 		.4byte	0xf0c
 2220 0b9b B40B0000 		.4byte	0xbb4
 2221 0b9f 22       		.uleb128 0x22
 2222 0ba0 01       		.uleb128 0x1
 2223 0ba1 50       		.byte	0x50
 2224 0ba2 03       		.uleb128 0x3
 2225 0ba3 7D       		.byte	0x7d
 2226 0ba4 00       		.sleb128 0
 2227 0ba5 06       		.byte	0x6
 2228 0ba6 22       		.uleb128 0x22
 2229 0ba7 01       		.uleb128 0x1
 2230 0ba8 51       		.byte	0x51
 2231 0ba9 02       		.uleb128 0x2
 2232 0baa 74       		.byte	0x74
 2233 0bab 00       		.sleb128 0
 2234 0bac 22       		.uleb128 0x22
 2235 0bad 01       		.uleb128 0x1
 2236 0bae 52       		.byte	0x52
 2237 0baf 03       		.uleb128 0x3
 2238 0bb0 91       		.byte	0x91
 2239 0bb1 5C       		.sleb128 -36
 2240 0bb2 06       		.byte	0x6
 2241 0bb3 00       		.byte	0
 2242 0bb4 23       		.uleb128 0x23
 2243 0bb5 5C000000 		.4byte	.LVL37
 2244 0bb9 830A0000 		.4byte	0xa83
 2245 0bbd 22       		.uleb128 0x22
 2246 0bbe 01       		.uleb128 0x1
 2247 0bbf 50       		.byte	0x50
 2248 0bc0 03       		.uleb128 0x3
 2249 0bc1 7D       		.byte	0x7d
ARM GAS  C:\Users\Zhu\AppData\Local\Temp\ccMjsG6v.s 			page 70


 2250 0bc2 00       		.sleb128 0
 2251 0bc3 06       		.byte	0x6
 2252 0bc4 22       		.uleb128 0x22
 2253 0bc5 01       		.uleb128 0x1
 2254 0bc6 51       		.byte	0x51
 2255 0bc7 02       		.uleb128 0x2
 2256 0bc8 74       		.byte	0x74
 2257 0bc9 00       		.sleb128 0
 2258 0bca 00       		.byte	0
 2259 0bcb 00       		.byte	0
 2260 0bcc 1F       		.uleb128 0x1f
 2261 0bcd 18000000 		.4byte	.LASF141
 2262 0bd1 01       		.byte	0x1
 2263 0bd2 7A04     		.2byte	0x47a
 2264 0bd4 83000000 		.4byte	0x83
 2265 0bd8 00000000 		.4byte	.LFB4
 2266 0bdc 40000000 		.4byte	.LFE4-.LFB4
 2267 0be0 01       		.uleb128 0x1
 2268 0be1 9C       		.byte	0x9c
 2269 0be2 AE0C0000 		.4byte	0xcae
 2270 0be6 1D       		.uleb128 0x1d
 2271 0be7 C9080000 		.4byte	.LASF129
 2272 0beb 01       		.byte	0x1
 2273 0bec 7B04     		.2byte	0x47b
 2274 0bee 780A0000 		.4byte	0xa78
 2275 0bf2 10020000 		.4byte	.LLST14
 2276 0bf6 1D       		.uleb128 0x1d
 2277 0bf7 0F010000 		.4byte	.LASF132
 2278 0bfb 01       		.byte	0x1
 2279 0bfc 7C04     		.2byte	0x47c
 2280 0bfe 77080000 		.4byte	0x877
 2281 0c02 31020000 		.4byte	.LLST15
 2282 0c06 1D       		.uleb128 0x1d
 2283 0c07 64000000 		.4byte	.LASF138
 2284 0c0b 01       		.byte	0x1
 2285 0c0c 7D04     		.2byte	0x47d
 2286 0c0e FD090000 		.4byte	0x9fd
 2287 0c12 5D020000 		.4byte	.LLST16
 2288 0c16 1D       		.uleb128 0x1d
 2289 0c17 EF000000 		.4byte	.LASF142
 2290 0c1b 01       		.byte	0x1
 2291 0c1c 7E04     		.2byte	0x47e
 2292 0c1e 83000000 		.4byte	0x83
 2293 0c22 91020000 		.4byte	.LLST17
 2294 0c26 1A       		.uleb128 0x1a
 2295 0c27 5D010000 		.4byte	.LASF134
 2296 0c2b 01       		.byte	0x1
 2297 0c2c 8004     		.2byte	0x480
 2298 0c2e 83000000 		.4byte	0x83
 2299 0c32 BD020000 		.4byte	.LLST18
 2300 0c36 1A       		.uleb128 0x1a
 2301 0c37 BB090000 		.4byte	.LASF127
 2302 0c3b 01       		.byte	0x1
 2303 0c3c 8104     		.2byte	0x481
 2304 0c3e 83000000 		.4byte	0x83
 2305 0c42 FE020000 		.4byte	.LLST19
 2306 0c46 1A       		.uleb128 0x1a
ARM GAS  C:\Users\Zhu\AppData\Local\Temp\ccMjsG6v.s 			page 71


 2307 0c47 44060000 		.4byte	.LASF128
 2308 0c4b 01       		.byte	0x1
 2309 0c4c 8204     		.2byte	0x482
 2310 0c4e 720A0000 		.4byte	0xa72
 2311 0c52 1C030000 		.4byte	.LLST20
 2312 0c56 21       		.uleb128 0x21
 2313 0c57 1A000000 		.4byte	.LVL57
 2314 0c5b 010F0000 		.4byte	0xf01
 2315 0c5f 770C0000 		.4byte	0xc77
 2316 0c63 22       		.uleb128 0x22
 2317 0c64 01       		.uleb128 0x1
 2318 0c65 50       		.byte	0x50
 2319 0c66 03       		.uleb128 0x3
 2320 0c67 91       		.byte	0x91
 2321 0c68 64       		.sleb128 -28
 2322 0c69 06       		.byte	0x6
 2323 0c6a 22       		.uleb128 0x22
 2324 0c6b 01       		.uleb128 0x1
 2325 0c6c 51       		.byte	0x51
 2326 0c6d 02       		.uleb128 0x2
 2327 0c6e 76       		.byte	0x76
 2328 0c6f 00       		.sleb128 0
 2329 0c70 22       		.uleb128 0x22
 2330 0c71 01       		.uleb128 0x1
 2331 0c72 52       		.byte	0x52
 2332 0c73 02       		.uleb128 0x2
 2333 0c74 75       		.byte	0x75
 2334 0c75 00       		.sleb128 0
 2335 0c76 00       		.byte	0
 2336 0c77 21       		.uleb128 0x21
 2337 0c78 28000000 		.4byte	.LVL59
 2338 0c7c 0C0F0000 		.4byte	0xf0c
 2339 0c80 970C0000 		.4byte	0xc97
 2340 0c84 22       		.uleb128 0x22
 2341 0c85 01       		.uleb128 0x1
 2342 0c86 50       		.byte	0x50
 2343 0c87 02       		.uleb128 0x2
 2344 0c88 77       		.byte	0x77
 2345 0c89 00       		.sleb128 0
 2346 0c8a 22       		.uleb128 0x22
 2347 0c8b 01       		.uleb128 0x1
 2348 0c8c 51       		.byte	0x51
 2349 0c8d 02       		.uleb128 0x2
 2350 0c8e 76       		.byte	0x76
 2351 0c8f 00       		.sleb128 0
 2352 0c90 22       		.uleb128 0x22
 2353 0c91 01       		.uleb128 0x1
 2354 0c92 52       		.byte	0x52
 2355 0c93 02       		.uleb128 0x2
 2356 0c94 75       		.byte	0x75
 2357 0c95 00       		.sleb128 0
 2358 0c96 00       		.byte	0
 2359 0c97 23       		.uleb128 0x23
 2360 0c98 3A000000 		.4byte	.LVL63
 2361 0c9c 830A0000 		.4byte	0xa83
 2362 0ca0 22       		.uleb128 0x22
 2363 0ca1 01       		.uleb128 0x1
ARM GAS  C:\Users\Zhu\AppData\Local\Temp\ccMjsG6v.s 			page 72


 2364 0ca2 50       		.byte	0x50
 2365 0ca3 02       		.uleb128 0x2
 2366 0ca4 77       		.byte	0x77
 2367 0ca5 00       		.sleb128 0
 2368 0ca6 22       		.uleb128 0x22
 2369 0ca7 01       		.uleb128 0x1
 2370 0ca8 51       		.byte	0x51
 2371 0ca9 02       		.uleb128 0x2
 2372 0caa 76       		.byte	0x76
 2373 0cab 00       		.sleb128 0
 2374 0cac 00       		.byte	0
 2375 0cad 00       		.byte	0
 2376 0cae 1F       		.uleb128 0x1f
 2377 0caf B5040000 		.4byte	.LASF143
 2378 0cb3 01       		.byte	0x1
 2379 0cb4 A805     		.2byte	0x5a8
 2380 0cb6 83000000 		.4byte	0x83
 2381 0cba 00000000 		.4byte	.LFB7
 2382 0cbe 64000000 		.4byte	.LFE7-.LFB7
 2383 0cc2 01       		.uleb128 0x1
 2384 0cc3 9C       		.byte	0x9c
 2385 0cc4 570D0000 		.4byte	0xd57
 2386 0cc8 1D       		.uleb128 0x1d
 2387 0cc9 23090000 		.4byte	.LASF144
 2388 0ccd 01       		.byte	0x1
 2389 0cce A805     		.2byte	0x5a8
 2390 0cd0 83000000 		.4byte	0x83
 2391 0cd4 2F030000 		.4byte	.LLST21
 2392 0cd8 1D       		.uleb128 0x1d
 2393 0cd9 C9080000 		.4byte	.LASF129
 2394 0cdd 01       		.byte	0x1
 2395 0cde A805     		.2byte	0x5a8
 2396 0ce0 780A0000 		.4byte	0xa78
 2397 0ce4 4D030000 		.4byte	.LLST22
 2398 0ce8 1A       		.uleb128 0x1a
 2399 0ce9 4A000000 		.4byte	.LASF145
 2400 0ced 01       		.byte	0x1
 2401 0cee AA05     		.2byte	0x5aa
 2402 0cf0 83000000 		.4byte	0x83
 2403 0cf4 6E030000 		.4byte	.LLST23
 2404 0cf8 1A       		.uleb128 0x1a
 2405 0cf9 4F060000 		.4byte	.LASF146
 2406 0cfd 01       		.byte	0x1
 2407 0cfe AB05     		.2byte	0x5ab
 2408 0d00 83000000 		.4byte	0x83
 2409 0d04 B8030000 		.4byte	.LLST24
 2410 0d08 1A       		.uleb128 0x1a
 2411 0d09 64010000 		.4byte	.LASF147
 2412 0d0d 01       		.byte	0x1
 2413 0d0e AC05     		.2byte	0x5ac
 2414 0d10 83000000 		.4byte	0x83
 2415 0d14 D7030000 		.4byte	.LLST25
 2416 0d18 1A       		.uleb128 0x1a
 2417 0d19 D9050000 		.4byte	.LASF148
 2418 0d1d 01       		.byte	0x1
 2419 0d1e AD05     		.2byte	0x5ad
 2420 0d20 83000000 		.4byte	0x83
ARM GAS  C:\Users\Zhu\AppData\Local\Temp\ccMjsG6v.s 			page 73


 2421 0d24 F5030000 		.4byte	.LLST26
 2422 0d28 1A       		.uleb128 0x1a
 2423 0d29 99070000 		.4byte	.LASF137
 2424 0d2d 01       		.byte	0x1
 2425 0d2e AE05     		.2byte	0x5ae
 2426 0d30 77080000 		.4byte	0x877
 2427 0d34 13040000 		.4byte	.LLST27
 2428 0d38 1A       		.uleb128 0x1a
 2429 0d39 44060000 		.4byte	.LASF128
 2430 0d3d 01       		.byte	0x1
 2431 0d3e AF05     		.2byte	0x5af
 2432 0d40 720A0000 		.4byte	0xa72
 2433 0d44 26040000 		.4byte	.LLST28
 2434 0d48 20       		.uleb128 0x20
 2435 0d49 DA070000 		.4byte	.LASF149
 2436 0d4d 01       		.byte	0x1
 2437 0d4e B005     		.2byte	0x5b0
 2438 0d50 7D080000 		.4byte	0x87d
 2439 0d54 01       		.uleb128 0x1
 2440 0d55 53       		.byte	0x53
 2441 0d56 00       		.byte	0
 2442 0d57 1F       		.uleb128 0x1f
 2443 0d58 98010000 		.4byte	.LASF150
 2444 0d5c 01       		.byte	0x1
 2445 0d5d 0C06     		.2byte	0x60c
 2446 0d5f 83000000 		.4byte	0x83
 2447 0d63 00000000 		.4byte	.LFB8
 2448 0d67 88000000 		.4byte	.LFE8-.LFB8
 2449 0d6b 01       		.uleb128 0x1
 2450 0d6c 9C       		.byte	0x9c
 2451 0d6d 200E0000 		.4byte	0xe20
 2452 0d71 1D       		.uleb128 0x1d
 2453 0d72 23090000 		.4byte	.LASF144
 2454 0d76 01       		.byte	0x1
 2455 0d77 0C06     		.2byte	0x60c
 2456 0d79 83000000 		.4byte	0x83
 2457 0d7d 39040000 		.4byte	.LLST29
 2458 0d81 1D       		.uleb128 0x1d
 2459 0d82 C9080000 		.4byte	.LASF129
 2460 0d86 01       		.byte	0x1
 2461 0d87 0C06     		.2byte	0x60c
 2462 0d89 780A0000 		.4byte	0xa78
 2463 0d8d 57040000 		.4byte	.LLST30
 2464 0d91 1A       		.uleb128 0x1a
 2465 0d92 4E020000 		.4byte	.LASF151
 2466 0d96 01       		.byte	0x1
 2467 0d97 0E06     		.2byte	0x60e
 2468 0d99 83000000 		.4byte	0x83
 2469 0d9d 78040000 		.4byte	.LLST31
 2470 0da1 1A       		.uleb128 0x1a
 2471 0da2 4A000000 		.4byte	.LASF145
 2472 0da6 01       		.byte	0x1
 2473 0da7 0F06     		.2byte	0x60f
 2474 0da9 83000000 		.4byte	0x83
 2475 0dad A1040000 		.4byte	.LLST32
 2476 0db1 1A       		.uleb128 0x1a
 2477 0db2 4F060000 		.4byte	.LASF146
ARM GAS  C:\Users\Zhu\AppData\Local\Temp\ccMjsG6v.s 			page 74


 2478 0db6 01       		.byte	0x1
 2479 0db7 1006     		.2byte	0x610
 2480 0db9 83000000 		.4byte	0x83
 2481 0dbd EB040000 		.4byte	.LLST33
 2482 0dc1 1A       		.uleb128 0x1a
 2483 0dc2 64010000 		.4byte	.LASF147
 2484 0dc6 01       		.byte	0x1
 2485 0dc7 1106     		.2byte	0x611
 2486 0dc9 83000000 		.4byte	0x83
 2487 0dcd 0A050000 		.4byte	.LLST34
 2488 0dd1 1A       		.uleb128 0x1a
 2489 0dd2 2E090000 		.4byte	.LASF152
 2490 0dd6 01       		.byte	0x1
 2491 0dd7 1206     		.2byte	0x612
 2492 0dd9 83000000 		.4byte	0x83
 2493 0ddd 28050000 		.4byte	.LLST35
 2494 0de1 20       		.uleb128 0x20
 2495 0de2 DA070000 		.4byte	.LASF149
 2496 0de6 01       		.byte	0x1
 2497 0de7 1406     		.2byte	0x614
 2498 0de9 7D080000 		.4byte	0x87d
 2499 0ded 01       		.uleb128 0x1
 2500 0dee 52       		.byte	0x52
 2501 0def 1A       		.uleb128 0x1a
 2502 0df0 99070000 		.4byte	.LASF137
 2503 0df4 01       		.byte	0x1
 2504 0df5 1506     		.2byte	0x615
 2505 0df7 77080000 		.4byte	0x877
 2506 0dfb 3B050000 		.4byte	.LLST36
 2507 0dff 1A       		.uleb128 0x1a
 2508 0e00 44060000 		.4byte	.LASF128
 2509 0e04 01       		.byte	0x1
 2510 0e05 1606     		.2byte	0x616
 2511 0e07 200E0000 		.4byte	0xe20
 2512 0e0b 59050000 		.4byte	.LLST37
 2513 0e0f 24       		.uleb128 0x24
 2514 0e10 2F060000 		.4byte	.LASF153
 2515 0e14 01       		.byte	0x1
 2516 0e15 1906     		.2byte	0x619
 2517 0e17 260E0000 		.4byte	0xe26
 2518 0e1b 55555555 		.4byte	0x55555555
 2519 0e1f 00       		.byte	0
 2520 0e20 14       		.uleb128 0x14
 2521 0e21 04       		.byte	0x4
 2522 0e22 ED020000 		.4byte	0x2ed
 2523 0e26 1C       		.uleb128 0x1c
 2524 0e27 83000000 		.4byte	0x83
 2525 0e2b 19       		.uleb128 0x19
 2526 0e2c 7E000000 		.4byte	.LASF154
 2527 0e30 01       		.byte	0x1
 2528 0e31 DE04     		.2byte	0x4de
 2529 0e33 00000000 		.4byte	.LFB5
 2530 0e37 64000000 		.4byte	.LFE5-.LFB5
 2531 0e3b 01       		.uleb128 0x1
 2532 0e3c 9C       		.byte	0x9c
 2533 0e3d D90E0000 		.4byte	0xed9
 2534 0e41 1D       		.uleb128 0x1d
ARM GAS  C:\Users\Zhu\AppData\Local\Temp\ccMjsG6v.s 			page 75


 2535 0e42 CF090000 		.4byte	.LASF155
 2536 0e46 01       		.byte	0x1
 2537 0e47 DE04     		.2byte	0x4de
 2538 0e49 83000000 		.4byte	0x83
 2539 0e4d 6C050000 		.4byte	.LLST38
 2540 0e51 1D       		.uleb128 0x1d
 2541 0e52 C9080000 		.4byte	.LASF129
 2542 0e56 01       		.byte	0x1
 2543 0e57 DE04     		.2byte	0x4de
 2544 0e59 780A0000 		.4byte	0xa78
 2545 0e5d C4050000 		.4byte	.LLST39
 2546 0e61 1A       		.uleb128 0x1a
 2547 0e62 C5050000 		.4byte	.LASF156
 2548 0e66 01       		.byte	0x1
 2549 0e67 E004     		.2byte	0x4e0
 2550 0e69 83000000 		.4byte	0x83
 2551 0e6d 17060000 		.4byte	.LLST40
 2552 0e71 1A       		.uleb128 0x1a
 2553 0e72 0D060000 		.4byte	.LASF157
 2554 0e76 01       		.byte	0x1
 2555 0e77 E104     		.2byte	0x4e1
 2556 0e79 83000000 		.4byte	0x83
 2557 0e7d 56060000 		.4byte	.LLST41
 2558 0e81 1A       		.uleb128 0x1a
 2559 0e82 B1080000 		.4byte	.LASF158
 2560 0e86 01       		.byte	0x1
 2561 0e87 E204     		.2byte	0x4e2
 2562 0e89 83000000 		.4byte	0x83
 2563 0e8d AE060000 		.4byte	.LLST42
 2564 0e91 1A       		.uleb128 0x1a
 2565 0e92 BB090000 		.4byte	.LASF127
 2566 0e96 01       		.byte	0x1
 2567 0e97 E304     		.2byte	0x4e3
 2568 0e99 1F010000 		.4byte	0x11f
 2569 0e9d E2060000 		.4byte	.LLST43
 2570 0ea1 21       		.uleb128 0x21
 2571 0ea2 1C000000 		.4byte	.LVL130
 2572 0ea6 AE0C0000 		.4byte	0xcae
 2573 0eaa B50E0000 		.4byte	0xeb5
 2574 0eae 22       		.uleb128 0x22
 2575 0eaf 01       		.uleb128 0x1
 2576 0eb0 50       		.byte	0x50
 2577 0eb1 02       		.uleb128 0x2
 2578 0eb2 75       		.byte	0x75
 2579 0eb3 00       		.sleb128 0
 2580 0eb4 00       		.byte	0
 2581 0eb5 21       		.uleb128 0x21
 2582 0eb6 26000000 		.4byte	.LVL134
 2583 0eba 570D0000 		.4byte	0xd57
 2584 0ebe C90E0000 		.4byte	0xec9
 2585 0ec2 22       		.uleb128 0x22
 2586 0ec3 01       		.uleb128 0x1
 2587 0ec4 50       		.byte	0x50
 2588 0ec5 02       		.uleb128 0x2
 2589 0ec6 75       		.byte	0x75
 2590 0ec7 00       		.sleb128 0
 2591 0ec8 00       		.byte	0
ARM GAS  C:\Users\Zhu\AppData\Local\Temp\ccMjsG6v.s 			page 76


 2592 0ec9 23       		.uleb128 0x23
 2593 0eca 30000000 		.4byte	.LVL138
 2594 0ece 170F0000 		.4byte	0xf17
 2595 0ed2 22       		.uleb128 0x22
 2596 0ed3 01       		.uleb128 0x1
 2597 0ed4 50       		.byte	0x50
 2598 0ed5 01       		.uleb128 0x1
 2599 0ed6 30       		.byte	0x30
 2600 0ed7 00       		.byte	0
 2601 0ed8 00       		.byte	0
 2602 0ed9 25       		.uleb128 0x25
 2603 0eda 4C050000 		.4byte	.LASF159
 2604 0ede 05       		.byte	0x5
 2605 0edf 9105     		.2byte	0x591
 2606 0ee1 D8070000 		.4byte	0x7d8
 2607 0ee5 25       		.uleb128 0x25
 2608 0ee6 4C010000 		.4byte	.LASF160
 2609 0eea 05       		.byte	0x5
 2610 0eeb 9205     		.2byte	0x592
 2611 0eed F10E0000 		.4byte	0xef1
 2612 0ef1 1C       		.uleb128 0x1c
 2613 0ef2 B7080000 		.4byte	0x8b7
 2614 0ef6 26       		.uleb128 0x26
 2615 0ef7 6B050000 		.4byte	.LASF161
 2616 0efb 6B050000 		.4byte	.LASF161
 2617 0eff 06       		.byte	0x6
 2618 0f00 19       		.byte	0x19
 2619 0f01 26       		.uleb128 0x26
 2620 0f02 6E020000 		.4byte	.LASF162
 2621 0f06 6E020000 		.4byte	.LASF162
 2622 0f0a 07       		.byte	0x7
 2623 0f0b 85       		.byte	0x85
 2624 0f0c 26       		.uleb128 0x26
 2625 0f0d CA010000 		.4byte	.LASF163
 2626 0f11 CA010000 		.4byte	.LASF163
 2627 0f15 07       		.byte	0x7
 2628 0f16 72       		.byte	0x72
 2629 0f17 26       		.uleb128 0x26
 2630 0f18 DE000000 		.4byte	.LASF164
 2631 0f1c DE000000 		.4byte	.LASF164
 2632 0f20 08       		.byte	0x8
 2633 0f21 E7       		.byte	0xe7
 2634 0f22 00       		.byte	0
 2635              		.section	.debug_abbrev,"",%progbits
 2636              	.Ldebug_abbrev0:
 2637 0000 01       		.uleb128 0x1
 2638 0001 11       		.uleb128 0x11
 2639 0002 01       		.byte	0x1
 2640 0003 25       		.uleb128 0x25
 2641 0004 0E       		.uleb128 0xe
 2642 0005 13       		.uleb128 0x13
 2643 0006 0B       		.uleb128 0xb
 2644 0007 03       		.uleb128 0x3
 2645 0008 0E       		.uleb128 0xe
 2646 0009 1B       		.uleb128 0x1b
 2647 000a 0E       		.uleb128 0xe
 2648 000b 55       		.uleb128 0x55
ARM GAS  C:\Users\Zhu\AppData\Local\Temp\ccMjsG6v.s 			page 77


 2649 000c 17       		.uleb128 0x17
 2650 000d 11       		.uleb128 0x11
 2651 000e 01       		.uleb128 0x1
 2652 000f 10       		.uleb128 0x10
 2653 0010 17       		.uleb128 0x17
 2654 0011 00       		.byte	0
 2655 0012 00       		.byte	0
 2656 0013 02       		.uleb128 0x2
 2657 0014 24       		.uleb128 0x24
 2658 0015 00       		.byte	0
 2659 0016 0B       		.uleb128 0xb
 2660 0017 0B       		.uleb128 0xb
 2661 0018 3E       		.uleb128 0x3e
 2662 0019 0B       		.uleb128 0xb
 2663 001a 03       		.uleb128 0x3
 2664 001b 0E       		.uleb128 0xe
 2665 001c 00       		.byte	0
 2666 001d 00       		.byte	0
 2667 001e 03       		.uleb128 0x3
 2668 001f 24       		.uleb128 0x24
 2669 0020 00       		.byte	0
 2670 0021 0B       		.uleb128 0xb
 2671 0022 0B       		.uleb128 0xb
 2672 0023 3E       		.uleb128 0x3e
 2673 0024 0B       		.uleb128 0xb
 2674 0025 03       		.uleb128 0x3
 2675 0026 08       		.uleb128 0x8
 2676 0027 00       		.byte	0
 2677 0028 00       		.byte	0
 2678 0029 04       		.uleb128 0x4
 2679 002a 16       		.uleb128 0x16
 2680 002b 00       		.byte	0
 2681 002c 03       		.uleb128 0x3
 2682 002d 0E       		.uleb128 0xe
 2683 002e 3A       		.uleb128 0x3a
 2684 002f 0B       		.uleb128 0xb
 2685 0030 3B       		.uleb128 0x3b
 2686 0031 05       		.uleb128 0x5
 2687 0032 49       		.uleb128 0x49
 2688 0033 13       		.uleb128 0x13
 2689 0034 00       		.byte	0
 2690 0035 00       		.byte	0
 2691 0036 05       		.uleb128 0x5
 2692 0037 35       		.uleb128 0x35
 2693 0038 00       		.byte	0
 2694 0039 49       		.uleb128 0x49
 2695 003a 13       		.uleb128 0x13
 2696 003b 00       		.byte	0
 2697 003c 00       		.byte	0
 2698 003d 06       		.uleb128 0x6
 2699 003e 16       		.uleb128 0x16
 2700 003f 00       		.byte	0
 2701 0040 03       		.uleb128 0x3
 2702 0041 0E       		.uleb128 0xe
 2703 0042 3A       		.uleb128 0x3a
 2704 0043 0B       		.uleb128 0xb
 2705 0044 3B       		.uleb128 0x3b
ARM GAS  C:\Users\Zhu\AppData\Local\Temp\ccMjsG6v.s 			page 78


 2706 0045 0B       		.uleb128 0xb
 2707 0046 49       		.uleb128 0x49
 2708 0047 13       		.uleb128 0x13
 2709 0048 00       		.byte	0
 2710 0049 00       		.byte	0
 2711 004a 07       		.uleb128 0x7
 2712 004b 0F       		.uleb128 0xf
 2713 004c 00       		.byte	0
 2714 004d 0B       		.uleb128 0xb
 2715 004e 0B       		.uleb128 0xb
 2716 004f 00       		.byte	0
 2717 0050 00       		.byte	0
 2718 0051 08       		.uleb128 0x8
 2719 0052 04       		.uleb128 0x4
 2720 0053 01       		.byte	0x1
 2721 0054 0B       		.uleb128 0xb
 2722 0055 0B       		.uleb128 0xb
 2723 0056 49       		.uleb128 0x49
 2724 0057 13       		.uleb128 0x13
 2725 0058 3A       		.uleb128 0x3a
 2726 0059 0B       		.uleb128 0xb
 2727 005a 3B       		.uleb128 0x3b
 2728 005b 0B       		.uleb128 0xb
 2729 005c 01       		.uleb128 0x1
 2730 005d 13       		.uleb128 0x13
 2731 005e 00       		.byte	0
 2732 005f 00       		.byte	0
 2733 0060 09       		.uleb128 0x9
 2734 0061 28       		.uleb128 0x28
 2735 0062 00       		.byte	0
 2736 0063 03       		.uleb128 0x3
 2737 0064 0E       		.uleb128 0xe
 2738 0065 1C       		.uleb128 0x1c
 2739 0066 0B       		.uleb128 0xb
 2740 0067 00       		.byte	0
 2741 0068 00       		.byte	0
 2742 0069 0A       		.uleb128 0xa
 2743 006a 13       		.uleb128 0x13
 2744 006b 01       		.byte	0x1
 2745 006c 0B       		.uleb128 0xb
 2746 006d 0B       		.uleb128 0xb
 2747 006e 3A       		.uleb128 0x3a
 2748 006f 0B       		.uleb128 0xb
 2749 0070 3B       		.uleb128 0x3b
 2750 0071 0B       		.uleb128 0xb
 2751 0072 01       		.uleb128 0x1
 2752 0073 13       		.uleb128 0x13
 2753 0074 00       		.byte	0
 2754 0075 00       		.byte	0
 2755 0076 0B       		.uleb128 0xb
 2756 0077 0D       		.uleb128 0xd
 2757 0078 00       		.byte	0
 2758 0079 03       		.uleb128 0x3
 2759 007a 08       		.uleb128 0x8
 2760 007b 3A       		.uleb128 0x3a
 2761 007c 0B       		.uleb128 0xb
 2762 007d 3B       		.uleb128 0x3b
ARM GAS  C:\Users\Zhu\AppData\Local\Temp\ccMjsG6v.s 			page 79


 2763 007e 0B       		.uleb128 0xb
 2764 007f 49       		.uleb128 0x49
 2765 0080 13       		.uleb128 0x13
 2766 0081 38       		.uleb128 0x38
 2767 0082 0B       		.uleb128 0xb
 2768 0083 00       		.byte	0
 2769 0084 00       		.byte	0
 2770 0085 0C       		.uleb128 0xc
 2771 0086 0D       		.uleb128 0xd
 2772 0087 00       		.byte	0
 2773 0088 03       		.uleb128 0x3
 2774 0089 0E       		.uleb128 0xe
 2775 008a 3A       		.uleb128 0x3a
 2776 008b 0B       		.uleb128 0xb
 2777 008c 3B       		.uleb128 0x3b
 2778 008d 0B       		.uleb128 0xb
 2779 008e 49       		.uleb128 0x49
 2780 008f 13       		.uleb128 0x13
 2781 0090 38       		.uleb128 0x38
 2782 0091 0B       		.uleb128 0xb
 2783 0092 00       		.byte	0
 2784 0093 00       		.byte	0
 2785 0094 0D       		.uleb128 0xd
 2786 0095 01       		.uleb128 0x1
 2787 0096 01       		.byte	0x1
 2788 0097 49       		.uleb128 0x49
 2789 0098 13       		.uleb128 0x13
 2790 0099 01       		.uleb128 0x1
 2791 009a 13       		.uleb128 0x13
 2792 009b 00       		.byte	0
 2793 009c 00       		.byte	0
 2794 009d 0E       		.uleb128 0xe
 2795 009e 21       		.uleb128 0x21
 2796 009f 00       		.byte	0
 2797 00a0 49       		.uleb128 0x49
 2798 00a1 13       		.uleb128 0x13
 2799 00a2 2F       		.uleb128 0x2f
 2800 00a3 0B       		.uleb128 0xb
 2801 00a4 00       		.byte	0
 2802 00a5 00       		.byte	0
 2803 00a6 0F       		.uleb128 0xf
 2804 00a7 0D       		.uleb128 0xd
 2805 00a8 00       		.byte	0
 2806 00a9 03       		.uleb128 0x3
 2807 00aa 0E       		.uleb128 0xe
 2808 00ab 3A       		.uleb128 0x3a
 2809 00ac 0B       		.uleb128 0xb
 2810 00ad 3B       		.uleb128 0x3b
 2811 00ae 05       		.uleb128 0x5
 2812 00af 49       		.uleb128 0x49
 2813 00b0 13       		.uleb128 0x13
 2814 00b1 38       		.uleb128 0x38
 2815 00b2 0B       		.uleb128 0xb
 2816 00b3 00       		.byte	0
 2817 00b4 00       		.byte	0
 2818 00b5 10       		.uleb128 0x10
 2819 00b6 13       		.uleb128 0x13
ARM GAS  C:\Users\Zhu\AppData\Local\Temp\ccMjsG6v.s 			page 80


 2820 00b7 01       		.byte	0x1
 2821 00b8 0B       		.uleb128 0xb
 2822 00b9 0B       		.uleb128 0xb
 2823 00ba 3A       		.uleb128 0x3a
 2824 00bb 0B       		.uleb128 0xb
 2825 00bc 3B       		.uleb128 0x3b
 2826 00bd 05       		.uleb128 0x5
 2827 00be 01       		.uleb128 0x1
 2828 00bf 13       		.uleb128 0x13
 2829 00c0 00       		.byte	0
 2830 00c1 00       		.byte	0
 2831 00c2 11       		.uleb128 0x11
 2832 00c3 0D       		.uleb128 0xd
 2833 00c4 00       		.byte	0
 2834 00c5 03       		.uleb128 0x3
 2835 00c6 08       		.uleb128 0x8
 2836 00c7 3A       		.uleb128 0x3a
 2837 00c8 0B       		.uleb128 0xb
 2838 00c9 3B       		.uleb128 0x3b
 2839 00ca 05       		.uleb128 0x5
 2840 00cb 49       		.uleb128 0x49
 2841 00cc 13       		.uleb128 0x13
 2842 00cd 38       		.uleb128 0x38
 2843 00ce 0B       		.uleb128 0xb
 2844 00cf 00       		.byte	0
 2845 00d0 00       		.byte	0
 2846 00d1 12       		.uleb128 0x12
 2847 00d2 13       		.uleb128 0x13
 2848 00d3 01       		.byte	0x1
 2849 00d4 0B       		.uleb128 0xb
 2850 00d5 05       		.uleb128 0x5
 2851 00d6 3A       		.uleb128 0x3a
 2852 00d7 0B       		.uleb128 0xb
 2853 00d8 3B       		.uleb128 0x3b
 2854 00d9 05       		.uleb128 0x5
 2855 00da 01       		.uleb128 0x1
 2856 00db 13       		.uleb128 0x13
 2857 00dc 00       		.byte	0
 2858 00dd 00       		.byte	0
 2859 00de 13       		.uleb128 0x13
 2860 00df 0D       		.uleb128 0xd
 2861 00e0 00       		.byte	0
 2862 00e1 03       		.uleb128 0x3
 2863 00e2 0E       		.uleb128 0xe
 2864 00e3 3A       		.uleb128 0x3a
 2865 00e4 0B       		.uleb128 0xb
 2866 00e5 3B       		.uleb128 0x3b
 2867 00e6 05       		.uleb128 0x5
 2868 00e7 49       		.uleb128 0x49
 2869 00e8 13       		.uleb128 0x13
 2870 00e9 38       		.uleb128 0x38
 2871 00ea 05       		.uleb128 0x5
 2872 00eb 00       		.byte	0
 2873 00ec 00       		.byte	0
 2874 00ed 14       		.uleb128 0x14
 2875 00ee 0F       		.uleb128 0xf
 2876 00ef 00       		.byte	0
ARM GAS  C:\Users\Zhu\AppData\Local\Temp\ccMjsG6v.s 			page 81


 2877 00f0 0B       		.uleb128 0xb
 2878 00f1 0B       		.uleb128 0xb
 2879 00f2 49       		.uleb128 0x49
 2880 00f3 13       		.uleb128 0x13
 2881 00f4 00       		.byte	0
 2882 00f5 00       		.byte	0
 2883 00f6 15       		.uleb128 0x15
 2884 00f7 26       		.uleb128 0x26
 2885 00f8 00       		.byte	0
 2886 00f9 00       		.byte	0
 2887 00fa 00       		.byte	0
 2888 00fb 16       		.uleb128 0x16
 2889 00fc 17       		.uleb128 0x17
 2890 00fd 01       		.byte	0x1
 2891 00fe 0B       		.uleb128 0xb
 2892 00ff 0B       		.uleb128 0xb
 2893 0100 3A       		.uleb128 0x3a
 2894 0101 0B       		.uleb128 0xb
 2895 0102 3B       		.uleb128 0x3b
 2896 0103 05       		.uleb128 0x5
 2897 0104 01       		.uleb128 0x1
 2898 0105 13       		.uleb128 0x13
 2899 0106 00       		.byte	0
 2900 0107 00       		.byte	0
 2901 0108 17       		.uleb128 0x17
 2902 0109 0D       		.uleb128 0xd
 2903 010a 00       		.byte	0
 2904 010b 03       		.uleb128 0x3
 2905 010c 08       		.uleb128 0x8
 2906 010d 3A       		.uleb128 0x3a
 2907 010e 0B       		.uleb128 0xb
 2908 010f 3B       		.uleb128 0x3b
 2909 0110 05       		.uleb128 0x5
 2910 0111 49       		.uleb128 0x49
 2911 0112 13       		.uleb128 0x13
 2912 0113 00       		.byte	0
 2913 0114 00       		.byte	0
 2914 0115 18       		.uleb128 0x18
 2915 0116 0D       		.uleb128 0xd
 2916 0117 00       		.byte	0
 2917 0118 03       		.uleb128 0x3
 2918 0119 0E       		.uleb128 0xe
 2919 011a 3A       		.uleb128 0x3a
 2920 011b 0B       		.uleb128 0xb
 2921 011c 3B       		.uleb128 0x3b
 2922 011d 05       		.uleb128 0x5
 2923 011e 49       		.uleb128 0x49
 2924 011f 13       		.uleb128 0x13
 2925 0120 00       		.byte	0
 2926 0121 00       		.byte	0
 2927 0122 19       		.uleb128 0x19
 2928 0123 2E       		.uleb128 0x2e
 2929 0124 01       		.byte	0x1
 2930 0125 3F       		.uleb128 0x3f
 2931 0126 19       		.uleb128 0x19
 2932 0127 03       		.uleb128 0x3
 2933 0128 0E       		.uleb128 0xe
ARM GAS  C:\Users\Zhu\AppData\Local\Temp\ccMjsG6v.s 			page 82


 2934 0129 3A       		.uleb128 0x3a
 2935 012a 0B       		.uleb128 0xb
 2936 012b 3B       		.uleb128 0x3b
 2937 012c 05       		.uleb128 0x5
 2938 012d 27       		.uleb128 0x27
 2939 012e 19       		.uleb128 0x19
 2940 012f 11       		.uleb128 0x11
 2941 0130 01       		.uleb128 0x1
 2942 0131 12       		.uleb128 0x12
 2943 0132 06       		.uleb128 0x6
 2944 0133 40       		.uleb128 0x40
 2945 0134 18       		.uleb128 0x18
 2946 0135 9742     		.uleb128 0x2117
 2947 0137 19       		.uleb128 0x19
 2948 0138 01       		.uleb128 0x1
 2949 0139 13       		.uleb128 0x13
 2950 013a 00       		.byte	0
 2951 013b 00       		.byte	0
 2952 013c 1A       		.uleb128 0x1a
 2953 013d 34       		.uleb128 0x34
 2954 013e 00       		.byte	0
 2955 013f 03       		.uleb128 0x3
 2956 0140 0E       		.uleb128 0xe
 2957 0141 3A       		.uleb128 0x3a
 2958 0142 0B       		.uleb128 0xb
 2959 0143 3B       		.uleb128 0x3b
 2960 0144 05       		.uleb128 0x5
 2961 0145 49       		.uleb128 0x49
 2962 0146 13       		.uleb128 0x13
 2963 0147 02       		.uleb128 0x2
 2964 0148 17       		.uleb128 0x17
 2965 0149 00       		.byte	0
 2966 014a 00       		.byte	0
 2967 014b 1B       		.uleb128 0x1b
 2968 014c 898201   		.uleb128 0x4109
 2969 014f 00       		.byte	0
 2970 0150 11       		.uleb128 0x11
 2971 0151 01       		.uleb128 0x1
 2972 0152 31       		.uleb128 0x31
 2973 0153 13       		.uleb128 0x13
 2974 0154 00       		.byte	0
 2975 0155 00       		.byte	0
 2976 0156 1C       		.uleb128 0x1c
 2977 0157 26       		.uleb128 0x26
 2978 0158 00       		.byte	0
 2979 0159 49       		.uleb128 0x49
 2980 015a 13       		.uleb128 0x13
 2981 015b 00       		.byte	0
 2982 015c 00       		.byte	0
 2983 015d 1D       		.uleb128 0x1d
 2984 015e 05       		.uleb128 0x5
 2985 015f 00       		.byte	0
 2986 0160 03       		.uleb128 0x3
 2987 0161 0E       		.uleb128 0xe
 2988 0162 3A       		.uleb128 0x3a
 2989 0163 0B       		.uleb128 0xb
 2990 0164 3B       		.uleb128 0x3b
ARM GAS  C:\Users\Zhu\AppData\Local\Temp\ccMjsG6v.s 			page 83


 2991 0165 05       		.uleb128 0x5
 2992 0166 49       		.uleb128 0x49
 2993 0167 13       		.uleb128 0x13
 2994 0168 02       		.uleb128 0x2
 2995 0169 17       		.uleb128 0x17
 2996 016a 00       		.byte	0
 2997 016b 00       		.byte	0
 2998 016c 1E       		.uleb128 0x1e
 2999 016d 05       		.uleb128 0x5
 3000 016e 00       		.byte	0
 3001 016f 03       		.uleb128 0x3
 3002 0170 0E       		.uleb128 0xe
 3003 0171 3A       		.uleb128 0x3a
 3004 0172 0B       		.uleb128 0xb
 3005 0173 3B       		.uleb128 0x3b
 3006 0174 05       		.uleb128 0x5
 3007 0175 49       		.uleb128 0x49
 3008 0176 13       		.uleb128 0x13
 3009 0177 02       		.uleb128 0x2
 3010 0178 18       		.uleb128 0x18
 3011 0179 00       		.byte	0
 3012 017a 00       		.byte	0
 3013 017b 1F       		.uleb128 0x1f
 3014 017c 2E       		.uleb128 0x2e
 3015 017d 01       		.byte	0x1
 3016 017e 3F       		.uleb128 0x3f
 3017 017f 19       		.uleb128 0x19
 3018 0180 03       		.uleb128 0x3
 3019 0181 0E       		.uleb128 0xe
 3020 0182 3A       		.uleb128 0x3a
 3021 0183 0B       		.uleb128 0xb
 3022 0184 3B       		.uleb128 0x3b
 3023 0185 05       		.uleb128 0x5
 3024 0186 27       		.uleb128 0x27
 3025 0187 19       		.uleb128 0x19
 3026 0188 49       		.uleb128 0x49
 3027 0189 13       		.uleb128 0x13
 3028 018a 11       		.uleb128 0x11
 3029 018b 01       		.uleb128 0x1
 3030 018c 12       		.uleb128 0x12
 3031 018d 06       		.uleb128 0x6
 3032 018e 40       		.uleb128 0x40
 3033 018f 18       		.uleb128 0x18
 3034 0190 9742     		.uleb128 0x2117
 3035 0192 19       		.uleb128 0x19
 3036 0193 01       		.uleb128 0x1
 3037 0194 13       		.uleb128 0x13
 3038 0195 00       		.byte	0
 3039 0196 00       		.byte	0
 3040 0197 20       		.uleb128 0x20
 3041 0198 34       		.uleb128 0x34
 3042 0199 00       		.byte	0
 3043 019a 03       		.uleb128 0x3
 3044 019b 0E       		.uleb128 0xe
 3045 019c 3A       		.uleb128 0x3a
 3046 019d 0B       		.uleb128 0xb
 3047 019e 3B       		.uleb128 0x3b
ARM GAS  C:\Users\Zhu\AppData\Local\Temp\ccMjsG6v.s 			page 84


 3048 019f 05       		.uleb128 0x5
 3049 01a0 49       		.uleb128 0x49
 3050 01a1 13       		.uleb128 0x13
 3051 01a2 02       		.uleb128 0x2
 3052 01a3 18       		.uleb128 0x18
 3053 01a4 00       		.byte	0
 3054 01a5 00       		.byte	0
 3055 01a6 21       		.uleb128 0x21
 3056 01a7 898201   		.uleb128 0x4109
 3057 01aa 01       		.byte	0x1
 3058 01ab 11       		.uleb128 0x11
 3059 01ac 01       		.uleb128 0x1
 3060 01ad 31       		.uleb128 0x31
 3061 01ae 13       		.uleb128 0x13
 3062 01af 01       		.uleb128 0x1
 3063 01b0 13       		.uleb128 0x13
 3064 01b1 00       		.byte	0
 3065 01b2 00       		.byte	0
 3066 01b3 22       		.uleb128 0x22
 3067 01b4 8A8201   		.uleb128 0x410a
 3068 01b7 00       		.byte	0
 3069 01b8 02       		.uleb128 0x2
 3070 01b9 18       		.uleb128 0x18
 3071 01ba 9142     		.uleb128 0x2111
 3072 01bc 18       		.uleb128 0x18
 3073 01bd 00       		.byte	0
 3074 01be 00       		.byte	0
 3075 01bf 23       		.uleb128 0x23
 3076 01c0 898201   		.uleb128 0x4109
 3077 01c3 01       		.byte	0x1
 3078 01c4 11       		.uleb128 0x11
 3079 01c5 01       		.uleb128 0x1
 3080 01c6 31       		.uleb128 0x31
 3081 01c7 13       		.uleb128 0x13
 3082 01c8 00       		.byte	0
 3083 01c9 00       		.byte	0
 3084 01ca 24       		.uleb128 0x24
 3085 01cb 34       		.uleb128 0x34
 3086 01cc 00       		.byte	0
 3087 01cd 03       		.uleb128 0x3
 3088 01ce 0E       		.uleb128 0xe
 3089 01cf 3A       		.uleb128 0x3a
 3090 01d0 0B       		.uleb128 0xb
 3091 01d1 3B       		.uleb128 0x3b
 3092 01d2 05       		.uleb128 0x5
 3093 01d3 49       		.uleb128 0x49
 3094 01d4 13       		.uleb128 0x13
 3095 01d5 1C       		.uleb128 0x1c
 3096 01d6 06       		.uleb128 0x6
 3097 01d7 00       		.byte	0
 3098 01d8 00       		.byte	0
 3099 01d9 25       		.uleb128 0x25
 3100 01da 34       		.uleb128 0x34
 3101 01db 00       		.byte	0
 3102 01dc 03       		.uleb128 0x3
 3103 01dd 0E       		.uleb128 0xe
 3104 01de 3A       		.uleb128 0x3a
ARM GAS  C:\Users\Zhu\AppData\Local\Temp\ccMjsG6v.s 			page 85


 3105 01df 0B       		.uleb128 0xb
 3106 01e0 3B       		.uleb128 0x3b
 3107 01e1 05       		.uleb128 0x5
 3108 01e2 49       		.uleb128 0x49
 3109 01e3 13       		.uleb128 0x13
 3110 01e4 3F       		.uleb128 0x3f
 3111 01e5 19       		.uleb128 0x19
 3112 01e6 3C       		.uleb128 0x3c
 3113 01e7 19       		.uleb128 0x19
 3114 01e8 00       		.byte	0
 3115 01e9 00       		.byte	0
 3116 01ea 26       		.uleb128 0x26
 3117 01eb 2E       		.uleb128 0x2e
 3118 01ec 00       		.byte	0
 3119 01ed 3F       		.uleb128 0x3f
 3120 01ee 19       		.uleb128 0x19
 3121 01ef 3C       		.uleb128 0x3c
 3122 01f0 19       		.uleb128 0x19
 3123 01f1 6E       		.uleb128 0x6e
 3124 01f2 0E       		.uleb128 0xe
 3125 01f3 03       		.uleb128 0x3
 3126 01f4 0E       		.uleb128 0xe
 3127 01f5 3A       		.uleb128 0x3a
 3128 01f6 0B       		.uleb128 0xb
 3129 01f7 3B       		.uleb128 0x3b
 3130 01f8 0B       		.uleb128 0xb
 3131 01f9 00       		.byte	0
 3132 01fa 00       		.byte	0
 3133 01fb 00       		.byte	0
 3134              		.section	.debug_loc,"",%progbits
 3135              	.Ldebug_loc0:
 3136              	.LLST0:
 3137 0000 02000000 		.4byte	.LVL0
 3138 0004 06000000 		.4byte	.LVL1
 3139 0008 0200     		.2byte	0x2
 3140 000a 30       		.byte	0x30
 3141 000b 9F       		.byte	0x9f
 3142 000c 06000000 		.4byte	.LVL1
 3143 0010 28000000 		.4byte	.LVL3
 3144 0014 0100     		.2byte	0x1
 3145 0016 53       		.byte	0x53
 3146 0017 2A000000 		.4byte	.LVL4
 3147 001b 64000000 		.4byte	.LVL13
 3148 001f 0100     		.2byte	0x1
 3149 0021 55       		.byte	0x55
 3150 0022 64000000 		.4byte	.LVL13
 3151 0026 66000000 		.4byte	.LVL14
 3152 002a 0100     		.2byte	0x1
 3153 002c 53       		.byte	0x53
 3154 002d 66000000 		.4byte	.LVL14
 3155 0031 6A000000 		.4byte	.LVL16
 3156 0035 0100     		.2byte	0x1
 3157 0037 55       		.byte	0x55
 3158 0038 6A000000 		.4byte	.LVL16
 3159 003c 74000000 		.4byte	.LFE2
 3160 0040 0300     		.2byte	0x3
 3161 0042 73       		.byte	0x73
ARM GAS  C:\Users\Zhu\AppData\Local\Temp\ccMjsG6v.s 			page 86


 3162 0043 7F       		.sleb128 -1
 3163 0044 9F       		.byte	0x9f
 3164 0045 00000000 		.4byte	0
 3165 0049 00000000 		.4byte	0
 3166              	.LLST1:
 3167 004d 2E000000 		.4byte	.LVL6
 3168 0051 4A000000 		.4byte	.LVL7
 3169 0055 0100     		.2byte	0x1
 3170 0057 52       		.byte	0x52
 3171 0058 50000000 		.4byte	.LVL9
 3172 005c 5A000000 		.4byte	.LVL10
 3173 0060 0100     		.2byte	0x1
 3174 0062 52       		.byte	0x52
 3175 0063 00000000 		.4byte	0
 3176 0067 00000000 		.4byte	0
 3177              	.LLST2:
 3178 006b 2C000000 		.4byte	.LVL5
 3179 006f 64000000 		.4byte	.LVL13
 3180 0073 0100     		.2byte	0x1
 3181 0075 56       		.byte	0x56
 3182 0076 00000000 		.4byte	0
 3183 007a 00000000 		.4byte	0
 3184              	.LLST3:
 3185 007e 2A000000 		.4byte	.LVL4
 3186 0082 6A000000 		.4byte	.LVL15
 3187 0086 0100     		.2byte	0x1
 3188 0088 54       		.byte	0x54
 3189 0089 00000000 		.4byte	0
 3190 008d 00000000 		.4byte	0
 3191              	.LLST4:
 3192 0091 00000000 		.4byte	.LVL17
 3193 0095 0E000000 		.4byte	.LVL20
 3194 0099 0100     		.2byte	0x1
 3195 009b 50       		.byte	0x50
 3196 009c 0E000000 		.4byte	.LVL20
 3197 00a0 16000000 		.4byte	.LFE6
 3198 00a4 0400     		.2byte	0x4
 3199 00a6 F3       		.byte	0xf3
 3200 00a7 01       		.uleb128 0x1
 3201 00a8 50       		.byte	0x50
 3202 00a9 9F       		.byte	0x9f
 3203 00aa 00000000 		.4byte	0
 3204 00ae 00000000 		.4byte	0
 3205              	.LLST5:
 3206 00b2 02000000 		.4byte	.LVL18
 3207 00b6 08000000 		.4byte	.LVL19
 3208 00ba 0200     		.2byte	0x2
 3209 00bc 30       		.byte	0x30
 3210 00bd 9F       		.byte	0x9f
 3211 00be 08000000 		.4byte	.LVL19
 3212 00c2 14000000 		.4byte	.LVL21
 3213 00c6 0100     		.2byte	0x1
 3214 00c8 54       		.byte	0x54
 3215 00c9 14000000 		.4byte	.LVL21
 3216 00cd 16000000 		.4byte	.LFE6
 3217 00d1 0600     		.2byte	0x6
 3218 00d3 73       		.byte	0x73
ARM GAS  C:\Users\Zhu\AppData\Local\Temp\ccMjsG6v.s 			page 87


 3219 00d4 00       		.sleb128 0
 3220 00d5 72       		.byte	0x72
 3221 00d6 00       		.sleb128 0
 3222 00d7 1C       		.byte	0x1c
 3223 00d8 9F       		.byte	0x9f
 3224 00d9 00000000 		.4byte	0
 3225 00dd 00000000 		.4byte	0
 3226              	.LLST6:
 3227 00e1 00000000 		.4byte	.LVL22
 3228 00e5 2E000000 		.4byte	.LVL29
 3229 00e9 0100     		.2byte	0x1
 3230 00eb 50       		.byte	0x50
 3231 00ec 2E000000 		.4byte	.LVL29
 3232 00f0 76000000 		.4byte	.LVL47
 3233 00f4 0100     		.2byte	0x1
 3234 00f6 57       		.byte	0x57
 3235 00f7 76000000 		.4byte	.LVL47
 3236 00fb 7E000000 		.4byte	.LFE3
 3237 00ff 0400     		.2byte	0x4
 3238 0101 F3       		.byte	0xf3
 3239 0102 01       		.uleb128 0x1
 3240 0103 50       		.byte	0x50
 3241 0104 9F       		.byte	0x9f
 3242 0105 00000000 		.4byte	0
 3243 0109 00000000 		.4byte	0
 3244              	.LLST7:
 3245 010d 0C000000 		.4byte	.LVL23
 3246 0111 2E000000 		.4byte	.LVL29
 3247 0115 0200     		.2byte	0x2
 3248 0117 30       		.byte	0x30
 3249 0118 9F       		.byte	0x9f
 3250 0119 2E000000 		.4byte	.LVL29
 3251 011d 4C000000 		.4byte	.LVL33
 3252 0121 0100     		.2byte	0x1
 3253 0123 58       		.byte	0x58
 3254 0124 4C000000 		.4byte	.LVL33
 3255 0128 4E000000 		.4byte	.LVL34
 3256 012c 0100     		.2byte	0x1
 3257 012e 53       		.byte	0x53
 3258 012f 4E000000 		.4byte	.LVL34
 3259 0133 76000000 		.4byte	.LVL48
 3260 0137 0100     		.2byte	0x1
 3261 0139 58       		.byte	0x58
 3262 013a 76000000 		.4byte	.LVL48
 3263 013e 7E000000 		.4byte	.LFE3
 3264 0142 0100     		.2byte	0x1
 3265 0144 50       		.byte	0x50
 3266 0145 00000000 		.4byte	0
 3267 0149 00000000 		.4byte	0
 3268              	.LLST8:
 3269 014d 0C000000 		.4byte	.LVL23
 3270 0151 2E000000 		.4byte	.LVL29
 3271 0155 0200     		.2byte	0x2
 3272 0157 30       		.byte	0x30
 3273 0158 9F       		.byte	0x9f
 3274 0159 42000000 		.4byte	.LVL32
 3275 015d 58000000 		.4byte	.LVL36
ARM GAS  C:\Users\Zhu\AppData\Local\Temp\ccMjsG6v.s 			page 88


 3276 0161 0100     		.2byte	0x1
 3277 0163 50       		.byte	0x50
 3278 0164 00000000 		.4byte	0
 3279 0168 00000000 		.4byte	0
 3280              	.LLST9:
 3281 016c 26000000 		.4byte	.LVL28
 3282 0170 2E000000 		.4byte	.LVL29
 3283 0174 0200     		.2byte	0x2
 3284 0176 30       		.byte	0x30
 3285 0177 9F       		.byte	0x9f
 3286 0178 2E000000 		.4byte	.LVL29
 3287 017c 76000000 		.4byte	.LVL46
 3288 0180 0100     		.2byte	0x1
 3289 0182 55       		.byte	0x55
 3290 0183 00000000 		.4byte	0
 3291 0187 00000000 		.4byte	0
 3292              	.LLST10:
 3293 018b 20000000 		.4byte	.LVL26
 3294 018f 76000000 		.4byte	.LVL45
 3295 0193 0100     		.2byte	0x1
 3296 0195 54       		.byte	0x54
 3297 0196 00000000 		.4byte	0
 3298 019a 00000000 		.4byte	0
 3299              	.LLST11:
 3300 019e 24000000 		.4byte	.LVL27
 3301 01a2 2E000000 		.4byte	.LVL29
 3302 01a6 0100     		.2byte	0x1
 3303 01a8 52       		.byte	0x52
 3304 01a9 2E000000 		.4byte	.LVL29
 3305 01ad 76000000 		.4byte	.LVL44
 3306 01b1 0200     		.2byte	0x2
 3307 01b3 7D       		.byte	0x7d
 3308 01b4 00       		.sleb128 0
 3309 01b5 76000000 		.4byte	.LVL44
 3310 01b9 7E000000 		.4byte	.LFE3
 3311 01bd 0200     		.2byte	0x2
 3312 01bf 91       		.byte	0x91
 3313 01c0 58       		.sleb128 -40
 3314 01c1 00000000 		.4byte	0
 3315 01c5 00000000 		.4byte	0
 3316              	.LLST12:
 3317 01c9 32000000 		.4byte	.LVL30
 3318 01cd 66000000 		.4byte	.LVL40
 3319 01d1 0100     		.2byte	0x1
 3320 01d3 56       		.byte	0x56
 3321 01d4 68000000 		.4byte	.LVL41
 3322 01d8 6A000000 		.4byte	.LVL42
 3323 01dc 0100     		.2byte	0x1
 3324 01de 56       		.byte	0x56
 3325 01df 00000000 		.4byte	0
 3326 01e3 00000000 		.4byte	0
 3327              	.LLST13:
 3328 01e7 1C000000 		.4byte	.LVL24
 3329 01eb 64000000 		.4byte	.LVL39
 3330 01ef 0100     		.2byte	0x1
 3331 01f1 5B       		.byte	0x5b
 3332 01f2 64000000 		.4byte	.LVL39
ARM GAS  C:\Users\Zhu\AppData\Local\Temp\ccMjsG6v.s 			page 89


 3333 01f6 6C000000 		.4byte	.LVL43
 3334 01fa 0100     		.2byte	0x1
 3335 01fc 53       		.byte	0x53
 3336 01fd 6C000000 		.4byte	.LVL43
 3337 0201 76000000 		.4byte	.LVL49
 3338 0205 0100     		.2byte	0x1
 3339 0207 5B       		.byte	0x5b
 3340 0208 00000000 		.4byte	0
 3341 020c 00000000 		.4byte	0
 3342              	.LLST14:
 3343 0210 00000000 		.4byte	.LVL50
 3344 0214 16000000 		.4byte	.LVL56
 3345 0218 0100     		.2byte	0x1
 3346 021a 50       		.byte	0x50
 3347 021b 16000000 		.4byte	.LVL56
 3348 021f 40000000 		.4byte	.LFE4
 3349 0223 0400     		.2byte	0x4
 3350 0225 F3       		.byte	0xf3
 3351 0226 01       		.uleb128 0x1
 3352 0227 50       		.byte	0x50
 3353 0228 9F       		.byte	0x9f
 3354 0229 00000000 		.4byte	0
 3355 022d 00000000 		.4byte	0
 3356              	.LLST15:
 3357 0231 00000000 		.4byte	.LVL50
 3358 0235 19000000 		.4byte	.LVL57-1
 3359 0239 0100     		.2byte	0x1
 3360 023b 51       		.byte	0x51
 3361 023c 19000000 		.4byte	.LVL57-1
 3362 0240 3E000000 		.4byte	.LVL66
 3363 0244 0100     		.2byte	0x1
 3364 0246 56       		.byte	0x56
 3365 0247 3E000000 		.4byte	.LVL66
 3366 024b 40000000 		.4byte	.LFE4
 3367 024f 0400     		.2byte	0x4
 3368 0251 F3       		.byte	0xf3
 3369 0252 01       		.uleb128 0x1
 3370 0253 51       		.byte	0x51
 3371 0254 9F       		.byte	0x9f
 3372 0255 00000000 		.4byte	0
 3373 0259 00000000 		.4byte	0
 3374              	.LLST16:
 3375 025d 00000000 		.4byte	.LVL50
 3376 0261 14000000 		.4byte	.LVL55
 3377 0265 0100     		.2byte	0x1
 3378 0267 52       		.byte	0x52
 3379 0268 1A000000 		.4byte	.LVL57
 3380 026c 20000000 		.4byte	.LVL58
 3381 0270 0100     		.2byte	0x1
 3382 0272 52       		.byte	0x52
 3383 0273 2C000000 		.4byte	.LVL61
 3384 0277 39000000 		.4byte	.LVL63-1
 3385 027b 0100     		.2byte	0x1
 3386 027d 52       		.byte	0x52
 3387 027e 3A000000 		.4byte	.LVL63
 3388 0282 40000000 		.4byte	.LFE4
 3389 0286 0100     		.2byte	0x1
ARM GAS  C:\Users\Zhu\AppData\Local\Temp\ccMjsG6v.s 			page 90


 3390 0288 52       		.byte	0x52
 3391 0289 00000000 		.4byte	0
 3392 028d 00000000 		.4byte	0
 3393              	.LLST17:
 3394 0291 00000000 		.4byte	.LVL50
 3395 0295 12000000 		.4byte	.LVL54
 3396 0299 0100     		.2byte	0x1
 3397 029b 53       		.byte	0x53
 3398 029c 12000000 		.4byte	.LVL54
 3399 02a0 3E000000 		.4byte	.LVL64
 3400 02a4 0100     		.2byte	0x1
 3401 02a6 54       		.byte	0x54
 3402 02a7 3E000000 		.4byte	.LVL64
 3403 02ab 40000000 		.4byte	.LFE4
 3404 02af 0400     		.2byte	0x4
 3405 02b1 F3       		.byte	0xf3
 3406 02b2 01       		.uleb128 0x1
 3407 02b3 53       		.byte	0x53
 3408 02b4 9F       		.byte	0x9f
 3409 02b5 00000000 		.4byte	0
 3410 02b9 00000000 		.4byte	0
 3411              	.LLST18:
 3412 02bd 0A000000 		.4byte	.LVL51
 3413 02c1 2A000000 		.4byte	.LVL60
 3414 02c5 0200     		.2byte	0x2
 3415 02c7 30       		.byte	0x30
 3416 02c8 9F       		.byte	0x9f
 3417 02c9 2A000000 		.4byte	.LVL60
 3418 02cd 2C000000 		.4byte	.LVL61
 3419 02d1 0100     		.2byte	0x1
 3420 02d3 50       		.byte	0x50
 3421 02d4 2C000000 		.4byte	.LVL61
 3422 02d8 2E000000 		.4byte	.LVL62
 3423 02dc 0200     		.2byte	0x2
 3424 02de 30       		.byte	0x30
 3425 02df 9F       		.byte	0x9f
 3426 02e0 2E000000 		.4byte	.LVL62
 3427 02e4 3E000000 		.4byte	.LVL65
 3428 02e8 0100     		.2byte	0x1
 3429 02ea 55       		.byte	0x55
 3430 02eb 3E000000 		.4byte	.LVL65
 3431 02ef 40000000 		.4byte	.LFE4
 3432 02f3 0100     		.2byte	0x1
 3433 02f5 50       		.byte	0x50
 3434 02f6 00000000 		.4byte	0
 3435 02fa 00000000 		.4byte	0
 3436              	.LLST19:
 3437 02fe 0C000000 		.4byte	.LVL52
 3438 0302 2A000000 		.4byte	.LVL60
 3439 0306 0100     		.2byte	0x1
 3440 0308 55       		.byte	0x55
 3441 0309 2C000000 		.4byte	.LVL61
 3442 030d 2E000000 		.4byte	.LVL62
 3443 0311 0100     		.2byte	0x1
 3444 0313 55       		.byte	0x55
 3445 0314 00000000 		.4byte	0
 3446 0318 00000000 		.4byte	0
ARM GAS  C:\Users\Zhu\AppData\Local\Temp\ccMjsG6v.s 			page 91


 3447              	.LLST20:
 3448 031c 0E000000 		.4byte	.LVL53
 3449 0320 3E000000 		.4byte	.LVL67
 3450 0324 0100     		.2byte	0x1
 3451 0326 57       		.byte	0x57
 3452 0327 00000000 		.4byte	0
 3453 032b 00000000 		.4byte	0
 3454              	.LLST21:
 3455 032f 00000000 		.4byte	.LVL68
 3456 0333 44000000 		.4byte	.LVL80
 3457 0337 0100     		.2byte	0x1
 3458 0339 50       		.byte	0x50
 3459 033a 44000000 		.4byte	.LVL80
 3460 033e 64000000 		.4byte	.LFE7
 3461 0342 0100     		.2byte	0x1
 3462 0344 50       		.byte	0x50
 3463 0345 00000000 		.4byte	0
 3464 0349 00000000 		.4byte	0
 3465              	.LLST22:
 3466 034d 00000000 		.4byte	.LVL68
 3467 0351 0C000000 		.4byte	.LVL73
 3468 0355 0100     		.2byte	0x1
 3469 0357 51       		.byte	0x51
 3470 0358 0C000000 		.4byte	.LVL73
 3471 035c 64000000 		.4byte	.LFE7
 3472 0360 0400     		.2byte	0x4
 3473 0362 F3       		.byte	0xf3
 3474 0363 01       		.uleb128 0x1
 3475 0364 51       		.byte	0x51
 3476 0365 9F       		.byte	0x9f
 3477 0366 00000000 		.4byte	0
 3478 036a 00000000 		.4byte	0
 3479              	.LLST23:
 3480 036e 04000000 		.4byte	.LVL69
 3481 0372 0E000000 		.4byte	.LVL74
 3482 0376 0100     		.2byte	0x1
 3483 0378 52       		.byte	0x52
 3484 0379 0E000000 		.4byte	.LVL74
 3485 037d 10000000 		.4byte	.LVL75
 3486 0381 0100     		.2byte	0x1
 3487 0383 54       		.byte	0x54
 3488 0384 10000000 		.4byte	.LVL75
 3489 0388 5A000000 		.4byte	.LVL88
 3490 038c 0100     		.2byte	0x1
 3491 038e 5C       		.byte	0x5c
 3492 038f 5A000000 		.4byte	.LVL88
 3493 0393 5E000000 		.4byte	.LVL89
 3494 0397 0100     		.2byte	0x1
 3495 0399 52       		.byte	0x52
 3496 039a 5E000000 		.4byte	.LVL89
 3497 039e 62000000 		.4byte	.LVL90
 3498 03a2 0100     		.2byte	0x1
 3499 03a4 54       		.byte	0x54
 3500 03a5 62000000 		.4byte	.LVL90
 3501 03a9 64000000 		.4byte	.LFE7
 3502 03ad 0100     		.2byte	0x1
 3503 03af 5C       		.byte	0x5c
ARM GAS  C:\Users\Zhu\AppData\Local\Temp\ccMjsG6v.s 			page 92


 3504 03b0 00000000 		.4byte	0
 3505 03b4 00000000 		.4byte	0
 3506              	.LLST24:
 3507 03b8 0A000000 		.4byte	.LVL72
 3508 03bc 0E000000 		.4byte	.LVL74
 3509 03c0 0200     		.2byte	0x2
 3510 03c2 31       		.byte	0x31
 3511 03c3 9F       		.byte	0x9f
 3512 03c4 0E000000 		.4byte	.LVL74
 3513 03c8 64000000 		.4byte	.LFE7
 3514 03cc 0100     		.2byte	0x1
 3515 03ce 51       		.byte	0x51
 3516 03cf 00000000 		.4byte	0
 3517 03d3 00000000 		.4byte	0
 3518              	.LLST25:
 3519 03d7 2E000000 		.4byte	.LVL79
 3520 03db 4C000000 		.4byte	.LVL82
 3521 03df 0100     		.2byte	0x1
 3522 03e1 52       		.byte	0x52
 3523 03e2 4E000000 		.4byte	.LVL83
 3524 03e6 50000000 		.4byte	.LVL84
 3525 03ea 0100     		.2byte	0x1
 3526 03ec 52       		.byte	0x52
 3527 03ed 00000000 		.4byte	0
 3528 03f1 00000000 		.4byte	0
 3529              	.LLST26:
 3530 03f5 22000000 		.4byte	.LVL76
 3531 03f9 2A000000 		.4byte	.LVL77
 3532 03fd 0100     		.2byte	0x1
 3533 03ff 52       		.byte	0x52
 3534 0400 2C000000 		.4byte	.LVL78
 3535 0404 2E000000 		.4byte	.LVL79
 3536 0408 0100     		.2byte	0x1
 3537 040a 52       		.byte	0x52
 3538 040b 00000000 		.4byte	0
 3539 040f 00000000 		.4byte	0
 3540              	.LLST27:
 3541 0413 06000000 		.4byte	.LVL70
 3542 0417 62000000 		.4byte	.LVL91
 3543 041b 0100     		.2byte	0x1
 3544 041d 55       		.byte	0x55
 3545 041e 00000000 		.4byte	0
 3546 0422 00000000 		.4byte	0
 3547              	.LLST28:
 3548 0426 08000000 		.4byte	.LVL71
 3549 042a 62000000 		.4byte	.LVL92
 3550 042e 0100     		.2byte	0x1
 3551 0430 57       		.byte	0x57
 3552 0431 00000000 		.4byte	0
 3553 0435 00000000 		.4byte	0
 3554              	.LLST29:
 3555 0439 00000000 		.4byte	.LVL93
 3556 043d 5E000000 		.4byte	.LVL114
 3557 0441 0100     		.2byte	0x1
 3558 0443 50       		.byte	0x50
 3559 0444 5E000000 		.4byte	.LVL114
 3560 0448 88000000 		.4byte	.LFE8
ARM GAS  C:\Users\Zhu\AppData\Local\Temp\ccMjsG6v.s 			page 93


 3561 044c 0100     		.2byte	0x1
 3562 044e 50       		.byte	0x50
 3563 044f 00000000 		.4byte	0
 3564 0453 00000000 		.4byte	0
 3565              	.LLST30:
 3566 0457 00000000 		.4byte	.LVL93
 3567 045b 12000000 		.4byte	.LVL98
 3568 045f 0100     		.2byte	0x1
 3569 0461 51       		.byte	0x51
 3570 0462 12000000 		.4byte	.LVL98
 3571 0466 88000000 		.4byte	.LFE8
 3572 046a 0400     		.2byte	0x4
 3573 046c F3       		.byte	0xf3
 3574 046d 01       		.uleb128 0x1
 3575 046e 51       		.byte	0x51
 3576 046f 9F       		.byte	0x9f
 3577 0470 00000000 		.4byte	0
 3578 0474 00000000 		.4byte	0
 3579              	.LLST31:
 3580 0478 1E000000 		.4byte	.LVL103
 3581 047c 38000000 		.4byte	.LVL107
 3582 0480 0100     		.2byte	0x1
 3583 0482 51       		.byte	0x51
 3584 0483 3A000000 		.4byte	.LVL108
 3585 0487 44000000 		.4byte	.LVL110
 3586 048b 0100     		.2byte	0x1
 3587 048d 51       		.byte	0x51
 3588 048e 46000000 		.4byte	.LVL111
 3589 0492 48000000 		.4byte	.LVL112
 3590 0496 0100     		.2byte	0x1
 3591 0498 51       		.byte	0x51
 3592 0499 00000000 		.4byte	0
 3593 049d 00000000 		.4byte	0
 3594              	.LLST32:
 3595 04a1 14000000 		.4byte	.LVL99
 3596 04a5 18000000 		.4byte	.LVL101
 3597 04a9 0100     		.2byte	0x1
 3598 04ab 51       		.byte	0x51
 3599 04ac 18000000 		.4byte	.LVL101
 3600 04b0 20000000 		.4byte	.LVL104
 3601 04b4 0100     		.2byte	0x1
 3602 04b6 54       		.byte	0x54
 3603 04b7 20000000 		.4byte	.LVL104
 3604 04bb 72000000 		.4byte	.LVL121
 3605 04bf 0100     		.2byte	0x1
 3606 04c1 5C       		.byte	0x5c
 3607 04c2 72000000 		.4byte	.LVL121
 3608 04c6 76000000 		.4byte	.LVL122
 3609 04ca 0100     		.2byte	0x1
 3610 04cc 51       		.byte	0x51
 3611 04cd 76000000 		.4byte	.LVL122
 3612 04d1 7A000000 		.4byte	.LVL123
 3613 04d5 0100     		.2byte	0x1
 3614 04d7 54       		.byte	0x54
 3615 04d8 7A000000 		.4byte	.LVL123
 3616 04dc 88000000 		.4byte	.LFE8
 3617 04e0 0100     		.2byte	0x1
ARM GAS  C:\Users\Zhu\AppData\Local\Temp\ccMjsG6v.s 			page 94


 3618 04e2 5C       		.byte	0x5c
 3619 04e3 00000000 		.4byte	0
 3620 04e7 00000000 		.4byte	0
 3621              	.LLST33:
 3622 04eb 14000000 		.4byte	.LVL99
 3623 04ef 18000000 		.4byte	.LVL101
 3624 04f3 0200     		.2byte	0x2
 3625 04f5 31       		.byte	0x31
 3626 04f6 9F       		.byte	0x9f
 3627 04f7 18000000 		.4byte	.LVL101
 3628 04fb 88000000 		.4byte	.LFE8
 3629 04ff 0100     		.2byte	0x1
 3630 0501 53       		.byte	0x53
 3631 0502 00000000 		.4byte	0
 3632 0506 00000000 		.4byte	0
 3633              	.LLST34:
 3634 050a 48000000 		.4byte	.LVL112
 3635 050e 66000000 		.4byte	.LVL116
 3636 0512 0100     		.2byte	0x1
 3637 0514 51       		.byte	0x51
 3638 0515 68000000 		.4byte	.LVL117
 3639 0519 6A000000 		.4byte	.LVL118
 3640 051d 0100     		.2byte	0x1
 3641 051f 51       		.byte	0x51
 3642 0520 00000000 		.4byte	0
 3643 0524 00000000 		.4byte	0
 3644              	.LLST35:
 3645 0528 1C000000 		.4byte	.LVL102
 3646 052c 4E000000 		.4byte	.LVL113
 3647 0530 0100     		.2byte	0x1
 3648 0532 56       		.byte	0x56
 3649 0533 00000000 		.4byte	0
 3650 0537 00000000 		.4byte	0
 3651              	.LLST36:
 3652 053b 0C000000 		.4byte	.LVL95
 3653 053f 16000000 		.4byte	.LVL100
 3654 0543 0100     		.2byte	0x1
 3655 0545 53       		.byte	0x53
 3656 0546 16000000 		.4byte	.LVL100
 3657 054a 7A000000 		.4byte	.LVL125
 3658 054e 0100     		.2byte	0x1
 3659 0550 59       		.byte	0x59
 3660 0551 00000000 		.4byte	0
 3661 0555 00000000 		.4byte	0
 3662              	.LLST37:
 3663 0559 0E000000 		.4byte	.LVL96
 3664 055d 7A000000 		.4byte	.LVL124
 3665 0561 0100     		.2byte	0x1
 3666 0563 55       		.byte	0x55
 3667 0564 00000000 		.4byte	0
 3668 0568 00000000 		.4byte	0
 3669              	.LLST38:
 3670 056c 00000000 		.4byte	.LVL126
 3671 0570 18000000 		.4byte	.LVL129
 3672 0574 0100     		.2byte	0x1
 3673 0576 50       		.byte	0x50
 3674 0577 18000000 		.4byte	.LVL129
ARM GAS  C:\Users\Zhu\AppData\Local\Temp\ccMjsG6v.s 			page 95


 3675 057b 20000000 		.4byte	.LVL132
 3676 057f 0100     		.2byte	0x1
 3677 0581 54       		.byte	0x54
 3678 0582 20000000 		.4byte	.LVL132
 3679 0586 22000000 		.4byte	.LVL133
 3680 058a 0100     		.2byte	0x1
 3681 058c 50       		.byte	0x50
 3682 058d 22000000 		.4byte	.LVL133
 3683 0591 2A000000 		.4byte	.LVL136
 3684 0595 0100     		.2byte	0x1
 3685 0597 54       		.byte	0x54
 3686 0598 2A000000 		.4byte	.LVL136
 3687 059c 2C000000 		.4byte	.LVL137
 3688 05a0 0100     		.2byte	0x1
 3689 05a2 50       		.byte	0x50
 3690 05a3 2C000000 		.4byte	.LVL137
 3691 05a7 3C000000 		.4byte	.LVL140
 3692 05ab 0100     		.2byte	0x1
 3693 05ad 54       		.byte	0x54
 3694 05ae 3C000000 		.4byte	.LVL140
 3695 05b2 64000000 		.4byte	.LFE5
 3696 05b6 0400     		.2byte	0x4
 3697 05b8 F3       		.byte	0xf3
 3698 05b9 01       		.uleb128 0x1
 3699 05ba 50       		.byte	0x50
 3700 05bb 9F       		.byte	0x9f
 3701 05bc 00000000 		.4byte	0
 3702 05c0 00000000 		.4byte	0
 3703              	.LLST39:
 3704 05c4 00000000 		.4byte	.LVL126
 3705 05c8 1B000000 		.4byte	.LVL130-1
 3706 05cc 0100     		.2byte	0x1
 3707 05ce 51       		.byte	0x51
 3708 05cf 1B000000 		.4byte	.LVL130-1
 3709 05d3 20000000 		.4byte	.LVL132
 3710 05d7 0400     		.2byte	0x4
 3711 05d9 F3       		.byte	0xf3
 3712 05da 01       		.uleb128 0x1
 3713 05db 51       		.byte	0x51
 3714 05dc 9F       		.byte	0x9f
 3715 05dd 20000000 		.4byte	.LVL132
 3716 05e1 25000000 		.4byte	.LVL134-1
 3717 05e5 0100     		.2byte	0x1
 3718 05e7 51       		.byte	0x51
 3719 05e8 25000000 		.4byte	.LVL134-1
 3720 05ec 2A000000 		.4byte	.LVL136
 3721 05f0 0400     		.2byte	0x4
 3722 05f2 F3       		.byte	0xf3
 3723 05f3 01       		.uleb128 0x1
 3724 05f4 51       		.byte	0x51
 3725 05f5 9F       		.byte	0x9f
 3726 05f6 2A000000 		.4byte	.LVL136
 3727 05fa 2F000000 		.4byte	.LVL138-1
 3728 05fe 0100     		.2byte	0x1
 3729 0600 51       		.byte	0x51
 3730 0601 2F000000 		.4byte	.LVL138-1
 3731 0605 64000000 		.4byte	.LFE5
ARM GAS  C:\Users\Zhu\AppData\Local\Temp\ccMjsG6v.s 			page 96


 3732 0609 0400     		.2byte	0x4
 3733 060b F3       		.byte	0xf3
 3734 060c 01       		.uleb128 0x1
 3735 060d 51       		.byte	0x51
 3736 060e 9F       		.byte	0x9f
 3737 060f 00000000 		.4byte	0
 3738 0613 00000000 		.4byte	0
 3739              	.LLST40:
 3740 0617 0C000000 		.4byte	.LVL128
 3741 061b 1E000000 		.4byte	.LVL131
 3742 061f 0100     		.2byte	0x1
 3743 0621 55       		.byte	0x55
 3744 0622 1E000000 		.4byte	.LVL131
 3745 0626 20000000 		.4byte	.LVL132
 3746 062a 0100     		.2byte	0x1
 3747 062c 50       		.byte	0x50
 3748 062d 20000000 		.4byte	.LVL132
 3749 0631 28000000 		.4byte	.LVL135
 3750 0635 0100     		.2byte	0x1
 3751 0637 55       		.byte	0x55
 3752 0638 28000000 		.4byte	.LVL135
 3753 063c 2A000000 		.4byte	.LVL136
 3754 0640 0100     		.2byte	0x1
 3755 0642 50       		.byte	0x50
 3756 0643 2A000000 		.4byte	.LVL136
 3757 0647 5E000000 		.4byte	.LVL149
 3758 064b 0100     		.2byte	0x1
 3759 064d 55       		.byte	0x55
 3760 064e 00000000 		.4byte	0
 3761 0652 00000000 		.4byte	0
 3762              	.LLST41:
 3763 0656 38000000 		.4byte	.LVL139
 3764 065a 48000000 		.4byte	.LVL142
 3765 065e 0100     		.2byte	0x1
 3766 0660 53       		.byte	0x53
 3767 0661 48000000 		.4byte	.LVL142
 3768 0665 4A000000 		.4byte	.LVL143
 3769 0669 0300     		.2byte	0x3
 3770 066b 73       		.byte	0x73
 3771 066c 7A       		.sleb128 -6
 3772 066d 9F       		.byte	0x9f
 3773 066e 4A000000 		.4byte	.LVL143
 3774 0672 52000000 		.4byte	.LVL144
 3775 0676 0600     		.2byte	0x6
 3776 0678 F3       		.byte	0xf3
 3777 0679 01       		.uleb128 0x1
 3778 067a 50       		.byte	0x50
 3779 067b 35       		.byte	0x35
 3780 067c 25       		.byte	0x25
 3781 067d 9F       		.byte	0x9f
 3782 067e 52000000 		.4byte	.LVL144
 3783 0682 56000000 		.4byte	.LVL145
 3784 0686 0100     		.2byte	0x1
 3785 0688 53       		.byte	0x53
 3786 0689 56000000 		.4byte	.LVL145
 3787 068d 58000000 		.4byte	.LVL146
 3788 0691 0300     		.2byte	0x3
ARM GAS  C:\Users\Zhu\AppData\Local\Temp\ccMjsG6v.s 			page 97


 3789 0693 73       		.byte	0x73
 3790 0694 7A       		.sleb128 -6
 3791 0695 9F       		.byte	0x9f
 3792 0696 58000000 		.4byte	.LVL146
 3793 069a 64000000 		.4byte	.LFE5
 3794 069e 0600     		.2byte	0x6
 3795 06a0 F3       		.byte	0xf3
 3796 06a1 01       		.uleb128 0x1
 3797 06a2 50       		.byte	0x50
 3798 06a3 35       		.byte	0x35
 3799 06a4 25       		.byte	0x25
 3800 06a5 9F       		.byte	0x9f
 3801 06a6 00000000 		.4byte	0
 3802 06aa 00000000 		.4byte	0
 3803              	.LLST42:
 3804 06ae 40000000 		.4byte	.LVL141
 3805 06b2 5C000000 		.4byte	.LVL147
 3806 06b6 0100     		.2byte	0x1
 3807 06b8 52       		.byte	0x52
 3808 06b9 5C000000 		.4byte	.LVL147
 3809 06bd 5E000000 		.4byte	.LVL148
 3810 06c1 0500     		.2byte	0x5
 3811 06c3 31       		.byte	0x31
 3812 06c4 74       		.byte	0x74
 3813 06c5 00       		.sleb128 0
 3814 06c6 24       		.byte	0x24
 3815 06c7 9F       		.byte	0x9f
 3816 06c8 5E000000 		.4byte	.LVL148
 3817 06cc 64000000 		.4byte	.LFE5
 3818 06d0 0800     		.2byte	0x8
 3819 06d2 31       		.byte	0x31
 3820 06d3 F3       		.byte	0xf3
 3821 06d4 01       		.uleb128 0x1
 3822 06d5 50       		.byte	0x50
 3823 06d6 4F       		.byte	0x4f
 3824 06d7 1A       		.byte	0x1a
 3825 06d8 24       		.byte	0x24
 3826 06d9 9F       		.byte	0x9f
 3827 06da 00000000 		.4byte	0
 3828 06de 00000000 		.4byte	0
 3829              	.LLST43:
 3830 06e2 06000000 		.4byte	.LVL127
 3831 06e6 1B000000 		.4byte	.LVL130-1
 3832 06ea 0100     		.2byte	0x1
 3833 06ec 52       		.byte	0x52
 3834 06ed 20000000 		.4byte	.LVL132
 3835 06f1 25000000 		.4byte	.LVL134-1
 3836 06f5 0100     		.2byte	0x1
 3837 06f7 52       		.byte	0x52
 3838 06f8 2A000000 		.4byte	.LVL136
 3839 06fc 2F000000 		.4byte	.LVL138-1
 3840 0700 0100     		.2byte	0x1
 3841 0702 52       		.byte	0x52
 3842 0703 00000000 		.4byte	0
 3843 0707 00000000 		.4byte	0
 3844              		.section	.debug_aranges,"",%progbits
 3845 0000 4C000000 		.4byte	0x4c
ARM GAS  C:\Users\Zhu\AppData\Local\Temp\ccMjsG6v.s 			page 98


 3846 0004 0200     		.2byte	0x2
 3847 0006 00000000 		.4byte	.Ldebug_info0
 3848 000a 04       		.byte	0x4
 3849 000b 00       		.byte	0
 3850 000c 0000     		.2byte	0
 3851 000e 0000     		.2byte	0
 3852 0010 00000000 		.4byte	.LFB2
 3853 0014 74000000 		.4byte	.LFE2-.LFB2
 3854 0018 00000000 		.4byte	.LFB6
 3855 001c 16000000 		.4byte	.LFE6-.LFB6
 3856 0020 00000000 		.4byte	.LFB3
 3857 0024 7E000000 		.4byte	.LFE3-.LFB3
 3858 0028 00000000 		.4byte	.LFB4
 3859 002c 40000000 		.4byte	.LFE4-.LFB4
 3860 0030 00000000 		.4byte	.LFB7
 3861 0034 64000000 		.4byte	.LFE7-.LFB7
 3862 0038 00000000 		.4byte	.LFB8
 3863 003c 88000000 		.4byte	.LFE8-.LFB8
 3864 0040 00000000 		.4byte	.LFB5
 3865 0044 64000000 		.4byte	.LFE5-.LFB5
 3866 0048 00000000 		.4byte	0
 3867 004c 00000000 		.4byte	0
 3868              		.section	.debug_ranges,"",%progbits
 3869              	.Ldebug_ranges0:
 3870 0000 00000000 		.4byte	.LFB2
 3871 0004 74000000 		.4byte	.LFE2
 3872 0008 00000000 		.4byte	.LFB6
 3873 000c 16000000 		.4byte	.LFE6
 3874 0010 00000000 		.4byte	.LFB3
 3875 0014 7E000000 		.4byte	.LFE3
 3876 0018 00000000 		.4byte	.LFB4
 3877 001c 40000000 		.4byte	.LFE4
 3878 0020 00000000 		.4byte	.LFB7
 3879 0024 64000000 		.4byte	.LFE7
 3880 0028 00000000 		.4byte	.LFB8
 3881 002c 88000000 		.4byte	.LFE8
 3882 0030 00000000 		.4byte	.LFB5
 3883 0034 64000000 		.4byte	.LFE5
 3884 0038 00000000 		.4byte	0
 3885 003c 00000000 		.4byte	0
 3886              		.section	.debug_line,"",%progbits
 3887              	.Ldebug_line0:
 3888 0000 68030000 		.section	.debug_str,"MS",%progbits,1
 3888      02009A01 
 3888      00000201 
 3888      FB0E0D00 
 3888      01010101 
 3889              	.LASF26:
 3890 0000 43617053 		.ascii	"CapSense_WD_PROXIMITY_E\000"
 3890      656E7365 
 3890      5F57445F 
 3890      50524F58 
 3890      494D4954 
 3891              	.LASF141:
 3892 0018 43617053 		.ascii	"CapSense_DpProcessCsdSensorRawCountsExt\000"
 3892      656E7365 
 3892      5F447050 
ARM GAS  C:\Users\Zhu\AppData\Local\Temp\ccMjsG6v.s 			page 99


 3892      726F6365 
 3892      73734373 
 3893              	.LASF90:
 3894 0040 736E7343 		.ascii	"snsCsdClk\000"
 3894      7364436C 
 3894      6B00
 3895              	.LASF145:
 3896 004a 736E7343 		.ascii	"snsCnt\000"
 3896      6E7400
 3897              	.LASF40:
 3898 0051 70726F78 		.ascii	"proxTouchTh\000"
 3898      546F7563 
 3898      68546800 
 3899              	.LASF126:
 3900 005d 77646774 		.ascii	"wdgtId\000"
 3900      496400
 3901              	.LASF138:
 3902 0064 666C7472 		.ascii	"fltrHistV\000"
 3902      48697374 
 3902      5600
 3903              	.LASF96:
 3904 006e 736E7254 		.ascii	"snrTestWidgetId\000"
 3904      65737457 
 3904      69646765 
 3904      74496400 
 3905              	.LASF154:
 3906 007e 43617053 		.ascii	"CapSense_DpProcessCsdWidgetStatus\000"
 3906      656E7365 
 3906      5F447050 
 3906      726F6365 
 3906      73734373 
 3907              	.LASF8:
 3908 00a0 756E7369 		.ascii	"unsigned int\000"
 3908      676E6564 
 3908      20696E74 
 3908      00
 3909              	.LASF82:
 3910 00ad 7363616E 		.ascii	"scanCounter\000"
 3910      436F756E 
 3910      74657200 
 3911              	.LASF131:
 3912 00b9 43617053 		.ascii	"CapSense_DpUpdateDifferences\000"
 3912      656E7365 
 3912      5F447055 
 3912      70646174 
 3912      65446966 
 3913              	.LASF80:
 3914 00d6 6877436C 		.ascii	"hwClock\000"
 3914      6F636B00 
 3915              	.LASF164:
 3916 00de 43794861 		.ascii	"CyHalt\000"
 3916      6C7400
 3917              	.LASF133:
 3918 00e5 64696666 		.ascii	"diffValue\000"
 3918      56616C75 
 3918      6500
 3919              	.LASF142:
ARM GAS  C:\Users\Zhu\AppData\Local\Temp\ccMjsG6v.s 			page 100


 3920 00ef 6D6F6465 		.ascii	"mode\000"
 3920      00
 3921              	.LASF77:
 3922 00f4 43617053 		.ascii	"CapSense_RAM_SNS_CP_STRUCT\000"
 3922      656E7365 
 3922      5F52414D 
 3922      5F534E53 
 3922      5F43505F 
 3923              	.LASF132:
 3924 010f 63757253 		.ascii	"curSnsPtr\000"
 3924      6E735074 
 3924      7200
 3925              	.LASF25:
 3926 0119 43617053 		.ascii	"CapSense_WD_TOUCHPAD_E\000"
 3926      656E7365 
 3926      5F57445F 
 3926      544F5543 
 3926      48504144 
 3927              	.LASF55:
 3928 0130 43617053 		.ascii	"CapSense_RAM_WD_LIST_STRUCT\000"
 3928      656E7365 
 3928      5F52414D 
 3928      5F57445F 
 3928      4C495354 
 3929              	.LASF160:
 3930 014c 43617053 		.ascii	"CapSense_dsFlash\000"
 3930      656E7365 
 3930      5F647346 
 3930      6C617368 
 3930      00
 3931              	.LASF134:
 3932 015d 72657375 		.ascii	"result\000"
 3932      6C7400
 3933              	.LASF147:
 3934 0164 6E657753 		.ascii	"newStatus\000"
 3934      74617475 
 3934      7300
 3935              	.LASF136:
 3936 016e 736E7349 		.ascii	"snsId\000"
 3936      6400
 3937              	.LASF85:
 3938 0174 77646774 		.ascii	"wdgtWorking\000"
 3938      576F726B 
 3938      696E6700 
 3939              	.LASF13:
 3940 0180 666C6F61 		.ascii	"float\000"
 3940      7400
 3941              	.LASF121:
 3942 0186 70726F78 		.ascii	"proxChannel\000"
 3942      4368616E 
 3942      6E656C00 
 3943              	.LASF12:
 3944 0192 696E7433 		.ascii	"int32\000"
 3944      3200
 3945              	.LASF150:
 3946 0198 43617053 		.ascii	"CapSense_DpProcessProximity\000"
 3946      656E7365 
ARM GAS  C:\Users\Zhu\AppData\Local\Temp\ccMjsG6v.s 			page 101


 3946      5F447050 
 3946      726F6365 
 3946      73735072 
 3947              	.LASF130:
 3948 01b4 43617053 		.ascii	"CapSense_DpInitialize\000"
 3948      656E7365 
 3948      5F447049 
 3948      6E697469 
 3948      616C697A 
 3949              	.LASF163:
 3950 01ca 43617053 		.ascii	"CapSense_FtUpdateBaseline\000"
 3950      656E7365 
 3950      5F467455 
 3950      70646174 
 3950      65426173 
 3951              	.LASF93:
 3952 01e4 736E734C 		.ascii	"snsList\000"
 3952      69737400 
 3953              	.LASF124:
 3954 01ec 70747250 		.ascii	"ptrProx\000"
 3954      726F7800 
 3955              	.LASF125:
 3956 01f4 43617053 		.ascii	"CapSense_PTR_FILTER_VARIANT\000"
 3956      656E7365 
 3956      5F505452 
 3956      5F46494C 
 3956      5445525F 
 3957              	.LASF7:
 3958 0210 6C6F6E67 		.ascii	"long long unsigned int\000"
 3958      206C6F6E 
 3958      6720756E 
 3958      7369676E 
 3958      65642069 
 3959              	.LASF24:
 3960 0227 43617053 		.ascii	"CapSense_WD_MATRIX_BUTTON_E\000"
 3960      656E7365 
 3960      5F57445F 
 3960      4D415452 
 3960      49585F42 
 3961              	.LASF123:
 3962 0243 70747252 		.ascii	"ptrRegular\000"
 3962      6567756C 
 3962      617200
 3963              	.LASF151:
 3964 024e 63757272 		.ascii	"currTh\000"
 3964      546800
 3965              	.LASF97:
 3966 0255 736E7254 		.ascii	"snrTestSensorId\000"
 3966      65737453 
 3966      656E736F 
 3966      72496400 
 3967              	.LASF108:
 3968 0265 77646774 		.ascii	"wdgtType\000"
 3968      54797065 
 3968      00
 3969              	.LASF162:
 3970 026e 43617053 		.ascii	"CapSense_FtRunEnabledFiltersInternal\000"
ARM GAS  C:\Users\Zhu\AppData\Local\Temp\ccMjsG6v.s 			page 102


 3970      656E7365 
 3970      5F467452 
 3970      756E456E 
 3970      61626C65 
 3971              	.LASF135:
 3972 0293 62736C6E 		.ascii	"bslnTstResult\000"
 3972      54737452 
 3972      6573756C 
 3972      7400
 3973              	.LASF72:
 3974 02a1 73686F72 		.ascii	"shortedWdgtId\000"
 3974      74656457 
 3974      64677449 
 3974      6400
 3975              	.LASF165:
 3976 02af 474E5520 		.ascii	"GNU C11 5.4.1 20160609 (release) [ARM/embedded-5-br"
 3976      43313120 
 3976      352E342E 
 3976      31203230 
 3976      31363036 
 3977 02e2 616E6368 		.ascii	"anch revision 237715] -mcpu=cortex-m0 -mthumb -g -O"
 3977      20726576 
 3977      6973696F 
 3977      6E203233 
 3977      37373135 
 3978 0315 67202D66 		.ascii	"g -ffunction-sections -ffat-lto-objects\000"
 3978      66756E63 
 3978      74696F6E 
 3978      2D736563 
 3978      74696F6E 
 3979              	.LASF119:
 3980 033d 72656775 		.ascii	"regularChannel\000"
 3980      6C617243 
 3980      68616E6E 
 3980      656C00
 3981              	.LASF53:
 3982 034c 62757474 		.ascii	"buttonentr\000"
 3982      6F6E656E 
 3982      747200
 3983              	.LASF89:
 3984 0357 6D6F6443 		.ascii	"modCsdClk\000"
 3984      7364436C 
 3984      6B00
 3985              	.LASF62:
 3986 0361 43617053 		.ascii	"CapSense_RAM_SNS_STRUCT\000"
 3986      656E7365 
 3986      5F52414D 
 3986      5F534E53 
 3986      5F535452 
 3987              	.LASF16:
 3988 0379 73697A65 		.ascii	"size_t\000"
 3988      5F7400
 3989              	.LASF95:
 3990 0380 736E7343 		.ascii	"snsCp\000"
 3990      7000
 3991              	.LASF33:
 3992 0386 68797374 		.ascii	"hysteresis\000"
ARM GAS  C:\Users\Zhu\AppData\Local\Temp\ccMjsG6v.s 			page 103


 3992      65726573 
 3992      697300
 3993              	.LASF23:
 3994 0391 43617053 		.ascii	"CapSense_WD_RADIAL_SLIDER_E\000"
 3994      656E7365 
 3994      5F57445F 
 3994      52414449 
 3994      414C5F53 
 3995              	.LASF111:
 3996 03ad 43617053 		.ascii	"CapSense_FLASH_WD_STRUCT\000"
 3996      656E7365 
 3996      5F464C41 
 3996      53485F57 
 3996      445F5354 
 3997              	.LASF35:
 3998 03c6 6C6F7742 		.ascii	"lowBslnRst\000"
 3998      736C6E52 
 3998      737400
 3999              	.LASF64:
 4000 03d1 74657374 		.ascii	"testResultMask\000"
 4000      52657375 
 4000      6C744D61 
 4000      736B00
 4001              	.LASF107:
 4002 03e0 746F7461 		.ascii	"totalNumSns\000"
 4002      6C4E756D 
 4002      536E7300 
 4003              	.LASF31:
 4004 03ec 6E6F6973 		.ascii	"noiseTh\000"
 4004      65546800 
 4005              	.LASF15:
 4006 03f4 63686172 		.ascii	"char\000"
 4006      00
 4007              	.LASF140:
 4008 03f9 43617053 		.ascii	"CapSense_DpProcessCsdWidgetRawCounts\000"
 4008      656E7365 
 4008      5F447050 
 4008      726F6365 
 4008      73734373 
 4009              	.LASF76:
 4010 041e 43617053 		.ascii	"CapSense_RAM_SELF_TEST_STRUCT\000"
 4010      656E7365 
 4010      5F52414D 
 4010      5F53454C 
 4010      465F5445 
 4011              	.LASF67:
 4012 043c 676C6243 		.ascii	"glbCrcCalc\000"
 4012      72634361 
 4012      6C6300
 4013              	.LASF10:
 4014 0447 75696E74 		.ascii	"uint16\000"
 4014      313600
 4015              	.LASF71:
 4016 044e 696E7642 		.ascii	"invBslnSnsId\000"
 4016      736C6E53 
 4016      6E734964 
 4016      00
ARM GAS  C:\Users\Zhu\AppData\Local\Temp\ccMjsG6v.s 			page 104


 4017              	.LASF29:
 4018 045b 7265736F 		.ascii	"resolution\000"
 4018      6C757469 
 4018      6F6E00
 4019              	.LASF83:
 4020 0466 73746174 		.ascii	"status\000"
 4020      757300
 4021              	.LASF166:
 4022 046d 47656E65 		.ascii	"Generated_Source\\PSoC4\\CapSense_Processing.c\000"
 4022      72617465 
 4022      645F536F 
 4022      75726365 
 4022      5C50536F 
 4023              	.LASF20:
 4024 049a 43617053 		.ascii	"CapSense_LOW_BSLN_RST_TYPE\000"
 4024      656E7365 
 4024      5F4C4F57 
 4024      5F42534C 
 4024      4E5F5253 
 4025              	.LASF143:
 4026 04b5 43617053 		.ascii	"CapSense_DpProcessButton\000"
 4026      656E7365 
 4026      5F447050 
 4026      726F6365 
 4026      73734275 
 4027              	.LASF61:
 4028 04ce 69646163 		.ascii	"idacComp\000"
 4028      436F6D70 
 4028      00
 4029              	.LASF167:
 4030 04d7 443A5C43 		.ascii	"D:\\CYTest\\MyELock\\MyELock.cydsn\000"
 4030      59546573 
 4030      745C4D79 
 4030      454C6F63 
 4030      6B5C4D79 
 4031              	.LASF6:
 4032 04f7 6C6F6E67 		.ascii	"long long int\000"
 4032      206C6F6E 
 4032      6720696E 
 4032      7400
 4033              	.LASF109:
 4034 0505 6E756D43 		.ascii	"numCols\000"
 4034      6F6C7300 
 4035              	.LASF34:
 4036 050d 6F6E4465 		.ascii	"onDebounce\000"
 4036      626F756E 
 4036      636500
 4037              	.LASF92:
 4038 0518 77646774 		.ascii	"wdgtList\000"
 4038      4C697374 
 4038      00
 4039              	.LASF48:
 4040 0521 62757474 		.ascii	"button6\000"
 4040      6F6E3600 
 4041              	.LASF113:
 4042 0529 43617053 		.ascii	"CapSense_FLASH_STRUCT\000"
 4042      656E7365 
ARM GAS  C:\Users\Zhu\AppData\Local\Temp\ccMjsG6v.s 			page 105


 4042      5F464C41 
 4042      53485F53 
 4042      54525543 
 4043              	.LASF110:
 4044 053f 70747232 		.ascii	"ptr2SnsCpArr\000"
 4044      536E7343 
 4044      70417272 
 4044      00
 4045              	.LASF159:
 4046 054c 43617053 		.ascii	"CapSense_dsRam\000"
 4046      656E7365 
 4046      5F647352 
 4046      616D00
 4047              	.LASF99:
 4048 055b 736E7254 		.ascii	"snrTestRawCount\000"
 4048      65737452 
 4048      6177436F 
 4048      756E7400 
 4049              	.LASF161:
 4050 056b 6D656D73 		.ascii	"memset\000"
 4050      657400
 4051              	.LASF73:
 4052 0572 73686F72 		.ascii	"shortedSnsId\000"
 4052      74656453 
 4052      6E734964 
 4052      00
 4053              	.LASF32:
 4054 057f 6E4E6F69 		.ascii	"nNoiseTh\000"
 4054      73655468 
 4054      00
 4055              	.LASF88:
 4056 0588 63736430 		.ascii	"csd0Config\000"
 4056      436F6E66 
 4056      696700
 4057              	.LASF38:
 4058 0593 43617053 		.ascii	"CapSense_RAM_WD_BASE_STRUCT\000"
 4058      656E7365 
 4058      5F52414D 
 4058      5F57445F 
 4058      42415345 
 4059              	.LASF28:
 4060 05af 43617053 		.ascii	"CapSense_WD_TYPE_ENUM\000"
 4060      656E7365 
 4060      5F57445F 
 4060      54595045 
 4060      5F454E55 
 4061              	.LASF156:
 4062 05c5 73656E73 		.ascii	"sensorStatus\000"
 4062      6F725374 
 4062      61747573 
 4062      00
 4063              	.LASF11:
 4064 05d2 75696E74 		.ascii	"uint32\000"
 4064      333200
 4065              	.LASF148:
 4066 05d9 746F7563 		.ascii	"touchTh\000"
 4066      68546800 
ARM GAS  C:\Users\Zhu\AppData\Local\Temp\ccMjsG6v.s 			page 106


 4067              	.LASF104:
 4068 05e1 70747232 		.ascii	"ptr2FltrHistory\000"
 4068      466C7472 
 4068      48697374 
 4068      6F727900 
 4069              	.LASF22:
 4070 05f1 43617053 		.ascii	"CapSense_WD_LINEAR_SLIDER_E\000"
 4070      656E7365 
 4070      5F57445F 
 4070      4C494E45 
 4070      41525F53 
 4071              	.LASF157:
 4072 060d 77645374 		.ascii	"wdStatusIndex\000"
 4072      61747573 
 4072      496E6465 
 4072      7800
 4073              	.LASF94:
 4074 061b 73656C66 		.ascii	"selfTest\000"
 4074      54657374 
 4074      00
 4075              	.LASF115:
 4076 0624 6D656448 		.ascii	"medHistory\000"
 4076      6973746F 
 4076      727900
 4077              	.LASF153:
 4078 062f 70726F78 		.ascii	"proxMask\000"
 4078      4D61736B 
 4078      00
 4079              	.LASF17:
 4080 0638 6C6F6E67 		.ascii	"long double\000"
 4080      20646F75 
 4080      626C6500 
 4081              	.LASF128:
 4082 0644 70747252 		.ascii	"ptrRamWdgt\000"
 4082      616D5764 
 4082      677400
 4083              	.LASF146:
 4084 064f 736E734D 		.ascii	"snsMask\000"
 4084      61736B00 
 4085              	.LASF98:
 4086 0657 736E7254 		.ascii	"snrTestScanCounter\000"
 4086      65737453 
 4086      63616E43 
 4086      6F756E74 
 4086      657200
 4087              	.LASF78:
 4088 066a 636F6E66 		.ascii	"configId\000"
 4088      69674964 
 4088      00
 4089              	.LASF103:
 4090 0673 70747232 		.ascii	"ptr2SnsRam\000"
 4090      536E7352 
 4090      616D00
 4091              	.LASF116:
 4092 067e 61766748 		.ascii	"avgHistory\000"
 4092      6973746F 
 4092      727900
ARM GAS  C:\Users\Zhu\AppData\Local\Temp\ccMjsG6v.s 			page 107


 4093              	.LASF87:
 4094 0689 736E7353 		.ascii	"snsStatus\000"
 4094      74617475 
 4094      7300
 4095              	.LASF27:
 4096 0693 43617053 		.ascii	"CapSense_WD_ENCODERDIAL_E\000"
 4096      656E7365 
 4096      5F57445F 
 4096      454E434F 
 4096      44455244 
 4097              	.LASF37:
 4098 06ad 736E7343 		.ascii	"snsClkSource\000"
 4098      6C6B536F 
 4098      75726365 
 4098      00
 4099              	.LASF2:
 4100 06ba 73686F72 		.ascii	"short int\000"
 4100      7420696E 
 4100      7400
 4101              	.LASF100:
 4102 06c4 43617053 		.ascii	"CapSense_RAM_STRUCT\000"
 4102      656E7365 
 4102      5F52414D 
 4102      5F535452 
 4102      55435400 
 4103              	.LASF120:
 4104 06d8 43617053 		.ascii	"CapSense_REGULAR_FLTR_STRUCT\000"
 4104      656E7365 
 4104      5F524547 
 4104      554C4152 
 4104      5F464C54 
 4105              	.LASF4:
 4106 06f5 6C6F6E67 		.ascii	"long int\000"
 4106      20696E74 
 4106      00
 4107              	.LASF84:
 4108 06fe 77646774 		.ascii	"wdgtEnable\000"
 4108      456E6162 
 4108      6C6500
 4109              	.LASF59:
 4110 0709 64696666 		.ascii	"diff\000"
 4110      00
 4111              	.LASF81:
 4112 070e 74756E65 		.ascii	"tunerCmd\000"
 4112      72436D64 
 4112      00
 4113              	.LASF42:
 4114 0717 62757474 		.ascii	"button0\000"
 4114      6F6E3000 
 4115              	.LASF43:
 4116 071f 62757474 		.ascii	"button1\000"
 4116      6F6E3100 
 4117              	.LASF44:
 4118 0727 62757474 		.ascii	"button2\000"
 4118      6F6E3200 
 4119              	.LASF45:
 4120 072f 62757474 		.ascii	"button3\000"
ARM GAS  C:\Users\Zhu\AppData\Local\Temp\ccMjsG6v.s 			page 108


 4120      6F6E3300 
 4121              	.LASF46:
 4122 0737 62757474 		.ascii	"button4\000"
 4122      6F6E3400 
 4123              	.LASF47:
 4124 073f 62757474 		.ascii	"button5\000"
 4124      6F6E3500 
 4125              	.LASF21:
 4126 0747 43617053 		.ascii	"CapSense_WD_BUTTON_E\000"
 4126      656E7365 
 4126      5F57445F 
 4126      42555454 
 4126      4F4E5F45 
 4127              	.LASF49:
 4128 075c 62757474 		.ascii	"button7\000"
 4128      6F6E3700 
 4129              	.LASF50:
 4130 0764 62757474 		.ascii	"button8\000"
 4130      6F6E3800 
 4131              	.LASF51:
 4132 076c 62757474 		.ascii	"button9\000"
 4132      6F6E3900 
 4133              	.LASF117:
 4134 0774 43617053 		.ascii	"CapSense_REGULAR_FLTR_CHANNEL_STRUCT\000"
 4134      656E7365 
 4134      5F524547 
 4134      554C4152 
 4134      5F464C54 
 4135              	.LASF137:
 4136 0799 70747253 		.ascii	"ptrSnsTmp\000"
 4136      6E73546D 
 4136      7000
 4137              	.LASF70:
 4138 07a3 696E7642 		.ascii	"invBslnWdgtId\000"
 4138      736C6E57 
 4138      64677449 
 4138      6400
 4139              	.LASF118:
 4140 07b1 43617053 		.ascii	"CapSense_PROX_FLTR_CHANNEL_STRUCT\000"
 4140      656E7365 
 4140      5F50524F 
 4140      585F464C 
 4140      54525F43 
 4141              	.LASF65:
 4142 07d3 65787443 		.ascii	"extCap\000"
 4142      617000
 4143              	.LASF149:
 4144 07da 70747244 		.ascii	"ptrDebounceCnt\000"
 4144      65626F75 
 4144      6E636543 
 4144      6E7400
 4145              	.LASF69:
 4146 07e9 77646774 		.ascii	"wdgtCrcId\000"
 4146      43726349 
 4146      6400
 4147              	.LASF86:
 4148 07f3 77646774 		.ascii	"wdgtStatus\000"
ARM GAS  C:\Users\Zhu\AppData\Local\Temp\ccMjsG6v.s 			page 109


 4148      53746174 
 4148      757300
 4149              	.LASF66:
 4150 07fe 76646461 		.ascii	"vddaVoltage\000"
 4150      566F6C74 
 4150      61676500 
 4151              	.LASF18:
 4152 080a 73697A65 		.ascii	"sizetype\000"
 4152      74797065 
 4152      00
 4153              	.LASF52:
 4154 0813 62757474 		.ascii	"buttonclr\000"
 4154      6F6E636C 
 4154      7200
 4155              	.LASF5:
 4156 081d 6C6F6E67 		.ascii	"long unsigned int\000"
 4156      20756E73 
 4156      69676E65 
 4156      6420696E 
 4156      7400
 4157              	.LASF36:
 4158 082f 69646163 		.ascii	"idacMod\000"
 4158      4D6F6400 
 4159              	.LASF68:
 4160 0837 77646774 		.ascii	"wdgtCrcCalc\000"
 4160      43726343 
 4160      616C6300 
 4161              	.LASF105:
 4162 0843 70747232 		.ascii	"ptr2DebounceArr\000"
 4162      4465626F 
 4162      756E6365 
 4162      41727200 
 4163              	.LASF30:
 4164 0853 66696E67 		.ascii	"fingerTh\000"
 4164      65725468 
 4164      00
 4165              	.LASF58:
 4166 085c 62736C6E 		.ascii	"bslnExt\000"
 4166      45787400 
 4167              	.LASF39:
 4168 0864 43617053 		.ascii	"CapSense_RAM_WD_BUTTON_STRUCT\000"
 4168      656E7365 
 4168      5F52414D 
 4168      5F57445F 
 4168      42555454 
 4169              	.LASF41:
 4170 0882 43617053 		.ascii	"CapSense_RAM_WD_PROXIMITY_STRUCT\000"
 4170      656E7365 
 4170      5F52414D 
 4170      5F57445F 
 4170      50524F58 
 4171              	.LASF1:
 4172 08a3 756E7369 		.ascii	"unsigned char\000"
 4172      676E6564 
 4172      20636861 
 4172      7200
 4173              	.LASF158:
ARM GAS  C:\Users\Zhu\AppData\Local\Temp\ccMjsG6v.s 			page 110


 4174 08b1 77645374 		.ascii	"wdStatusMask\000"
 4174      61747573 
 4174      4D61736B 
 4174      00
 4175              	.LASF139:
 4176 08be 69735072 		.ascii	"isProxWdgt\000"
 4176      6F785764 
 4176      677400
 4177              	.LASF129:
 4178 08c9 70747246 		.ascii	"ptrFlashWdgt\000"
 4178      6C617368 
 4178      57646774 
 4178      00
 4179              	.LASF106:
 4180 08d6 73746174 		.ascii	"staticConfig\000"
 4180      6963436F 
 4180      6E666967 
 4180      00
 4181              	.LASF102:
 4182 08e3 70747232 		.ascii	"ptr2WdgtRam\000"
 4182      57646774 
 4182      52616D00 
 4183              	.LASF19:
 4184 08ef 43617053 		.ascii	"CapSense_THRESHOLD_TYPE\000"
 4184      656E7365 
 4184      5F544852 
 4184      4553484F 
 4184      4C445F54 
 4185              	.LASF75:
 4186 0907 70327053 		.ascii	"p2pSnsId\000"
 4186      6E734964 
 4186      00
 4187              	.LASF114:
 4188 0910 69697248 		.ascii	"iirHistory\000"
 4188      6973746F 
 4188      727900
 4189              	.LASF57:
 4190 091b 62736C6E 		.ascii	"bslnInv\000"
 4190      496E7600 
 4191              	.LASF144:
 4192 0923 63757272 		.ascii	"currStatus\000"
 4192      53746174 
 4192      757300
 4193              	.LASF152:
 4194 092e 64696666 		.ascii	"difference\000"
 4194      6572656E 
 4194      636500
 4195              	.LASF122:
 4196 0939 43617053 		.ascii	"CapSense_PROX_FLTR_STRUCT\000"
 4196      656E7365 
 4196      5F50524F 
 4196      585F464C 
 4196      54525F53 
 4197              	.LASF54:
 4198 0953 70726F78 		.ascii	"proximity0\000"
 4198      696D6974 
 4198      793000
ARM GAS  C:\Users\Zhu\AppData\Local\Temp\ccMjsG6v.s 			page 111


 4199              	.LASF0:
 4200 095e 7369676E 		.ascii	"signed char\000"
 4200      65642063 
 4200      68617200 
 4201              	.LASF56:
 4202 096a 62736C6E 		.ascii	"bsln\000"
 4202      00
 4203              	.LASF3:
 4204 096f 73686F72 		.ascii	"short unsigned int\000"
 4204      7420756E 
 4204      7369676E 
 4204      65642069 
 4204      6E7400
 4205              	.LASF74:
 4206 0982 70327057 		.ascii	"p2pWdgtId\000"
 4206      64677449 
 4206      6400
 4207              	.LASF101:
 4208 098c 70747232 		.ascii	"ptr2SnsFlash\000"
 4208      536E7346 
 4208      6C617368 
 4208      00
 4209              	.LASF91:
 4210 0999 676C6243 		.ascii	"glbCrc\000"
 4210      726300
 4211              	.LASF9:
 4212 09a0 75696E74 		.ascii	"uint8\000"
 4212      3800
 4213              	.LASF14:
 4214 09a6 646F7562 		.ascii	"double\000"
 4214      6C6500
 4215              	.LASF60:
 4216 09ad 6E656742 		.ascii	"negBslnRstCnt\000"
 4216      736C6E52 
 4216      7374436E 
 4216      7400
 4217              	.LASF127:
 4218 09bb 77696467 		.ascii	"widgetType\000"
 4218      65745479 
 4218      706500
 4219              	.LASF79:
 4220 09c6 64657669 		.ascii	"deviceId\000"
 4220      63654964 
 4220      00
 4221              	.LASF155:
 4222 09cf 77696467 		.ascii	"widgetId\000"
 4222      65744964 
 4222      00
 4223              	.LASF63:
 4224 09d8 43617053 		.ascii	"CapSense_RAM_SNS_LIST_STRUCT\000"
 4224      656E7365 
 4224      5F52414D 
 4224      5F534E53 
 4224      5F4C4953 
 4225              	.LASF112:
 4226 09f5 77646774 		.ascii	"wdgtArray\000"
 4226      41727261 
ARM GAS  C:\Users\Zhu\AppData\Local\Temp\ccMjsG6v.s 			page 112


 4226      7900
 4227              		.ident	"GCC: (GNU Tools for ARM Embedded Processors) 5.4.1 20160609 (release) [ARM/embedded-5-bran
