ARM GAS  C:\Users\Zhu\AppData\Local\Temp\cceqVz2h.s 			page 1


   1              		.syntax unified
   2              		.cpu cortex-m0
   3              		.fpu softvfp
   4              		.eabi_attribute 20, 1
   5              		.eabi_attribute 21, 1
   6              		.eabi_attribute 23, 3
   7              		.eabi_attribute 24, 1
   8              		.eabi_attribute 25, 1
   9              		.eabi_attribute 26, 1
  10              		.eabi_attribute 30, 1
  11              		.eabi_attribute 34, 0
  12              		.eabi_attribute 18, 4
  13              		.thumb
  14              		.syntax unified
  15              		.file	"cyfitter_cfg.c"
  16              		.text
  17              	.Ltext0:
  18              		.cfi_sections	.debug_frame
  19              		.section	.text.cfg_write_bytes32,"ax",%progbits
  20              		.align	2
  21              		.code	16
  22              		.thumb_func
  23              		.type	cfg_write_bytes32, %function
  24              	cfg_write_bytes32:
  25              	.LFB5:
  26              		.file 1 "Generated_Source\\PSoC4\\cyfitter_cfg.c"
   1:Generated_Source\PSoC4/cyfitter_cfg.c **** 
   2:Generated_Source\PSoC4/cyfitter_cfg.c **** /*******************************************************************************
   3:Generated_Source\PSoC4/cyfitter_cfg.c **** * File Name: cyfitter_cfg.c
   4:Generated_Source\PSoC4/cyfitter_cfg.c **** * 
   5:Generated_Source\PSoC4/cyfitter_cfg.c **** * PSoC Creator  4.2
   6:Generated_Source\PSoC4/cyfitter_cfg.c **** *
   7:Generated_Source\PSoC4/cyfitter_cfg.c **** * Description:
   8:Generated_Source\PSoC4/cyfitter_cfg.c **** * This file contains device initialization code.
   9:Generated_Source\PSoC4/cyfitter_cfg.c **** * Except for the user defined sections in CyClockStartupError(), this file should not be modified.
  10:Generated_Source\PSoC4/cyfitter_cfg.c **** * This file is automatically generated by PSoC Creator.
  11:Generated_Source\PSoC4/cyfitter_cfg.c **** *
  12:Generated_Source\PSoC4/cyfitter_cfg.c **** ********************************************************************************
  13:Generated_Source\PSoC4/cyfitter_cfg.c **** * Copyright (c) 2007-2018 Cypress Semiconductor.  All rights reserved.
  14:Generated_Source\PSoC4/cyfitter_cfg.c **** * You may use this file only in accordance with the license, terms, conditions, 
  15:Generated_Source\PSoC4/cyfitter_cfg.c **** * disclaimers, and limitations in the end user license agreement accompanying 
  16:Generated_Source\PSoC4/cyfitter_cfg.c **** * the software package with which this file was provided.
  17:Generated_Source\PSoC4/cyfitter_cfg.c **** ********************************************************************************/
  18:Generated_Source\PSoC4/cyfitter_cfg.c **** 
  19:Generated_Source\PSoC4/cyfitter_cfg.c **** #include <string.h>
  20:Generated_Source\PSoC4/cyfitter_cfg.c **** #include "cytypes.h"
  21:Generated_Source\PSoC4/cyfitter_cfg.c **** #include "cydevice_trm.h"
  22:Generated_Source\PSoC4/cyfitter_cfg.c **** #include "cyfitter.h"
  23:Generated_Source\PSoC4/cyfitter_cfg.c **** #include "CyLib.h"
  24:Generated_Source\PSoC4/cyfitter_cfg.c **** #include "cyfitter_cfg.h"
  25:Generated_Source\PSoC4/cyfitter_cfg.c **** #include "cyapicallbacks.h"
  26:Generated_Source\PSoC4/cyfitter_cfg.c **** 
  27:Generated_Source\PSoC4/cyfitter_cfg.c **** 
  28:Generated_Source\PSoC4/cyfitter_cfg.c **** #if defined(__GNUC__) || defined(__ARMCC_VERSION)
  29:Generated_Source\PSoC4/cyfitter_cfg.c ****     #define CYPACKED 
  30:Generated_Source\PSoC4/cyfitter_cfg.c ****     #define CYPACKED_ATTR __attribute__ ((packed))
  31:Generated_Source\PSoC4/cyfitter_cfg.c ****     #define CYALIGNED __attribute__ ((aligned))
ARM GAS  C:\Users\Zhu\AppData\Local\Temp\cceqVz2h.s 			page 2


  32:Generated_Source\PSoC4/cyfitter_cfg.c ****     #define CY_CFG_UNUSED __attribute__ ((unused))
  33:Generated_Source\PSoC4/cyfitter_cfg.c ****     #ifndef CY_CFG_SECTION
  34:Generated_Source\PSoC4/cyfitter_cfg.c ****         #define CY_CFG_SECTION __attribute__ ((section(".psocinit")))
  35:Generated_Source\PSoC4/cyfitter_cfg.c ****     #endif
  36:Generated_Source\PSoC4/cyfitter_cfg.c ****     
  37:Generated_Source\PSoC4/cyfitter_cfg.c ****     #if defined(__ARMCC_VERSION)
  38:Generated_Source\PSoC4/cyfitter_cfg.c ****         #define CY_CFG_MEMORY_BARRIER() __memory_changed()
  39:Generated_Source\PSoC4/cyfitter_cfg.c ****     #else
  40:Generated_Source\PSoC4/cyfitter_cfg.c ****         #define CY_CFG_MEMORY_BARRIER() __sync_synchronize()
  41:Generated_Source\PSoC4/cyfitter_cfg.c ****     #endif
  42:Generated_Source\PSoC4/cyfitter_cfg.c ****     
  43:Generated_Source\PSoC4/cyfitter_cfg.c **** #elif defined(__ICCARM__)
  44:Generated_Source\PSoC4/cyfitter_cfg.c ****     #include <intrinsics.h>
  45:Generated_Source\PSoC4/cyfitter_cfg.c **** 
  46:Generated_Source\PSoC4/cyfitter_cfg.c ****     #define CYPACKED __packed
  47:Generated_Source\PSoC4/cyfitter_cfg.c ****     #define CYPACKED_ATTR 
  48:Generated_Source\PSoC4/cyfitter_cfg.c ****     #define CYALIGNED _Pragma("data_alignment=4")
  49:Generated_Source\PSoC4/cyfitter_cfg.c ****     #define CY_CFG_UNUSED _Pragma("diag_suppress=Pe177")
  50:Generated_Source\PSoC4/cyfitter_cfg.c ****     #define CY_CFG_SECTION _Pragma("location=\".psocinit\"")
  51:Generated_Source\PSoC4/cyfitter_cfg.c ****     
  52:Generated_Source\PSoC4/cyfitter_cfg.c ****     #define CY_CFG_MEMORY_BARRIER() __DMB()
  53:Generated_Source\PSoC4/cyfitter_cfg.c ****     
  54:Generated_Source\PSoC4/cyfitter_cfg.c **** #else
  55:Generated_Source\PSoC4/cyfitter_cfg.c ****     #error Unsupported toolchain
  56:Generated_Source\PSoC4/cyfitter_cfg.c **** #endif
  57:Generated_Source\PSoC4/cyfitter_cfg.c **** 
  58:Generated_Source\PSoC4/cyfitter_cfg.c **** #ifndef CYCODE
  59:Generated_Source\PSoC4/cyfitter_cfg.c ****     #define CYCODE
  60:Generated_Source\PSoC4/cyfitter_cfg.c **** #endif
  61:Generated_Source\PSoC4/cyfitter_cfg.c **** #ifndef CYDATA
  62:Generated_Source\PSoC4/cyfitter_cfg.c ****     #define CYDATA
  63:Generated_Source\PSoC4/cyfitter_cfg.c **** #endif
  64:Generated_Source\PSoC4/cyfitter_cfg.c **** #ifndef CYFAR
  65:Generated_Source\PSoC4/cyfitter_cfg.c ****     #define CYFAR
  66:Generated_Source\PSoC4/cyfitter_cfg.c **** #endif
  67:Generated_Source\PSoC4/cyfitter_cfg.c **** #ifndef CYXDATA
  68:Generated_Source\PSoC4/cyfitter_cfg.c ****     #define CYXDATA
  69:Generated_Source\PSoC4/cyfitter_cfg.c **** #endif
  70:Generated_Source\PSoC4/cyfitter_cfg.c **** 
  71:Generated_Source\PSoC4/cyfitter_cfg.c **** 
  72:Generated_Source\PSoC4/cyfitter_cfg.c **** CY_CFG_UNUSED
  73:Generated_Source\PSoC4/cyfitter_cfg.c **** static void CYMEMZERO(void *s, size_t n);
  74:Generated_Source\PSoC4/cyfitter_cfg.c **** CY_CFG_UNUSED
  75:Generated_Source\PSoC4/cyfitter_cfg.c **** static void CYMEMZERO(void *s, size_t n)
  76:Generated_Source\PSoC4/cyfitter_cfg.c **** {
  77:Generated_Source\PSoC4/cyfitter_cfg.c **** 	(void)memset(s, 0, n);
  78:Generated_Source\PSoC4/cyfitter_cfg.c **** }
  79:Generated_Source\PSoC4/cyfitter_cfg.c **** CY_CFG_UNUSED
  80:Generated_Source\PSoC4/cyfitter_cfg.c **** static void CYCONFIGCPY(void *dest, const void *src, size_t n);
  81:Generated_Source\PSoC4/cyfitter_cfg.c **** CY_CFG_UNUSED
  82:Generated_Source\PSoC4/cyfitter_cfg.c **** static void CYCONFIGCPY(void *dest, const void *src, size_t n)
  83:Generated_Source\PSoC4/cyfitter_cfg.c **** {
  84:Generated_Source\PSoC4/cyfitter_cfg.c **** 	(void)memcpy(dest, src, n);
  85:Generated_Source\PSoC4/cyfitter_cfg.c **** }
  86:Generated_Source\PSoC4/cyfitter_cfg.c **** CY_CFG_UNUSED
  87:Generated_Source\PSoC4/cyfitter_cfg.c **** static void CYCONFIGCPYCODE(void *dest, const void *src, size_t n);
  88:Generated_Source\PSoC4/cyfitter_cfg.c **** CY_CFG_UNUSED
ARM GAS  C:\Users\Zhu\AppData\Local\Temp\cceqVz2h.s 			page 3


  89:Generated_Source\PSoC4/cyfitter_cfg.c **** static void CYCONFIGCPYCODE(void *dest, const void *src, size_t n)
  90:Generated_Source\PSoC4/cyfitter_cfg.c **** {
  91:Generated_Source\PSoC4/cyfitter_cfg.c **** 	(void)memcpy(dest, src, n);
  92:Generated_Source\PSoC4/cyfitter_cfg.c **** }
  93:Generated_Source\PSoC4/cyfitter_cfg.c **** 
  94:Generated_Source\PSoC4/cyfitter_cfg.c **** 
  95:Generated_Source\PSoC4/cyfitter_cfg.c **** 
  96:Generated_Source\PSoC4/cyfitter_cfg.c **** 
  97:Generated_Source\PSoC4/cyfitter_cfg.c **** /* Clock startup error codes                                                   */
  98:Generated_Source\PSoC4/cyfitter_cfg.c **** #define CYCLOCKSTART_NO_ERROR    0u
  99:Generated_Source\PSoC4/cyfitter_cfg.c **** #define CYCLOCKSTART_XTAL_ERROR  1u
 100:Generated_Source\PSoC4/cyfitter_cfg.c **** #define CYCLOCKSTART_32KHZ_ERROR 2u
 101:Generated_Source\PSoC4/cyfitter_cfg.c **** #define CYCLOCKSTART_PLL_ERROR   3u
 102:Generated_Source\PSoC4/cyfitter_cfg.c **** #define CYCLOCKSTART_FLL_ERROR   4u
 103:Generated_Source\PSoC4/cyfitter_cfg.c **** #define CYCLOCKSTART_WCO_ERROR   5u
 104:Generated_Source\PSoC4/cyfitter_cfg.c **** 
 105:Generated_Source\PSoC4/cyfitter_cfg.c **** 
 106:Generated_Source\PSoC4/cyfitter_cfg.c **** #ifdef CY_NEED_CYCLOCKSTARTUPERROR
 107:Generated_Source\PSoC4/cyfitter_cfg.c **** /*******************************************************************************
 108:Generated_Source\PSoC4/cyfitter_cfg.c **** * Function Name: CyClockStartupError
 109:Generated_Source\PSoC4/cyfitter_cfg.c **** ********************************************************************************
 110:Generated_Source\PSoC4/cyfitter_cfg.c **** * Summary:
 111:Generated_Source\PSoC4/cyfitter_cfg.c **** *  If an error is encountered during clock configuration (crystal startup error,
 112:Generated_Source\PSoC4/cyfitter_cfg.c **** *  PLL lock error, etc.), the system will end up here.  Unless reimplemented by
 113:Generated_Source\PSoC4/cyfitter_cfg.c **** *  the customer, this function will stop in an infinite loop.
 114:Generated_Source\PSoC4/cyfitter_cfg.c **** *
 115:Generated_Source\PSoC4/cyfitter_cfg.c **** * Parameters:
 116:Generated_Source\PSoC4/cyfitter_cfg.c **** *   void
 117:Generated_Source\PSoC4/cyfitter_cfg.c **** *
 118:Generated_Source\PSoC4/cyfitter_cfg.c **** * Return:
 119:Generated_Source\PSoC4/cyfitter_cfg.c **** *   void
 120:Generated_Source\PSoC4/cyfitter_cfg.c **** *
 121:Generated_Source\PSoC4/cyfitter_cfg.c **** *******************************************************************************/
 122:Generated_Source\PSoC4/cyfitter_cfg.c **** CY_CFG_UNUSED
 123:Generated_Source\PSoC4/cyfitter_cfg.c **** static void CyClockStartupError(uint8 errorCode);
 124:Generated_Source\PSoC4/cyfitter_cfg.c **** CY_CFG_UNUSED
 125:Generated_Source\PSoC4/cyfitter_cfg.c **** static void CyClockStartupError(uint8 errorCode)
 126:Generated_Source\PSoC4/cyfitter_cfg.c **** {
 127:Generated_Source\PSoC4/cyfitter_cfg.c ****     /* To remove the compiler warning if errorCode not used.                */
 128:Generated_Source\PSoC4/cyfitter_cfg.c ****     errorCode = errorCode;
 129:Generated_Source\PSoC4/cyfitter_cfg.c **** 
 130:Generated_Source\PSoC4/cyfitter_cfg.c ****     /* If we have a clock startup error (bad MHz crystal, PLL lock, etc.),  */
 131:Generated_Source\PSoC4/cyfitter_cfg.c ****     /* we will end up here to allow the customer to implement something to  */
 132:Generated_Source\PSoC4/cyfitter_cfg.c ****     /* deal with the clock condition.                                       */
 133:Generated_Source\PSoC4/cyfitter_cfg.c **** 
 134:Generated_Source\PSoC4/cyfitter_cfg.c **** #ifdef CY_CFG_CLOCK_STARTUP_ERROR_CALLBACK
 135:Generated_Source\PSoC4/cyfitter_cfg.c ****     CY_CFG_Clock_Startup_ErrorCallback();
 136:Generated_Source\PSoC4/cyfitter_cfg.c **** #else
 137:Generated_Source\PSoC4/cyfitter_cfg.c ****     /*  If not using CY_CFG_CLOCK_STARTUP_ERROR_CALLBACK, place your clock startup code here. */
 138:Generated_Source\PSoC4/cyfitter_cfg.c ****     /* `#START CyClockStartupError` */
 139:Generated_Source\PSoC4/cyfitter_cfg.c **** 
 140:Generated_Source\PSoC4/cyfitter_cfg.c **** 
 141:Generated_Source\PSoC4/cyfitter_cfg.c **** 
 142:Generated_Source\PSoC4/cyfitter_cfg.c ****     /* `#END` */
 143:Generated_Source\PSoC4/cyfitter_cfg.c **** 
 144:Generated_Source\PSoC4/cyfitter_cfg.c ****     while(1) {}
 145:Generated_Source\PSoC4/cyfitter_cfg.c **** #endif /* CY_CFG_CLOCK_STARTUP_ERROR_CALLBACK */
ARM GAS  C:\Users\Zhu\AppData\Local\Temp\cceqVz2h.s 			page 4


 146:Generated_Source\PSoC4/cyfitter_cfg.c **** }
 147:Generated_Source\PSoC4/cyfitter_cfg.c **** #endif
 148:Generated_Source\PSoC4/cyfitter_cfg.c **** 
 149:Generated_Source\PSoC4/cyfitter_cfg.c **** #define CY_CFG_BASE_ADDR_COUNT 5u
 150:Generated_Source\PSoC4/cyfitter_cfg.c **** CYPACKED typedef struct
 151:Generated_Source\PSoC4/cyfitter_cfg.c **** {
 152:Generated_Source\PSoC4/cyfitter_cfg.c **** 	uint8 offset;
 153:Generated_Source\PSoC4/cyfitter_cfg.c **** 	uint8 value;
 154:Generated_Source\PSoC4/cyfitter_cfg.c **** } CYPACKED_ATTR cy_cfg_addrvalue_t;
 155:Generated_Source\PSoC4/cyfitter_cfg.c **** 
 156:Generated_Source\PSoC4/cyfitter_cfg.c **** 
 157:Generated_Source\PSoC4/cyfitter_cfg.c **** 
 158:Generated_Source\PSoC4/cyfitter_cfg.c **** /*******************************************************************************
 159:Generated_Source\PSoC4/cyfitter_cfg.c **** * Function Name: cfg_write_bytes32
 160:Generated_Source\PSoC4/cyfitter_cfg.c **** ********************************************************************************
 161:Generated_Source\PSoC4/cyfitter_cfg.c **** * Summary:
 162:Generated_Source\PSoC4/cyfitter_cfg.c **** *  This function is used for setting up the chip configuration areas that
 163:Generated_Source\PSoC4/cyfitter_cfg.c **** *  contain relatively sparse data.
 164:Generated_Source\PSoC4/cyfitter_cfg.c **** *
 165:Generated_Source\PSoC4/cyfitter_cfg.c **** * Parameters:
 166:Generated_Source\PSoC4/cyfitter_cfg.c **** *   void
 167:Generated_Source\PSoC4/cyfitter_cfg.c **** *
 168:Generated_Source\PSoC4/cyfitter_cfg.c **** * Return:
 169:Generated_Source\PSoC4/cyfitter_cfg.c **** *   void
 170:Generated_Source\PSoC4/cyfitter_cfg.c **** *
 171:Generated_Source\PSoC4/cyfitter_cfg.c **** *******************************************************************************/
 172:Generated_Source\PSoC4/cyfitter_cfg.c **** static void cfg_write_bytes32(const uint32 addr_table[], const cy_cfg_addrvalue_t data_table[]);
 173:Generated_Source\PSoC4/cyfitter_cfg.c **** static void cfg_write_bytes32(const uint32 addr_table[], const cy_cfg_addrvalue_t data_table[])
 174:Generated_Source\PSoC4/cyfitter_cfg.c **** {
  27              		.loc 1 174 0
  28              		.cfi_startproc
  29              		@ args = 0, pretend = 0, frame = 0
  30              		@ frame_needed = 0, uses_anonymous_args = 0
  31              	.LVL0:
  32 0000 F0B5     		push	{r4, r5, r6, r7, lr}
  33              		.cfi_def_cfa_offset 20
  34              		.cfi_offset 4, -20
  35              		.cfi_offset 5, -16
  36              		.cfi_offset 6, -12
  37              		.cfi_offset 7, -8
  38              		.cfi_offset 14, -4
  39              	.LVL1:
 175:Generated_Source\PSoC4/cyfitter_cfg.c **** 	/* For 32-bit little-endian architectures */
 176:Generated_Source\PSoC4/cyfitter_cfg.c **** 	uint32 i, j = 0u;
  40              		.loc 1 176 0
  41 0002 0025     		movs	r5, #0
 177:Generated_Source\PSoC4/cyfitter_cfg.c **** 	for (i = 0u; i < CY_CFG_BASE_ADDR_COUNT; i++)
  42              		.loc 1 177 0
  43 0004 0027     		movs	r7, #0
  44 0006 11E0     		b	.L2
  45              	.LVL2:
  46              	.L5:
  47              	.LBB2:
 178:Generated_Source\PSoC4/cyfitter_cfg.c **** 	{
 179:Generated_Source\PSoC4/cyfitter_cfg.c **** 		uint32 baseAddr = addr_table[i];
  48              		.loc 1 179 0
  49 0008 BB00     		lsls	r3, r7, #2
ARM GAS  C:\Users\Zhu\AppData\Local\Temp\cceqVz2h.s 			page 5


  50 000a C658     		ldr	r6, [r0, r3]
  51              	.LVL3:
 180:Generated_Source\PSoC4/cyfitter_cfg.c **** 		uint8 count = (uint8)baseAddr;
  52              		.loc 1 180 0
  53 000c F3B2     		uxtb	r3, r6
  54              	.LVL4:
 181:Generated_Source\PSoC4/cyfitter_cfg.c **** 		baseAddr &= 0xFFFFFF00u;
  55              		.loc 1 181 0
  56 000e FF22     		movs	r2, #255
  57 0010 9643     		bics	r6, r2
  58              	.LVL5:
 182:Generated_Source\PSoC4/cyfitter_cfg.c **** 		while (count != 0u)
  59              		.loc 1 182 0
  60 0012 08E0     		b	.L3
  61              	.L4:
 183:Generated_Source\PSoC4/cyfitter_cfg.c **** 		{
 184:Generated_Source\PSoC4/cyfitter_cfg.c **** 			CY_SET_REG8((void *)(baseAddr + data_table[j].offset), data_table[j].value);
  62              		.loc 1 184 0
  63 0014 6A00     		lsls	r2, r5, #1
  64 0016 8A18     		adds	r2, r1, r2
  65 0018 1478     		ldrb	r4, [r2]
  66 001a A419     		adds	r4, r4, r6
  67 001c 5278     		ldrb	r2, [r2, #1]
  68 001e 2270     		strb	r2, [r4]
 185:Generated_Source\PSoC4/cyfitter_cfg.c **** 			j++;
  69              		.loc 1 185 0
  70 0020 0135     		adds	r5, r5, #1
  71              	.LVL6:
 186:Generated_Source\PSoC4/cyfitter_cfg.c **** 			count--;
  72              		.loc 1 186 0
  73 0022 013B     		subs	r3, r3, #1
  74              	.LVL7:
  75 0024 DBB2     		uxtb	r3, r3
  76              	.LVL8:
  77              	.L3:
 182:Generated_Source\PSoC4/cyfitter_cfg.c **** 		{
  78              		.loc 1 182 0
  79 0026 002B     		cmp	r3, #0
  80 0028 F4D1     		bne	.L4
  81              	.LBE2:
 177:Generated_Source\PSoC4/cyfitter_cfg.c **** 	{
  82              		.loc 1 177 0 discriminator 2
  83 002a 0137     		adds	r7, r7, #1
  84              	.LVL9:
  85              	.L2:
 177:Generated_Source\PSoC4/cyfitter_cfg.c **** 	{
  86              		.loc 1 177 0 is_stmt 0 discriminator 1
  87 002c 042F     		cmp	r7, #4
  88 002e EBD9     		bls	.L5
 187:Generated_Source\PSoC4/cyfitter_cfg.c **** 		}
 188:Generated_Source\PSoC4/cyfitter_cfg.c **** 	}
 189:Generated_Source\PSoC4/cyfitter_cfg.c **** }
  89              		.loc 1 189 0 is_stmt 1
  90              		@ sp needed
  91              	.LVL10:
  92              	.LVL11:
  93 0030 F0BD     		pop	{r4, r5, r6, r7, pc}
ARM GAS  C:\Users\Zhu\AppData\Local\Temp\cceqVz2h.s 			page 6


  94              		.cfi_endproc
  95              	.LFE5:
  96              		.size	cfg_write_bytes32, .-cfg_write_bytes32
  97 0032 C046     		.section	.text.CYMEMZERO,"ax",%progbits
  98              		.align	2
  99              		.code	16
 100              		.thumb_func
 101              		.type	CYMEMZERO, %function
 102              	CYMEMZERO:
 103              	.LFB2:
  76:Generated_Source\PSoC4/cyfitter_cfg.c **** 	(void)memset(s, 0, n);
 104              		.loc 1 76 0
 105              		.cfi_startproc
 106              		@ args = 0, pretend = 0, frame = 0
 107              		@ frame_needed = 0, uses_anonymous_args = 0
 108              	.LVL12:
 109 0000 10B5     		push	{r4, lr}
 110              		.cfi_def_cfa_offset 8
 111              		.cfi_offset 4, -8
 112              		.cfi_offset 14, -4
 113 0002 0A00     		movs	r2, r1
  77:Generated_Source\PSoC4/cyfitter_cfg.c **** }
 114              		.loc 1 77 0
 115 0004 0021     		movs	r1, #0
 116              	.LVL13:
 117 0006 FFF7FEFF 		bl	memset
 118              	.LVL14:
  78:Generated_Source\PSoC4/cyfitter_cfg.c **** CY_CFG_UNUSED
 119              		.loc 1 78 0
 120              		@ sp needed
 121 000a 10BD     		pop	{r4, pc}
 122              		.cfi_endproc
 123              	.LFE2:
 124              		.size	CYMEMZERO, .-CYMEMZERO
 125              		.section	.psocinit,"ax",%progbits
 126              		.align	2
 127              		.code	16
 128              		.thumb_func
 129              		.type	ClockSetup, %function
 130              	ClockSetup:
 131              	.LFB6:
 190:Generated_Source\PSoC4/cyfitter_cfg.c **** 
 191:Generated_Source\PSoC4/cyfitter_cfg.c **** 
 192:Generated_Source\PSoC4/cyfitter_cfg.c **** /*******************************************************************************
 193:Generated_Source\PSoC4/cyfitter_cfg.c **** * Function Name: ClockSetup
 194:Generated_Source\PSoC4/cyfitter_cfg.c **** ********************************************************************************
 195:Generated_Source\PSoC4/cyfitter_cfg.c **** *
 196:Generated_Source\PSoC4/cyfitter_cfg.c **** * Summary:
 197:Generated_Source\PSoC4/cyfitter_cfg.c **** *   Performs the initialization of all of the clocks in the device based on the
 198:Generated_Source\PSoC4/cyfitter_cfg.c **** *   settings in the Clock tab of the DWR.  This includes enabling the requested
 199:Generated_Source\PSoC4/cyfitter_cfg.c **** *   clocks and setting the necessary dividers to produce the desired frequency. 
 200:Generated_Source\PSoC4/cyfitter_cfg.c **** *
 201:Generated_Source\PSoC4/cyfitter_cfg.c **** * Parameters:
 202:Generated_Source\PSoC4/cyfitter_cfg.c **** *   void
 203:Generated_Source\PSoC4/cyfitter_cfg.c **** *
 204:Generated_Source\PSoC4/cyfitter_cfg.c **** * Return:
 205:Generated_Source\PSoC4/cyfitter_cfg.c **** *   void
ARM GAS  C:\Users\Zhu\AppData\Local\Temp\cceqVz2h.s 			page 7


 206:Generated_Source\PSoC4/cyfitter_cfg.c **** *
 207:Generated_Source\PSoC4/cyfitter_cfg.c **** *******************************************************************************/
 208:Generated_Source\PSoC4/cyfitter_cfg.c **** static void ClockSetup(void);
 209:Generated_Source\PSoC4/cyfitter_cfg.c **** CY_CFG_SECTION
 210:Generated_Source\PSoC4/cyfitter_cfg.c **** static void ClockSetup(void)
 211:Generated_Source\PSoC4/cyfitter_cfg.c **** {
 132              		.loc 1 211 0
 133              		.cfi_startproc
 134              		@ args = 0, pretend = 0, frame = 0
 135              		@ frame_needed = 0, uses_anonymous_args = 0
 136 0000 F8B5     		push	{r3, r4, r5, r6, r7, lr}
 137              		.cfi_def_cfa_offset 24
 138              		.cfi_offset 3, -24
 139              		.cfi_offset 4, -20
 140              		.cfi_offset 5, -16
 141              		.cfi_offset 6, -12
 142              		.cfi_offset 7, -8
 143              		.cfi_offset 14, -4
 212:Generated_Source\PSoC4/cyfitter_cfg.c **** 
 213:Generated_Source\PSoC4/cyfitter_cfg.c **** 	/* Set Flash Cycles based on max possible frequency in case a glitch occurs during ClockSetup(). *
 214:Generated_Source\PSoC4/cyfitter_cfg.c **** 	CY_SET_REG32((void CYXDATA *)(CYREG_CPUSS_FLASH_CTL), (0x0012u));
 144              		.loc 1 214 0
 145 0002 274C     		ldr	r4, .L8
 146 0004 1223     		movs	r3, #18
 147 0006 2360     		str	r3, [r4]
 215:Generated_Source\PSoC4/cyfitter_cfg.c **** 
 216:Generated_Source\PSoC4/cyfitter_cfg.c **** 	/* Start the WCO */
 217:Generated_Source\PSoC4/cyfitter_cfg.c **** 	CySysClkWcoStart();
 148              		.loc 1 217 0
 149 0008 FFF7FEFF 		bl	CySysClkWcoStart
 150              	.LVL15:
 218:Generated_Source\PSoC4/cyfitter_cfg.c **** 	CyDelayCycles(12000000u); /* WCO may take up to 500ms to start */
 151              		.loc 1 218 0
 152 000c 2548     		ldr	r0, .L8+4
 153 000e FFF7FEFF 		bl	CyDelayCycles
 154              	.LVL16:
 219:Generated_Source\PSoC4/cyfitter_cfg.c **** 	(void)CySysClkWcoSetPowerMode(CY_SYS_CLK_WCO_LPM);    /* Switch to the low power mode */
 155              		.loc 1 219 0
 156 0012 0120     		movs	r0, #1
 157 0014 FFF7FEFF 		bl	CySysClkWcoSetPowerMode
 158              	.LVL17:
 220:Generated_Source\PSoC4/cyfitter_cfg.c **** 
 221:Generated_Source\PSoC4/cyfitter_cfg.c **** 	/* Setup and trim IMO based on desired frequency. */
 222:Generated_Source\PSoC4/cyfitter_cfg.c **** 	CySysClkWriteImoFreq(24u);
 159              		.loc 1 222 0
 160 0018 1820     		movs	r0, #24
 161 001a FFF7FEFF 		bl	CySysClkWriteImoFreq
 162              	.LVL18:
 223:Generated_Source\PSoC4/cyfitter_cfg.c **** 	/* CYDEV_CLK_ILO_CONFIG Starting address: CYDEV_CLK_ILO_CONFIG */
 224:Generated_Source\PSoC4/cyfitter_cfg.c **** 	CY_SET_REG32((void *)(CYREG_CLK_ILO_CONFIG), 0x80000006u);
 163              		.loc 1 224 0
 164 001e 224A     		ldr	r2, .L8+8
 165 0020 224B     		ldr	r3, .L8+12
 166 0022 1A60     		str	r2, [r3]
 225:Generated_Source\PSoC4/cyfitter_cfg.c **** 
 226:Generated_Source\PSoC4/cyfitter_cfg.c **** 	/* CYDEV_WDT_CONFIG Starting address: CYDEV_WDT_CONFIG */
 227:Generated_Source\PSoC4/cyfitter_cfg.c **** 	CY_SET_REG32((void *)(CYREG_WDT_CONFIG), 0x40000000u);
ARM GAS  C:\Users\Zhu\AppData\Local\Temp\cceqVz2h.s 			page 8


 167              		.loc 1 227 0
 168 0024 224D     		ldr	r5, .L8+16
 169 0026 8026     		movs	r6, #128
 170 0028 F605     		lsls	r6, r6, #23
 171 002a 2E60     		str	r6, [r5]
 228:Generated_Source\PSoC4/cyfitter_cfg.c **** 
 229:Generated_Source\PSoC4/cyfitter_cfg.c **** 
 230:Generated_Source\PSoC4/cyfitter_cfg.c **** 	/* Enable fast start mode for XO */
 231:Generated_Source\PSoC4/cyfitter_cfg.c **** 	CY_SET_REG32((void*)CYREG_BLE_BLERD_BB_XO, CY_GET_REG32((void*)CYREG_BLE_BLERD_BB_XO) | (uint32)0x
 172              		.loc 1 231 0
 173 002c 214A     		ldr	r2, .L8+20
 174 002e 1168     		ldr	r1, [r2]
 175 0030 0223     		movs	r3, #2
 176 0032 0B43     		orrs	r3, r1
 177 0034 1360     		str	r3, [r2]
 232:Generated_Source\PSoC4/cyfitter_cfg.c **** 	CY_SET_REG32((void *)(CYREG_BLE_BLERD_BB_XO_CAPTRIM), 0x00003E2Du);
 178              		.loc 1 232 0
 179 0036 204A     		ldr	r2, .L8+24
 180 0038 204B     		ldr	r3, .L8+28
 181 003a 1A60     		str	r2, [r3]
 233:Generated_Source\PSoC4/cyfitter_cfg.c **** 	/*Set XTAL(ECO) divider*/
 234:Generated_Source\PSoC4/cyfitter_cfg.c **** 	CY_SET_REG32((void *)(CYREG_BLE_BLESS_XTAL_CLK_DIV_CONFIG), 0x00000000u);
 182              		.loc 1 234 0
 183 003c 0027     		movs	r7, #0
 184 003e 204B     		ldr	r3, .L8+32
 185 0040 1F60     		str	r7, [r3]
 235:Generated_Source\PSoC4/cyfitter_cfg.c **** 	/* Disable Crystal Stable Interrupt before enabling ECO */
 236:Generated_Source\PSoC4/cyfitter_cfg.c **** 	CY_SET_REG32((void*)CYREG_BLE_BLESS_LL_DSM_CTRL, CY_GET_REG32((void*)CYREG_BLE_BLESS_LL_DSM_CTRL) 
 186              		.loc 1 236 0
 187 0042 204A     		ldr	r2, .L8+36
 188 0044 1368     		ldr	r3, [r2]
 189 0046 0821     		movs	r1, #8
 190 0048 8B43     		bics	r3, r1
 191 004a 1360     		str	r3, [r2]
 237:Generated_Source\PSoC4/cyfitter_cfg.c **** 	/* Start the ECO and do not check status since it is not needed for HFCLK */
 238:Generated_Source\PSoC4/cyfitter_cfg.c **** 	(void)CySysClkEcoStart(2000u);
 192              		.loc 1 238 0
 193 004c FA20     		movs	r0, #250
 194 004e C000     		lsls	r0, r0, #3
 195 0050 FFF7FEFF 		bl	CySysClkEcoStart
 196              	.LVL19:
 239:Generated_Source\PSoC4/cyfitter_cfg.c **** 	CyDelayUs(1500u); /* Wait to stabilize */
 197              		.loc 1 239 0
 198 0054 1C48     		ldr	r0, .L8+40
 199 0056 FFF7FEFF 		bl	CyDelayUs
 200              	.LVL20:
 240:Generated_Source\PSoC4/cyfitter_cfg.c **** 
 241:Generated_Source\PSoC4/cyfitter_cfg.c **** 	/* Setup phase aligned clocks */
 242:Generated_Source\PSoC4/cyfitter_cfg.c **** 	CY_SET_REG32((void *)CYREG_PERI_DIV_16_CTL2, 0x00095F00u);
 201              		.loc 1 242 0
 202 005a 1C4A     		ldr	r2, .L8+44
 203 005c 1C4B     		ldr	r3, .L8+48
 204 005e 1A60     		str	r2, [r3]
 243:Generated_Source\PSoC4/cyfitter_cfg.c **** 	CY_SET_REG32((void *)CYREG_PERI_DIV_CMD, 0x8000FF42u);
 205              		.loc 1 243 0
 206 0060 1C4B     		ldr	r3, .L8+52
 207 0062 1D4A     		ldr	r2, .L8+56
ARM GAS  C:\Users\Zhu\AppData\Local\Temp\cceqVz2h.s 			page 9


 208 0064 1A60     		str	r2, [r3]
 244:Generated_Source\PSoC4/cyfitter_cfg.c **** 	CY_SET_REG32((void *)CYREG_PERI_DIV_16_CTL0, 0x0000FE00u);
 209              		.loc 1 244 0
 210 0066 FE22     		movs	r2, #254
 211 0068 1202     		lsls	r2, r2, #8
 212 006a 1C49     		ldr	r1, .L8+60
 213 006c 0A60     		str	r2, [r1]
 245:Generated_Source\PSoC4/cyfitter_cfg.c **** 	CY_SET_REG32((void *)CYREG_PERI_DIV_CMD, 0x8000FF40u);
 214              		.loc 1 245 0
 215 006e 1C49     		ldr	r1, .L8+64
 216 0070 1960     		str	r1, [r3]
 246:Generated_Source\PSoC4/cyfitter_cfg.c **** 	CY_SET_REG32((void *)CYREG_PERI_DIV_16_CTL1, 0x0000FE00u);
 217              		.loc 1 246 0
 218 0072 1C49     		ldr	r1, .L8+68
 219 0074 0A60     		str	r2, [r1]
 247:Generated_Source\PSoC4/cyfitter_cfg.c **** 	CY_SET_REG32((void *)CYREG_PERI_DIV_CMD, 0x8000FF41u);
 220              		.loc 1 247 0
 221 0076 1C4A     		ldr	r2, .L8+72
 222 0078 1A60     		str	r2, [r3]
 248:Generated_Source\PSoC4/cyfitter_cfg.c **** 
 249:Generated_Source\PSoC4/cyfitter_cfg.c **** 	/* CYDEV_CLK_IMO_CONFIG Starting address: CYDEV_CLK_IMO_CONFIG */
 250:Generated_Source\PSoC4/cyfitter_cfg.c **** 	CY_SET_REG32((void *)(CYREG_CLK_IMO_CONFIG), 0x80000000u);
 223              		.loc 1 250 0
 224 007a 8022     		movs	r2, #128
 225 007c 1206     		lsls	r2, r2, #24
 226 007e 1B4B     		ldr	r3, .L8+76
 227 0080 1A60     		str	r2, [r3]
 251:Generated_Source\PSoC4/cyfitter_cfg.c **** 
 252:Generated_Source\PSoC4/cyfitter_cfg.c **** 	/* CYDEV_CLK_SELECT Starting address: CYDEV_CLK_SELECT */
 253:Generated_Source\PSoC4/cyfitter_cfg.c **** 	CY_SET_REG32((void *)(CYREG_CLK_SELECT), 0x00000000u);
 228              		.loc 1 253 0
 229 0082 1B4B     		ldr	r3, .L8+80
 230 0084 1F60     		str	r7, [r3]
 254:Generated_Source\PSoC4/cyfitter_cfg.c **** 
 255:Generated_Source\PSoC4/cyfitter_cfg.c **** 	/* CYDEV_PERI_PCLK_CTL8 Starting address: CYDEV_PERI_PCLK_CTL8 */
 256:Generated_Source\PSoC4/cyfitter_cfg.c **** 	CY_SET_REG32((void *)(CYREG_PERI_PCLK_CTL8), 0x00000042u);
 231              		.loc 1 256 0
 232 0086 4222     		movs	r2, #66
 233 0088 1A4B     		ldr	r3, .L8+84
 234 008a 1A60     		str	r2, [r3]
 257:Generated_Source\PSoC4/cyfitter_cfg.c **** 
 258:Generated_Source\PSoC4/cyfitter_cfg.c **** 	/* CYDEV_PERI_PCLK_CTL5 Starting address: CYDEV_PERI_PCLK_CTL5 */
 259:Generated_Source\PSoC4/cyfitter_cfg.c **** 	CY_SET_REG32((void *)(CYREG_PERI_PCLK_CTL5), 0x00000040u);
 235              		.loc 1 259 0
 236 008c 023A     		subs	r2, r2, #2
 237 008e 1A4B     		ldr	r3, .L8+88
 238 0090 1A60     		str	r2, [r3]
 260:Generated_Source\PSoC4/cyfitter_cfg.c **** 
 261:Generated_Source\PSoC4/cyfitter_cfg.c **** 	/* CYDEV_PERI_PCLK_CTL4 Starting address: CYDEV_PERI_PCLK_CTL4 */
 262:Generated_Source\PSoC4/cyfitter_cfg.c **** 	CY_SET_REG32((void *)(CYREG_PERI_PCLK_CTL4), 0x00000041u);
 239              		.loc 1 262 0
 240 0092 0132     		adds	r2, r2, #1
 241 0094 194B     		ldr	r3, .L8+92
 242 0096 1A60     		str	r2, [r3]
 263:Generated_Source\PSoC4/cyfitter_cfg.c **** 
 264:Generated_Source\PSoC4/cyfitter_cfg.c **** 	CY_SET_REG32((void *)(CYREG_WDT_CONFIG), 0x40000000u);
 243              		.loc 1 264 0
ARM GAS  C:\Users\Zhu\AppData\Local\Temp\cceqVz2h.s 			page 10


 244 0098 2E60     		str	r6, [r5]
 265:Generated_Source\PSoC4/cyfitter_cfg.c **** 	/* Set Flash Cycles based on newly configured 24.00MHz HFCLK. */
 266:Generated_Source\PSoC4/cyfitter_cfg.c **** 	CY_SET_REG32((void CYXDATA *)(CYREG_CPUSS_FLASH_CTL), (0x0011u));
 245              		.loc 1 266 0
 246 009a 1123     		movs	r3, #17
 247 009c 2360     		str	r3, [r4]
 267:Generated_Source\PSoC4/cyfitter_cfg.c **** }
 248              		.loc 1 267 0
 249              		@ sp needed
 250 009e F8BD     		pop	{r3, r4, r5, r6, r7, pc}
 251              	.L9:
 252              		.align	2
 253              	.L8:
 254 00a0 30001040 		.word	1074790448
 255 00a4 001BB700 		.word	12000000
 256 00a8 06000080 		.word	-2147483642
 257 00ac 04010B40 		.word	1074462980
 258 00b0 0C020B40 		.word	1074463244
 259 00b4 78002E40 		.word	1076756600
 260 00b8 2D3E0000 		.word	15917
 261 00bc 7C002E40 		.word	1076756604
 262 00c0 64F02E40 		.word	1076818020
 263 00c4 6CF02E40 		.word	1076818028
 264 00c8 DC050000 		.word	1500
 265 00cc 005F0900 		.word	614144
 266 00d0 08030140 		.word	1073808136
 267 00d4 00000140 		.word	1073807360
 268 00d8 42FF0080 		.word	-2147418302
 269 00dc 00030140 		.word	1073808128
 270 00e0 40FF0080 		.word	-2147418304
 271 00e4 04030140 		.word	1073808132
 272 00e8 41FF0080 		.word	-2147418303
 273 00ec 08010B40 		.word	1074462984
 274 00f0 00010B40 		.word	1074462976
 275 00f4 20010140 		.word	1073807648
 276 00f8 14010140 		.word	1073807636
 277 00fc 10010140 		.word	1073807632
 278              		.cfi_endproc
 279              	.LFE6:
 280              		.size	ClockSetup, .-ClockSetup
 281              		.section	.text.SetAnalogRoutingPumps,"ax",%progbits
 282              		.align	2
 283              		.global	SetAnalogRoutingPumps
 284              		.code	16
 285              		.thumb_func
 286              		.type	SetAnalogRoutingPumps, %function
 287              	SetAnalogRoutingPumps:
 288              	.LFB8:
 268:Generated_Source\PSoC4/cyfitter_cfg.c **** 
 269:Generated_Source\PSoC4/cyfitter_cfg.c **** 
 270:Generated_Source\PSoC4/cyfitter_cfg.c **** /* Analog API Functions */
 271:Generated_Source\PSoC4/cyfitter_cfg.c **** 
 272:Generated_Source\PSoC4/cyfitter_cfg.c **** 
 273:Generated_Source\PSoC4/cyfitter_cfg.c **** /*******************************************************************************
 274:Generated_Source\PSoC4/cyfitter_cfg.c **** * Function Name: AnalogSetDefault
 275:Generated_Source\PSoC4/cyfitter_cfg.c **** ********************************************************************************
 276:Generated_Source\PSoC4/cyfitter_cfg.c **** *
ARM GAS  C:\Users\Zhu\AppData\Local\Temp\cceqVz2h.s 			page 11


 277:Generated_Source\PSoC4/cyfitter_cfg.c **** * Summary:
 278:Generated_Source\PSoC4/cyfitter_cfg.c **** *  Sets up the analog portions of the chip to default values based on chip
 279:Generated_Source\PSoC4/cyfitter_cfg.c **** *  configuration options from the project.
 280:Generated_Source\PSoC4/cyfitter_cfg.c **** *
 281:Generated_Source\PSoC4/cyfitter_cfg.c **** * Parameters:
 282:Generated_Source\PSoC4/cyfitter_cfg.c **** *  void
 283:Generated_Source\PSoC4/cyfitter_cfg.c **** *
 284:Generated_Source\PSoC4/cyfitter_cfg.c **** * Return:
 285:Generated_Source\PSoC4/cyfitter_cfg.c **** *  void
 286:Generated_Source\PSoC4/cyfitter_cfg.c **** *
 287:Generated_Source\PSoC4/cyfitter_cfg.c **** *******************************************************************************/
 288:Generated_Source\PSoC4/cyfitter_cfg.c **** static void AnalogSetDefault(void);
 289:Generated_Source\PSoC4/cyfitter_cfg.c **** static void AnalogSetDefault(void)
 290:Generated_Source\PSoC4/cyfitter_cfg.c **** {
 291:Generated_Source\PSoC4/cyfitter_cfg.c **** 	CY_SET_XTND_REG32((void CYFAR *)CYREG_HSIOM_AMUX_SPLIT_CTL2, 0x00000003u);
 292:Generated_Source\PSoC4/cyfitter_cfg.c **** 	CY_SET_XTND_REG32((void CYFAR *)CYREG_CTBM0_DFT_CTRL, 0x00000003u);
 293:Generated_Source\PSoC4/cyfitter_cfg.c **** 	CY_SET_XTND_REG32((void CYFAR *)CYREG_CTBM1_DFT_CTRL, 0x00000003u);
 294:Generated_Source\PSoC4/cyfitter_cfg.c **** 	CY_SET_XTND_REG32((void CYFAR *)CYREG_PASS_DSAB_DSAB_CTRL, 0x00000000u);
 295:Generated_Source\PSoC4/cyfitter_cfg.c **** 	SetAnalogRoutingPumps(1);
 296:Generated_Source\PSoC4/cyfitter_cfg.c **** }
 297:Generated_Source\PSoC4/cyfitter_cfg.c **** 
 298:Generated_Source\PSoC4/cyfitter_cfg.c **** 
 299:Generated_Source\PSoC4/cyfitter_cfg.c **** /*******************************************************************************
 300:Generated_Source\PSoC4/cyfitter_cfg.c **** * Function Name: SetAnalogRoutingPumps
 301:Generated_Source\PSoC4/cyfitter_cfg.c **** ********************************************************************************
 302:Generated_Source\PSoC4/cyfitter_cfg.c **** *
 303:Generated_Source\PSoC4/cyfitter_cfg.c **** * Summary:
 304:Generated_Source\PSoC4/cyfitter_cfg.c **** * Enables or disables the analog pumps feeding analog routing switches.
 305:Generated_Source\PSoC4/cyfitter_cfg.c **** * Intended to be called at startup, based on the Vdda system configuration;
 306:Generated_Source\PSoC4/cyfitter_cfg.c **** * may be called during operation when the user informs us that the Vdda voltage crossed the pump th
 307:Generated_Source\PSoC4/cyfitter_cfg.c **** *
 308:Generated_Source\PSoC4/cyfitter_cfg.c **** * Parameters:
 309:Generated_Source\PSoC4/cyfitter_cfg.c **** *  enabled - 1 to enable the pumps, 0 to disable the pumps
 310:Generated_Source\PSoC4/cyfitter_cfg.c **** *
 311:Generated_Source\PSoC4/cyfitter_cfg.c **** * Return:
 312:Generated_Source\PSoC4/cyfitter_cfg.c **** *  void
 313:Generated_Source\PSoC4/cyfitter_cfg.c **** *
 314:Generated_Source\PSoC4/cyfitter_cfg.c **** *******************************************************************************/
 315:Generated_Source\PSoC4/cyfitter_cfg.c **** void SetAnalogRoutingPumps(uint8 enabled)
 316:Generated_Source\PSoC4/cyfitter_cfg.c **** {
 289              		.loc 1 316 0
 290              		.cfi_startproc
 291              		@ args = 0, pretend = 0, frame = 0
 292              		@ frame_needed = 0, uses_anonymous_args = 0
 293              		@ link register save eliminated.
 294              	.LVL21:
 317:Generated_Source\PSoC4/cyfitter_cfg.c **** 	uint32 regValue = CY_GET_XTND_REG32((void *)(CYREG_SAR_PUMP_CTRL));
 295              		.loc 1 317 0
 296 0000 0C4B     		ldr	r3, .L15
 297 0002 1B68     		ldr	r3, [r3]
 298              	.LVL22:
 318:Generated_Source\PSoC4/cyfitter_cfg.c **** 	if (enabled != 0u)
 299              		.loc 1 318 0
 300 0004 0028     		cmp	r0, #0
 301 0006 03D0     		beq	.L11
 319:Generated_Source\PSoC4/cyfitter_cfg.c **** 	{
 320:Generated_Source\PSoC4/cyfitter_cfg.c **** 		regValue |= 0x80000000u;
ARM GAS  C:\Users\Zhu\AppData\Local\Temp\cceqVz2h.s 			page 12


 302              		.loc 1 320 0
 303 0008 8022     		movs	r2, #128
 304 000a 1206     		lsls	r2, r2, #24
 305 000c 1343     		orrs	r3, r2
 306              	.LVL23:
 307 000e 01E0     		b	.L12
 308              	.L11:
 321:Generated_Source\PSoC4/cyfitter_cfg.c **** 	}
 322:Generated_Source\PSoC4/cyfitter_cfg.c **** 	else
 323:Generated_Source\PSoC4/cyfitter_cfg.c **** 	{
 324:Generated_Source\PSoC4/cyfitter_cfg.c **** 		regValue &= ~0x80000000u;
 309              		.loc 1 324 0
 310 0010 5B00     		lsls	r3, r3, #1
 311              	.LVL24:
 312 0012 5B08     		lsrs	r3, r3, #1
 313              	.LVL25:
 314              	.L12:
 325:Generated_Source\PSoC4/cyfitter_cfg.c **** 	}
 326:Generated_Source\PSoC4/cyfitter_cfg.c **** 	CY_SET_XTND_REG32((void *)(CYREG_SAR_PUMP_CTRL), regValue);
 315              		.loc 1 326 0
 316 0014 074A     		ldr	r2, .L15
 317 0016 1360     		str	r3, [r2]
 327:Generated_Source\PSoC4/cyfitter_cfg.c **** 	regValue = CY_GET_XTND_REG32((void *)(CYREG_CLK_IMO_CONFIG));
 318              		.loc 1 327 0
 319 0018 074B     		ldr	r3, .L15+4
 320              	.LVL26:
 321 001a 1B68     		ldr	r3, [r3]
 322              	.LVL27:
 328:Generated_Source\PSoC4/cyfitter_cfg.c **** 	if (enabled != 0u)
 323              		.loc 1 328 0
 324 001c 0028     		cmp	r0, #0
 325 001e 03D0     		beq	.L13
 329:Generated_Source\PSoC4/cyfitter_cfg.c **** 	{
 330:Generated_Source\PSoC4/cyfitter_cfg.c **** 		regValue |= 0x02000000u;
 326              		.loc 1 330 0
 327 0020 8022     		movs	r2, #128
 328 0022 9204     		lsls	r2, r2, #18
 329 0024 1343     		orrs	r3, r2
 330              	.LVL28:
 331 0026 01E0     		b	.L14
 332              	.L13:
 331:Generated_Source\PSoC4/cyfitter_cfg.c **** 	}
 332:Generated_Source\PSoC4/cyfitter_cfg.c **** 	else
 333:Generated_Source\PSoC4/cyfitter_cfg.c **** 	{
 334:Generated_Source\PSoC4/cyfitter_cfg.c **** 		regValue &= ~0x02000000u;
 333              		.loc 1 334 0
 334 0028 044A     		ldr	r2, .L15+8
 335 002a 1340     		ands	r3, r2
 336              	.LVL29:
 337              	.L14:
 335:Generated_Source\PSoC4/cyfitter_cfg.c **** 	}
 336:Generated_Source\PSoC4/cyfitter_cfg.c **** 	CY_SET_XTND_REG32((void *)(CYREG_CLK_IMO_CONFIG), regValue);
 338              		.loc 1 336 0
 339 002c 024A     		ldr	r2, .L15+4
 340 002e 1360     		str	r3, [r2]
 337:Generated_Source\PSoC4/cyfitter_cfg.c **** }
 341              		.loc 1 337 0
ARM GAS  C:\Users\Zhu\AppData\Local\Temp\cceqVz2h.s 			page 13


 342              		@ sp needed
 343 0030 7047     		bx	lr
 344              	.L16:
 345 0032 C046     		.align	2
 346              	.L15:
 347 0034 80033A40 		.word	1077543808
 348 0038 08010B40 		.word	1074462984
 349 003c FFFFFFFD 		.word	-33554433
 350              		.cfi_endproc
 351              	.LFE8:
 352              		.size	SetAnalogRoutingPumps, .-SetAnalogRoutingPumps
 353              		.section	.text.AnalogSetDefault,"ax",%progbits
 354              		.align	2
 355              		.code	16
 356              		.thumb_func
 357              		.type	AnalogSetDefault, %function
 358              	AnalogSetDefault:
 359              	.LFB7:
 290:Generated_Source\PSoC4/cyfitter_cfg.c **** 	CY_SET_XTND_REG32((void CYFAR *)CYREG_HSIOM_AMUX_SPLIT_CTL2, 0x00000003u);
 360              		.loc 1 290 0
 361              		.cfi_startproc
 362              		@ args = 0, pretend = 0, frame = 0
 363              		@ frame_needed = 0, uses_anonymous_args = 0
 364 0000 10B5     		push	{r4, lr}
 365              		.cfi_def_cfa_offset 8
 366              		.cfi_offset 4, -8
 367              		.cfi_offset 14, -4
 291:Generated_Source\PSoC4/cyfitter_cfg.c **** 	CY_SET_XTND_REG32((void CYFAR *)CYREG_CTBM0_DFT_CTRL, 0x00000003u);
 368              		.loc 1 291 0
 369 0002 0323     		movs	r3, #3
 370 0004 064A     		ldr	r2, .L18
 371 0006 1360     		str	r3, [r2]
 292:Generated_Source\PSoC4/cyfitter_cfg.c **** 	CY_SET_XTND_REG32((void CYFAR *)CYREG_CTBM1_DFT_CTRL, 0x00000003u);
 372              		.loc 1 292 0
 373 0008 064A     		ldr	r2, .L18+4
 374 000a 1360     		str	r3, [r2]
 293:Generated_Source\PSoC4/cyfitter_cfg.c **** 	CY_SET_XTND_REG32((void CYFAR *)CYREG_PASS_DSAB_DSAB_CTRL, 0x00000000u);
 375              		.loc 1 293 0
 376 000c 064A     		ldr	r2, .L18+8
 377 000e 1360     		str	r3, [r2]
 294:Generated_Source\PSoC4/cyfitter_cfg.c **** 	SetAnalogRoutingPumps(1);
 378              		.loc 1 294 0
 379 0010 0022     		movs	r2, #0
 380 0012 064B     		ldr	r3, .L18+12
 381 0014 1A60     		str	r2, [r3]
 295:Generated_Source\PSoC4/cyfitter_cfg.c **** }
 382              		.loc 1 295 0
 383 0016 0120     		movs	r0, #1
 384 0018 FFF7FEFF 		bl	SetAnalogRoutingPumps
 385              	.LVL30:
 296:Generated_Source\PSoC4/cyfitter_cfg.c **** 
 386              		.loc 1 296 0
 387              		@ sp needed
 388 001c 10BD     		pop	{r4, pc}
 389              	.L19:
 390 001e C046     		.align	2
 391              	.L18:
ARM GAS  C:\Users\Zhu\AppData\Local\Temp\cceqVz2h.s 			page 14


 392 0020 08210240 		.word	1073881352
 393 0024 30003040 		.word	1076887600
 394 0028 30003140 		.word	1076953136
 395 002c 000E3F40 		.word	1077874176
 396              		.cfi_endproc
 397              	.LFE7:
 398              		.size	AnalogSetDefault, .-AnalogSetDefault
 399              		.section	.psocinit
 400              		.align	2
 401              		.global	cyfitter_cfg
 402              		.code	16
 403              		.thumb_func
 404              		.type	cyfitter_cfg, %function
 405              	cyfitter_cfg:
 406              	.LFB9:
 338:Generated_Source\PSoC4/cyfitter_cfg.c **** 
 339:Generated_Source\PSoC4/cyfitter_cfg.c **** 
 340:Generated_Source\PSoC4/cyfitter_cfg.c **** 
 341:Generated_Source\PSoC4/cyfitter_cfg.c **** 
 342:Generated_Source\PSoC4/cyfitter_cfg.c **** /*******************************************************************************
 343:Generated_Source\PSoC4/cyfitter_cfg.c **** * Function Name: cyfitter_cfg
 344:Generated_Source\PSoC4/cyfitter_cfg.c **** ********************************************************************************
 345:Generated_Source\PSoC4/cyfitter_cfg.c **** * Summary:
 346:Generated_Source\PSoC4/cyfitter_cfg.c **** *  This function is called by the start-up code for the selected device. It
 347:Generated_Source\PSoC4/cyfitter_cfg.c **** *  performs all of the necessary device configuration based on the design
 348:Generated_Source\PSoC4/cyfitter_cfg.c **** *  settings.  This includes settings from the Design Wide Resources (DWR) such
 349:Generated_Source\PSoC4/cyfitter_cfg.c **** *  as Clocks and Pins as well as any component configuration that is necessary.
 350:Generated_Source\PSoC4/cyfitter_cfg.c **** *
 351:Generated_Source\PSoC4/cyfitter_cfg.c **** * Parameters:
 352:Generated_Source\PSoC4/cyfitter_cfg.c **** *   void
 353:Generated_Source\PSoC4/cyfitter_cfg.c **** *
 354:Generated_Source\PSoC4/cyfitter_cfg.c **** * Return:
 355:Generated_Source\PSoC4/cyfitter_cfg.c **** *   void
 356:Generated_Source\PSoC4/cyfitter_cfg.c **** *
 357:Generated_Source\PSoC4/cyfitter_cfg.c **** *******************************************************************************/
 358:Generated_Source\PSoC4/cyfitter_cfg.c **** CY_CFG_SECTION
 359:Generated_Source\PSoC4/cyfitter_cfg.c **** void cyfitter_cfg(void)
 360:Generated_Source\PSoC4/cyfitter_cfg.c **** {
 407              		.loc 1 360 0
 408              		.cfi_startproc
 409              		@ args = 0, pretend = 0, frame = 0
 410              		@ frame_needed = 0, uses_anonymous_args = 0
 411 0100 10B5     		push	{r4, lr}
 412              		.cfi_def_cfa_offset 8
 413              		.cfi_offset 4, -8
 414              		.cfi_offset 14, -4
 361:Generated_Source\PSoC4/cyfitter_cfg.c **** 	/* Disable interrupts by default. Let user enable if/when they want. */
 362:Generated_Source\PSoC4/cyfitter_cfg.c **** 	CyGlobalIntDisable;
 415              		.loc 1 362 0
 416              		.syntax divided
 417              	@ 362 "Generated_Source\PSoC4\cyfitter_cfg.c" 1
 418 0102 72B6     		CPSID   i
 419              	@ 0 "" 2
 363:Generated_Source\PSoC4/cyfitter_cfg.c **** 
 364:Generated_Source\PSoC4/cyfitter_cfg.c **** 	CY_SET_REG32((void *)(CYREG_BLE_BLESS_LL_DSM_CTRL), 0x00000000u);
 420              		.loc 1 364 0
 421              		.thumb
ARM GAS  C:\Users\Zhu\AppData\Local\Temp\cceqVz2h.s 			page 15


 422              		.syntax unified
 423 0104 0022     		movs	r2, #0
 424 0106 3A4B     		ldr	r3, .L23
 425 0108 1A60     		str	r2, [r3]
 365:Generated_Source\PSoC4/cyfitter_cfg.c **** 
 366:Generated_Source\PSoC4/cyfitter_cfg.c **** 	/* Enable the clock in the interrupt controller for the routed interrupts */
 367:Generated_Source\PSoC4/cyfitter_cfg.c **** 	CY_SET_REG8((void *)CYREG_UDB_UDBIF_INT_CLK_CTL, 0x01u);
 426              		.loc 1 367 0
 427 010a 0132     		adds	r2, r2, #1
 428 010c 394B     		ldr	r3, .L23+4
 429 010e 1A70     		strb	r2, [r3]
 430              	.LVL31:
 431              	.LBB3:
 368:Generated_Source\PSoC4/cyfitter_cfg.c **** 	{
 369:Generated_Source\PSoC4/cyfitter_cfg.c **** 		static const uint32 CYCODE cy_cfg_addr_table[] = {
 370:Generated_Source\PSoC4/cyfitter_cfg.c **** 			0x400F3004u, /* Base address: 0x400F3000 Count: 4 */
 371:Generated_Source\PSoC4/cyfitter_cfg.c **** 			0x400F3102u, /* Base address: 0x400F3100 Count: 2 */
 372:Generated_Source\PSoC4/cyfitter_cfg.c **** 			0x400F3302u, /* Base address: 0x400F3300 Count: 2 */
 373:Generated_Source\PSoC4/cyfitter_cfg.c **** 			0x400F410Cu, /* Base address: 0x400F4100 Count: 12 */
 374:Generated_Source\PSoC4/cyfitter_cfg.c **** 			0x400F6002u, /* Base address: 0x400F6000 Count: 2 */
 375:Generated_Source\PSoC4/cyfitter_cfg.c **** 		};
 376:Generated_Source\PSoC4/cyfitter_cfg.c **** 
 377:Generated_Source\PSoC4/cyfitter_cfg.c **** 		static const cy_cfg_addrvalue_t CYCODE cy_cfg_data_table[] = {
 378:Generated_Source\PSoC4/cyfitter_cfg.c **** 			{0x38u, 0x28u},
 379:Generated_Source\PSoC4/cyfitter_cfg.c **** 			{0x3Eu, 0x14u},
 380:Generated_Source\PSoC4/cyfitter_cfg.c **** 			{0x58u, 0x04u},
 381:Generated_Source\PSoC4/cyfitter_cfg.c **** 			{0x5Fu, 0x01u},
 382:Generated_Source\PSoC4/cyfitter_cfg.c **** 			{0x19u, 0x08u},
 383:Generated_Source\PSoC4/cyfitter_cfg.c **** 			{0x1Au, 0x04u},
 384:Generated_Source\PSoC4/cyfitter_cfg.c **** 			{0xADu, 0x08u},
 385:Generated_Source\PSoC4/cyfitter_cfg.c **** 			{0xAEu, 0x04u},
 386:Generated_Source\PSoC4/cyfitter_cfg.c **** 			{0x07u, 0x04u},
 387:Generated_Source\PSoC4/cyfitter_cfg.c **** 			{0x3Bu, 0x04u},
 388:Generated_Source\PSoC4/cyfitter_cfg.c **** 			{0x3Fu, 0x02u},
 389:Generated_Source\PSoC4/cyfitter_cfg.c **** 			{0x6Fu, 0x04u},
 390:Generated_Source\PSoC4/cyfitter_cfg.c **** 			{0x93u, 0x04u},
 391:Generated_Source\PSoC4/cyfitter_cfg.c **** 			{0xA3u, 0x01u},
 392:Generated_Source\PSoC4/cyfitter_cfg.c **** 			{0xAFu, 0x05u},
 393:Generated_Source\PSoC4/cyfitter_cfg.c **** 			{0xC0u, 0x80u},
 394:Generated_Source\PSoC4/cyfitter_cfg.c **** 			{0xCEu, 0xC0u},
 395:Generated_Source\PSoC4/cyfitter_cfg.c **** 			{0xDAu, 0x80u},
 396:Generated_Source\PSoC4/cyfitter_cfg.c **** 			{0xEAu, 0x40u},
 397:Generated_Source\PSoC4/cyfitter_cfg.c **** 			{0xEEu, 0x10u},
 398:Generated_Source\PSoC4/cyfitter_cfg.c **** 			{0x02u, 0x01u},
 399:Generated_Source\PSoC4/cyfitter_cfg.c **** 			{0x11u, 0x01u},
 400:Generated_Source\PSoC4/cyfitter_cfg.c **** 		};
 401:Generated_Source\PSoC4/cyfitter_cfg.c **** 
 402:Generated_Source\PSoC4/cyfitter_cfg.c **** 
 403:Generated_Source\PSoC4/cyfitter_cfg.c **** 
 404:Generated_Source\PSoC4/cyfitter_cfg.c **** 		CYPACKED typedef struct {
 405:Generated_Source\PSoC4/cyfitter_cfg.c **** 			void CYFAR *address;
 406:Generated_Source\PSoC4/cyfitter_cfg.c **** 			uint16 size;
 407:Generated_Source\PSoC4/cyfitter_cfg.c **** 		} CYPACKED_ATTR cfg_memset_t;
 408:Generated_Source\PSoC4/cyfitter_cfg.c **** 
 409:Generated_Source\PSoC4/cyfitter_cfg.c **** 		static const cfg_memset_t CYCODE cfg_memset_list[] = {
 410:Generated_Source\PSoC4/cyfitter_cfg.c **** 			/* address, size */
 411:Generated_Source\PSoC4/cyfitter_cfg.c **** 			{(void CYFAR *)(CYDEV_UDB_P0_U0_BASE), 1024u},
ARM GAS  C:\Users\Zhu\AppData\Local\Temp\cceqVz2h.s 			page 16


 412:Generated_Source\PSoC4/cyfitter_cfg.c **** 			{(void CYFAR *)(CYDEV_UDB_DSI0_BASE), 1024u},
 413:Generated_Source\PSoC4/cyfitter_cfg.c **** 		};
 414:Generated_Source\PSoC4/cyfitter_cfg.c **** 
 415:Generated_Source\PSoC4/cyfitter_cfg.c **** 		uint8 CYDATA i;
 416:Generated_Source\PSoC4/cyfitter_cfg.c **** 
 417:Generated_Source\PSoC4/cyfitter_cfg.c **** 		/* Zero out critical memory blocks before beginning configuration */
 418:Generated_Source\PSoC4/cyfitter_cfg.c **** 		for (i = 0u; i < (sizeof(cfg_memset_list)/sizeof(cfg_memset_list[0])); i++)
 432              		.loc 1 418 0
 433 0110 0024     		movs	r4, #0
 434 0112 0FE0     		b	.L21
 435              	.LVL32:
 436              	.L22:
 437              	.LBB4:
 419:Generated_Source\PSoC4/cyfitter_cfg.c **** 		{
 420:Generated_Source\PSoC4/cyfitter_cfg.c **** 			const cfg_memset_t CYCODE * CYDATA ms = &cfg_memset_list[i];
 421:Generated_Source\PSoC4/cyfitter_cfg.c **** 			CYMEMZERO(ms->address, (size_t)(uint32)(ms->size));
 438              		.loc 1 421 0 discriminator 3
 439 0114 3848     		ldr	r0, .L23+8
 440 0116 6200     		lsls	r2, r4, #1
 441 0118 1319     		adds	r3, r2, r4
 442 011a 5900     		lsls	r1, r3, #1
 443 011c 0B00     		movs	r3, r1
 444 011e 4118     		adds	r1, r0, r1
 445 0120 8988     		ldrh	r1, [r1, #4]
 446 0122 1A5A     		ldrh	r2, [r3, r0]
 447 0124 C318     		adds	r3, r0, r3
 448 0126 5888     		ldrh	r0, [r3, #2]
 449 0128 0004     		lsls	r0, r0, #16
 450 012a 1043     		orrs	r0, r2
 451 012c FFF7FEFF 		bl	CYMEMZERO
 452              	.LVL33:
 453              	.LBE4:
 418:Generated_Source\PSoC4/cyfitter_cfg.c **** 		{
 454              		.loc 1 418 0 discriminator 3
 455 0130 0134     		adds	r4, r4, #1
 456              	.LVL34:
 457 0132 E4B2     		uxtb	r4, r4
 458              	.LVL35:
 459              	.L21:
 418:Generated_Source\PSoC4/cyfitter_cfg.c **** 		{
 460              		.loc 1 418 0 is_stmt 0 discriminator 1
 461 0134 012C     		cmp	r4, #1
 462 0136 EDD9     		bls	.L22
 422:Generated_Source\PSoC4/cyfitter_cfg.c **** 		}
 423:Generated_Source\PSoC4/cyfitter_cfg.c **** 
 424:Generated_Source\PSoC4/cyfitter_cfg.c **** 		cfg_write_bytes32(cy_cfg_addr_table, cy_cfg_data_table);
 463              		.loc 1 424 0 is_stmt 1
 464 0138 2F48     		ldr	r0, .L23+8
 465 013a 0100     		movs	r1, r0
 466 013c 0C31     		adds	r1, r1, #12
 467 013e 3830     		adds	r0, r0, #56
 468 0140 FFF7FEFF 		bl	cfg_write_bytes32
 469              	.LVL36:
 425:Generated_Source\PSoC4/cyfitter_cfg.c **** 
 426:Generated_Source\PSoC4/cyfitter_cfg.c **** 		/* PWR_BG_CONFIG Starting address: CYDEV_PWR_BG_CONFIG */
 427:Generated_Source\PSoC4/cyfitter_cfg.c **** 		CY_SET_REG32((void *)(CYREG_PWR_BG_CONFIG), 0x00040000u);
 470              		.loc 1 427 0
ARM GAS  C:\Users\Zhu\AppData\Local\Temp\cceqVz2h.s 			page 17


 471 0144 8022     		movs	r2, #128
 472 0146 D202     		lsls	r2, r2, #11
 473 0148 2C4B     		ldr	r3, .L23+12
 474 014a 1A60     		str	r2, [r3]
 428:Generated_Source\PSoC4/cyfitter_cfg.c **** 
 429:Generated_Source\PSoC4/cyfitter_cfg.c **** 		/* HSIOM Starting address: CYDEV_HSIOM_BASE */
 430:Generated_Source\PSoC4/cyfitter_cfg.c **** 		CY_SET_REG32((void *)(CYDEV_HSIOM_BASE), 0xEE000000u);
 475              		.loc 1 430 0
 476 014c EE22     		movs	r2, #238
 477 014e 1206     		lsls	r2, r2, #24
 478 0150 2B4B     		ldr	r3, .L23+16
 479 0152 1A60     		str	r2, [r3]
 431:Generated_Source\PSoC4/cyfitter_cfg.c **** 		CY_SET_REG32((void *)(CYREG_HSIOM_PORT_SEL1), 0x00000800u);
 480              		.loc 1 431 0
 481 0154 8022     		movs	r2, #128
 482 0156 1201     		lsls	r2, r2, #4
 483 0158 2A4B     		ldr	r3, .L23+20
 484 015a 1A60     		str	r2, [r3]
 432:Generated_Source\PSoC4/cyfitter_cfg.c **** 
 433:Generated_Source\PSoC4/cyfitter_cfg.c **** 		/* UDB_PA_0 Starting address: CYDEV_UDB_PA0_BASE */
 434:Generated_Source\PSoC4/cyfitter_cfg.c **** 		CY_SET_REG32((void *)(CYDEV_UDB_PA0_BASE), 0x00990000u);
 485              		.loc 1 434 0
 486 015c 9923     		movs	r3, #153
 487 015e 1B04     		lsls	r3, r3, #16
 488 0160 294A     		ldr	r2, .L23+24
 489 0162 1360     		str	r3, [r2]
 435:Generated_Source\PSoC4/cyfitter_cfg.c **** 
 436:Generated_Source\PSoC4/cyfitter_cfg.c **** 		/* UDB_PA_1 Starting address: CYDEV_UDB_PA1_BASE */
 437:Generated_Source\PSoC4/cyfitter_cfg.c **** 		CY_SET_REG32((void *)(CYDEV_UDB_PA1_BASE), 0x00990004u);
 490              		.loc 1 437 0
 491 0164 2949     		ldr	r1, .L23+28
 492 0166 2A4A     		ldr	r2, .L23+32
 493 0168 1160     		str	r1, [r2]
 438:Generated_Source\PSoC4/cyfitter_cfg.c **** 		CY_SET_REG32((void *)(CYREG_UDB_PA1_CFG4), 0x00800000u);
 494              		.loc 1 438 0
 495 016a 8021     		movs	r1, #128
 496 016c 0904     		lsls	r1, r1, #16
 497 016e 294A     		ldr	r2, .L23+36
 498 0170 1160     		str	r1, [r2]
 439:Generated_Source\PSoC4/cyfitter_cfg.c **** 
 440:Generated_Source\PSoC4/cyfitter_cfg.c **** 		/* UDB_PA_2 Starting address: CYDEV_UDB_PA2_BASE */
 441:Generated_Source\PSoC4/cyfitter_cfg.c **** 		CY_SET_REG32((void *)(CYDEV_UDB_PA2_BASE), 0x00990000u);
 499              		.loc 1 441 0
 500 0172 294A     		ldr	r2, .L23+40
 501 0174 1360     		str	r3, [r2]
 442:Generated_Source\PSoC4/cyfitter_cfg.c **** 
 443:Generated_Source\PSoC4/cyfitter_cfg.c **** 		/* UDB_PA_3 Starting address: CYDEV_UDB_PA3_BASE */
 444:Generated_Source\PSoC4/cyfitter_cfg.c **** 		CY_SET_REG32((void *)(CYDEV_UDB_PA3_BASE), 0x00990000u);
 502              		.loc 1 444 0
 503 0176 294A     		ldr	r2, .L23+44
 504 0178 1360     		str	r3, [r2]
 445:Generated_Source\PSoC4/cyfitter_cfg.c **** 
 446:Generated_Source\PSoC4/cyfitter_cfg.c **** 		/* INT_SELECT Starting address: CYDEV_CPUSS_INT_SEL */
 447:Generated_Source\PSoC4/cyfitter_cfg.c **** 		CY_SET_REG32((void *)(CYREG_CPUSS_INT_SEL), 0x00000002u);
 505              		.loc 1 447 0
 506 017a 0223     		movs	r3, #2
 507 017c 284A     		ldr	r2, .L23+48
ARM GAS  C:\Users\Zhu\AppData\Local\Temp\cceqVz2h.s 			page 18


 508 017e 1360     		str	r3, [r2]
 448:Generated_Source\PSoC4/cyfitter_cfg.c **** 
 449:Generated_Source\PSoC4/cyfitter_cfg.c **** 		/* INT_CONFIG Starting address: CYDEV_UDB_INT_CFG */
 450:Generated_Source\PSoC4/cyfitter_cfg.c **** 		CY_SET_REG32((void *)(CYREG_UDB_INT_CFG), 0x00000002u);
 509              		.loc 1 450 0
 510 0180 284A     		ldr	r2, .L23+52
 511 0182 1360     		str	r3, [r2]
 451:Generated_Source\PSoC4/cyfitter_cfg.c **** 
 452:Generated_Source\PSoC4/cyfitter_cfg.c **** 		/* Enable UDB array and digital routing */
 453:Generated_Source\PSoC4/cyfitter_cfg.c **** 		CY_SET_XTND_REG8((void *)CYREG_UDB_UDBIF_WAIT_CFG, (uint8)((CY_GET_XTND_REG8((void *)CYREG_UDB_UD
 512              		.loc 1 453 0
 513 0184 2849     		ldr	r1, .L23+56
 514 0186 0B78     		ldrb	r3, [r1]
 515 0188 3C22     		movs	r2, #60
 516 018a 9343     		bics	r3, r2
 517 018c 1422     		movs	r2, #20
 518 018e 1343     		orrs	r3, r2
 519 0190 DBB2     		uxtb	r3, r3
 520 0192 0B70     		strb	r3, [r1]
 454:Generated_Source\PSoC4/cyfitter_cfg.c **** 		CY_SET_XTND_REG8((void *)CYREG_UDB_UDBIF_BANK_CTL, (uint8)(CY_GET_XTND_REG8((void *)CYREG_UDB_UDB
 521              		.loc 1 454 0
 522 0194 254A     		ldr	r2, .L23+60
 523 0196 1178     		ldrb	r1, [r2]
 524 0198 1623     		movs	r3, #22
 525 019a 0B43     		orrs	r3, r1
 526 019c DBB2     		uxtb	r3, r3
 527 019e 1370     		strb	r3, [r2]
 528              	.LBE3:
 455:Generated_Source\PSoC4/cyfitter_cfg.c **** 	}
 456:Generated_Source\PSoC4/cyfitter_cfg.c **** 
 457:Generated_Source\PSoC4/cyfitter_cfg.c **** 	/* Perform second pass device configuration. These items must be configured in specific order afte
 458:Generated_Source\PSoC4/cyfitter_cfg.c **** 	/* IOPINS0_0 Starting address: CYDEV_GPIO_PRT0_BASE */
 459:Generated_Source\PSoC4/cyfitter_cfg.c **** 	CY_SET_REG32((void *)(CYDEV_GPIO_PRT0_BASE), 0x00000034u);
 529              		.loc 1 459 0
 530 01a0 3423     		movs	r3, #52
 531 01a2 234A     		ldr	r2, .L23+64
 532 01a4 1360     		str	r3, [r2]
 460:Generated_Source\PSoC4/cyfitter_cfg.c **** 	CY_SET_REG32((void *)(CYREG_GPIO_PRT0_PC), 0x00D80000u);
 533              		.loc 1 460 0
 534 01a6 D822     		movs	r2, #216
 535 01a8 1204     		lsls	r2, r2, #16
 536 01aa 2249     		ldr	r1, .L23+68
 537 01ac 0A60     		str	r2, [r1]
 461:Generated_Source\PSoC4/cyfitter_cfg.c **** 	CY_SET_REG32((void *)(CYREG_GPIO_PRT0_PC2), 0x00000034u);
 538              		.loc 1 461 0
 539 01ae 2249     		ldr	r1, .L23+72
 540 01b0 0B60     		str	r3, [r1]
 462:Generated_Source\PSoC4/cyfitter_cfg.c **** 
 463:Generated_Source\PSoC4/cyfitter_cfg.c **** 	/* IOPINS0_1 Starting address: CYDEV_GPIO_PRT1_BASE */
 464:Generated_Source\PSoC4/cyfitter_cfg.c **** 	CY_SET_REG32((void *)(CYDEV_GPIO_PRT1_BASE), 0x00000004u);
 541              		.loc 1 464 0
 542 01b2 0421     		movs	r1, #4
 543 01b4 214B     		ldr	r3, .L23+76
 544 01b6 1960     		str	r1, [r3]
 465:Generated_Source\PSoC4/cyfitter_cfg.c **** 	CY_SET_REG32((void *)(CYREG_GPIO_PRT1_PC), 0x00DB67B0u);
 545              		.loc 1 465 0
 546 01b8 2149     		ldr	r1, .L23+80
ARM GAS  C:\Users\Zhu\AppData\Local\Temp\cceqVz2h.s 			page 19


 547 01ba 224B     		ldr	r3, .L23+84
 548 01bc 1960     		str	r1, [r3]
 466:Generated_Source\PSoC4/cyfitter_cfg.c **** 	CY_SET_REG32((void *)(CYREG_GPIO_PRT1_INTR_CFG), 0x00000040u);
 549              		.loc 1 466 0
 550 01be 4021     		movs	r1, #64
 551 01c0 214B     		ldr	r3, .L23+88
 552 01c2 1960     		str	r1, [r3]
 467:Generated_Source\PSoC4/cyfitter_cfg.c **** 
 468:Generated_Source\PSoC4/cyfitter_cfg.c **** 	/* IOPINS0_2 Starting address: CYDEV_GPIO_PRT2_BASE */
 469:Generated_Source\PSoC4/cyfitter_cfg.c **** 	CY_SET_REG32((void *)(CYDEV_GPIO_PRT2_BASE), 0x0000003Du);
 553              		.loc 1 469 0
 554 01c4 0339     		subs	r1, r1, #3
 555 01c6 214B     		ldr	r3, .L23+92
 556 01c8 1960     		str	r1, [r3]
 470:Generated_Source\PSoC4/cyfitter_cfg.c **** 	CY_SET_REG32((void *)(CYREG_GPIO_PRT2_PC2), 0x0000003Fu);
 557              		.loc 1 470 0
 558 01ca 0231     		adds	r1, r1, #2
 559 01cc 204B     		ldr	r3, .L23+96
 560 01ce 1960     		str	r1, [r3]
 471:Generated_Source\PSoC4/cyfitter_cfg.c **** 
 472:Generated_Source\PSoC4/cyfitter_cfg.c **** 	/* IOPINS0_3 Starting address: CYDEV_GPIO_PRT3_BASE */
 473:Generated_Source\PSoC4/cyfitter_cfg.c **** 	CY_SET_REG32((void *)(CYDEV_GPIO_PRT3_BASE), 0x0000000Fu);
 561              		.loc 1 473 0
 562 01d0 0F23     		movs	r3, #15
 563 01d2 2049     		ldr	r1, .L23+100
 564 01d4 0B60     		str	r3, [r1]
 474:Generated_Source\PSoC4/cyfitter_cfg.c **** 	CY_SET_REG32((void *)(CYREG_GPIO_PRT3_PC), 0x00D80000u);
 565              		.loc 1 474 0
 566 01d6 2049     		ldr	r1, .L23+104
 567 01d8 0A60     		str	r2, [r1]
 475:Generated_Source\PSoC4/cyfitter_cfg.c **** 	CY_SET_REG32((void *)(CYREG_GPIO_PRT3_PC2), 0x0000000Fu);
 568              		.loc 1 475 0
 569 01da 204A     		ldr	r2, .L23+108
 570 01dc 1360     		str	r3, [r2]
 476:Generated_Source\PSoC4/cyfitter_cfg.c **** 
 477:Generated_Source\PSoC4/cyfitter_cfg.c **** 	/* IOPINS0_4 Starting address: CYDEV_GPIO_PRT4_BASE */
 478:Generated_Source\PSoC4/cyfitter_cfg.c **** 	CY_SET_REG32((void *)(CYREG_GPIO_PRT4_PC2), 0x00000001u);
 571              		.loc 1 478 0
 572 01de 0122     		movs	r2, #1
 573 01e0 1F4B     		ldr	r3, .L23+112
 574 01e2 1A60     		str	r2, [r3]
 479:Generated_Source\PSoC4/cyfitter_cfg.c **** 
 480:Generated_Source\PSoC4/cyfitter_cfg.c **** 
 481:Generated_Source\PSoC4/cyfitter_cfg.c **** 	/* Setup clocks based on selections from Clock DWR */
 482:Generated_Source\PSoC4/cyfitter_cfg.c **** 	ClockSetup();
 575              		.loc 1 482 0
 576 01e4 FFF70CFF 		bl	ClockSetup
 577              	.LVL37:
 483:Generated_Source\PSoC4/cyfitter_cfg.c **** 
 484:Generated_Source\PSoC4/cyfitter_cfg.c **** 	/* Perform basic analog initialization to defaults */
 485:Generated_Source\PSoC4/cyfitter_cfg.c **** 	AnalogSetDefault();
 578              		.loc 1 485 0
 579 01e8 FFF7FEFF 		bl	AnalogSetDefault
 580              	.LVL38:
 486:Generated_Source\PSoC4/cyfitter_cfg.c **** 
 487:Generated_Source\PSoC4/cyfitter_cfg.c **** }
 581              		.loc 1 487 0
ARM GAS  C:\Users\Zhu\AppData\Local\Temp\cceqVz2h.s 			page 20


 582              		@ sp needed
 583              	.LVL39:
 584 01ec 10BD     		pop	{r4, pc}
 585              	.L24:
 586 01ee C046     		.align	2
 587              	.L23:
 588 01f0 6CF02E40 		.word	1076818028
 589 01f4 1C700F40 		.word	1074753564
 590 01f8 00000000 		.word	.LANCHOR0
 591 01fc 14000B40 		.word	1074462740
 592 0200 00000240 		.word	1073872896
 593 0204 00010240 		.word	1073873152
 594 0208 00500F40 		.word	1074745344
 595 020c 04009900 		.word	10027012
 596 0210 10500F40 		.word	1074745360
 597 0214 14500F40 		.word	1074745364
 598 0218 20500F40 		.word	1074745376
 599 021c 30500F40 		.word	1074745392
 600 0220 20001040 		.word	1074790432
 601 0224 00800F40 		.word	1074757632
 602 0228 01700F40 		.word	1074753537
 603 022c 00700F40 		.word	1074753536
 604 0230 00000440 		.word	1074003968
 605 0234 08000440 		.word	1074003976
 606 0238 18000440 		.word	1074003992
 607 023c 00010440 		.word	1074004224
 608 0240 B067DB00 		.word	14378928
 609 0244 08010440 		.word	1074004232
 610 0248 0C010440 		.word	1074004236
 611 024c 00020440 		.word	1074004480
 612 0250 18020440 		.word	1074004504
 613 0254 00030440 		.word	1074004736
 614 0258 08030440 		.word	1074004744
 615 025c 18030440 		.word	1074004760
 616 0260 18040440 		.word	1074005016
 617              		.cfi_endproc
 618              	.LFE9:
 619              		.size	cyfitter_cfg, .-cyfitter_cfg
 620              		.section	.rodata
 621              		.align	2
 622              		.set	.LANCHOR0,. + 0
 623              		.type	cfg_memset_list.4913, %object
 624              		.size	cfg_memset_list.4913, 12
 625              	cfg_memset_list.4913:
 626 0000 00300F40 		.word	1074737152
 627 0004 0004     		.short	1024
 628 0006 00400F40 		.4byte	1074741248
 629 000a 0004     		.short	1024
 630              		.type	cy_cfg_data_table.4908, %object
 631              		.size	cy_cfg_data_table.4908, 44
 632              	cy_cfg_data_table.4908:
 633 000c 38       		.byte	56
 634 000d 28       		.byte	40
 635 000e 3E       		.byte	62
 636 000f 14       		.byte	20
 637 0010 58       		.byte	88
 638 0011 04       		.byte	4
ARM GAS  C:\Users\Zhu\AppData\Local\Temp\cceqVz2h.s 			page 21


 639 0012 5F       		.byte	95
 640 0013 01       		.byte	1
 641 0014 19       		.byte	25
 642 0015 08       		.byte	8
 643 0016 1A       		.byte	26
 644 0017 04       		.byte	4
 645 0018 AD       		.byte	-83
 646 0019 08       		.byte	8
 647 001a AE       		.byte	-82
 648 001b 04       		.byte	4
 649 001c 07       		.byte	7
 650 001d 04       		.byte	4
 651 001e 3B       		.byte	59
 652 001f 04       		.byte	4
 653 0020 3F       		.byte	63
 654 0021 02       		.byte	2
 655 0022 6F       		.byte	111
 656 0023 04       		.byte	4
 657 0024 93       		.byte	-109
 658 0025 04       		.byte	4
 659 0026 A3       		.byte	-93
 660 0027 01       		.byte	1
 661 0028 AF       		.byte	-81
 662 0029 05       		.byte	5
 663 002a C0       		.byte	-64
 664 002b 80       		.byte	-128
 665 002c CE       		.byte	-50
 666 002d C0       		.byte	-64
 667 002e DA       		.byte	-38
 668 002f 80       		.byte	-128
 669 0030 EA       		.byte	-22
 670 0031 40       		.byte	64
 671 0032 EE       		.byte	-18
 672 0033 10       		.byte	16
 673 0034 02       		.byte	2
 674 0035 01       		.byte	1
 675 0036 11       		.byte	17
 676 0037 01       		.byte	1
 677              		.type	cy_cfg_addr_table.4907, %object
 678              		.size	cy_cfg_addr_table.4907, 20
 679              	cy_cfg_addr_table.4907:
 680 0038 04300F40 		.word	1074737156
 681 003c 02310F40 		.word	1074737410
 682 0040 02330F40 		.word	1074737922
 683 0044 0C410F40 		.word	1074741516
 684 0048 02600F40 		.word	1074749442
 685              		.text
 686              	.Letext0:
 687              		.file 2 "c:\\program files (x86)\\cypress\\psoc creator\\4.2\\psoc creator\\import\\gnu\\arm\\5.4.
 688              		.file 3 "Generated_Source\\PSoC4\\cytypes.h"
 689              		.file 4 "Generated_Source\\PSoC4\\CyLFClk.h"
 690              		.file 5 "Generated_Source\\PSoC4\\CyLib.h"