ARM GAS  C:\Users\ADMINI~1\AppData\Local\Temp\ccExyicL.s 			page 1


   1              		.syntax unified
   2              		.cpu cortex-m0
   3              		.fpu softvfp
   4              		.eabi_attribute 20, 1
   5              		.eabi_attribute 21, 1
   6              		.eabi_attribute 23, 3
   7              		.eabi_attribute 24, 1
   8              		.eabi_attribute 25, 1
   9              		.eabi_attribute 26, 1
  10              		.eabi_attribute 30, 1
  11              		.eabi_attribute 34, 0
  12              		.eabi_attribute 18, 4
  13              		.thumb
  14              		.syntax unified
  15              		.file	"debug.c"
  16              		.text
  17              	.Ltext0:
  18              		.cfi_sections	.debug_frame
  19              		.section	.text._write,"ax",%progbits
  20              		.align	2
  21              		.global	_write
  22              		.code	16
  23              		.thumb_func
  24              		.type	_write, %function
  25              	_write:
  26              	.LFB36:
  27              		.file 1 "debug.c"
   1:debug.c       **** /*******************************************************************************
   2:debug.c       **** * File Name: debug.c
   3:debug.c       **** *
   4:debug.c       **** * Version: 1.0
   5:debug.c       **** *
   6:debug.c       **** * Description:
   7:debug.c       **** *  This file contains functions for printf functionality.
   8:debug.c       **** *
   9:debug.c       **** * Hardware Dependency:
  10:debug.c       **** *  CY8CKIT-042 BLE
  11:debug.c       **** * 
  12:debug.c       **** ********************************************************************************
  13:debug.c       **** * Copyright 2015, Cypress Semiconductor Corporation.  All rights reserved.
  14:debug.c       **** * You may use this file only in accordance with the license, terms, conditions,
  15:debug.c       **** * disclaimers, and limitations in the end user license agreement accompanying
  16:debug.c       **** * the software package with which this file was provided.
  17:debug.c       **** *******************************************************************************/
  18:debug.c       **** 
  19:debug.c       **** 
  20:debug.c       **** #include "common.h"
  21:debug.c       **** 
  22:debug.c       **** #if (DEBUG_UART_ENABLED == ENABLED)
  23:debug.c       **** 
  24:debug.c       **** #if defined(__ARMCC_VERSION)
  25:debug.c       ****     
  26:debug.c       **** /* For MDK/RVDS compiler revise fputc function for printf functionality */
  27:debug.c       **** struct __FILE 
  28:debug.c       **** {
  29:debug.c       ****     int handle;  
  30:debug.c       **** };
ARM GAS  C:\Users\ADMINI~1\AppData\Local\Temp\ccExyicL.s 			page 2


  31:debug.c       **** 
  32:debug.c       **** enum 
  33:debug.c       **** {
  34:debug.c       ****     STDIN_HANDLE,
  35:debug.c       ****     STDOUT_HANDLE,
  36:debug.c       ****     STDERR_HANDLE
  37:debug.c       **** };
  38:debug.c       **** 
  39:debug.c       **** FILE __stdin = {STDIN_HANDLE};
  40:debug.c       **** FILE __stdout = {STDOUT_HANDLE};
  41:debug.c       **** FILE __stderr = {STDERR_HANDLE};
  42:debug.c       **** 
  43:debug.c       **** int fputc(int ch, FILE *file) 
  44:debug.c       **** {
  45:debug.c       ****     int ret = EOF;
  46:debug.c       **** 
  47:debug.c       ****     switch( file->handle )
  48:debug.c       ****     {
  49:debug.c       ****         case STDOUT_HANDLE:
  50:debug.c       ****             UART_DEB_UartPutChar(ch);
  51:debug.c       ****             ret = ch ;
  52:debug.c       ****             break ;
  53:debug.c       **** 
  54:debug.c       ****         case STDERR_HANDLE:
  55:debug.c       ****             ret = ch ;
  56:debug.c       ****             break ;
  57:debug.c       **** 
  58:debug.c       ****         default:
  59:debug.c       ****             file = file;
  60:debug.c       ****             break ;
  61:debug.c       ****     }
  62:debug.c       ****     return ret ;
  63:debug.c       **** }
  64:debug.c       **** 
  65:debug.c       **** #elif defined (__ICCARM__)      /* IAR */
  66:debug.c       **** 
  67:debug.c       **** /* For IAR compiler revise __write() function for printf functionality */
  68:debug.c       **** size_t __write(int handle, const unsigned char * buffer, size_t size)
  69:debug.c       **** {
  70:debug.c       ****     size_t nChars = 0;
  71:debug.c       **** 
  72:debug.c       ****     if (buffer == 0)
  73:debug.c       ****     {
  74:debug.c       ****         /*
  75:debug.c       ****          * This means that we should flush internal buffers.  Since we
  76:debug.c       ****          * don't we just return.  (Remember, "handle" == -1 means that all
  77:debug.c       ****          * handles should be flushed.)
  78:debug.c       ****          */
  79:debug.c       ****         return (0);
  80:debug.c       ****     }
  81:debug.c       **** 
  82:debug.c       ****     for (/* Empty */; size != 0; --size)
  83:debug.c       ****     {
  84:debug.c       ****         UART_DEB_UartPutChar(*buffer++);
  85:debug.c       ****         ++nChars;
  86:debug.c       ****     }
  87:debug.c       **** 
ARM GAS  C:\Users\ADMINI~1\AppData\Local\Temp\ccExyicL.s 			page 3


  88:debug.c       ****     return (nChars);
  89:debug.c       **** }
  90:debug.c       **** 
  91:debug.c       **** #else  /* (__GNUC__)  GCC */
  92:debug.c       **** 
  93:debug.c       **** /* For GCC compiler revise _write() function for printf functionality */
  94:debug.c       **** int _write(int file, char *ptr, int len)
  95:debug.c       **** {
  28              		.loc 1 95 0
  29              		.cfi_startproc
  30              		@ args = 0, pretend = 0, frame = 0
  31              		@ frame_needed = 0, uses_anonymous_args = 0
  32              	.LVL0:
  33 0000 70B5     		push	{r4, r5, r6, lr}
  34              		.cfi_def_cfa_offset 16
  35              		.cfi_offset 4, -16
  36              		.cfi_offset 5, -12
  37              		.cfi_offset 6, -8
  38              		.cfi_offset 14, -4
  39 0002 1600     		movs	r6, r2
  40              	.LVL1:
  96:debug.c       ****     int i;
  97:debug.c       ****     file = file;
  98:debug.c       ****     for (i = 0; i < len; i++)
  41              		.loc 1 98 0
  42 0004 0024     		movs	r4, #0
  43 0006 05E0     		b	.L2
  44              	.LVL2:
  45              	.L3:
  99:debug.c       ****     {
 100:debug.c       ****         UART_DEB_UartPutChar(*ptr++);
  46              		.loc 1 100 0 discriminator 3
  47 0008 4D1C     		adds	r5, r1, #1
  48              	.LVL3:
  49 000a 0878     		ldrb	r0, [r1]
  50 000c FFF7FEFF 		bl	UART_DEB_SpiUartWriteTxData
  51              	.LVL4:
  98:debug.c       ****     {
  52              		.loc 1 98 0 discriminator 3
  53 0010 0134     		adds	r4, r4, #1
  54              	.LVL5:
  55              		.loc 1 100 0 discriminator 3
  56 0012 2900     		movs	r1, r5
  57              	.LVL6:
  58              	.L2:
  98:debug.c       ****     {
  59              		.loc 1 98 0 discriminator 1
  60 0014 B442     		cmp	r4, r6
  61 0016 F7DB     		blt	.L3
 101:debug.c       ****     }
 102:debug.c       ****     return len;
 103:debug.c       **** }
  62              		.loc 1 103 0
  63 0018 3000     		movs	r0, r6
  64              		@ sp needed
  65              	.LVL7:
  66              	.LVL8:
ARM GAS  C:\Users\ADMINI~1\AppData\Local\Temp\ccExyicL.s 			page 4


  67 001a 70BD     		pop	{r4, r5, r6, pc}
  68              		.cfi_endproc
  69              	.LFE36:
  70              		.size	_write, .-_write
  71              		.section	.text.ShowValue,"ax",%progbits
  72              		.align	2
  73              		.global	ShowValue
  74              		.code	16
  75              		.thumb_func
  76              		.type	ShowValue, %function
  77              	ShowValue:
  78              	.LFB37:
 104:debug.c       **** 
 105:debug.c       **** 
 106:debug.c       **** #endif  /* (__ARMCC_VERSION) */   
 107:debug.c       **** 
 108:debug.c       **** #endif /* DEBUG_UART_ENABLED == ENABLED */
 109:debug.c       **** 
 110:debug.c       **** 
 111:debug.c       **** void ShowValue(CYBLE_GATT_VALUE_T *value)
 112:debug.c       **** {
  79              		.loc 1 112 0
  80              		.cfi_startproc
  81              		@ args = 0, pretend = 0, frame = 0
  82              		@ frame_needed = 0, uses_anonymous_args = 0
  83              	.LVL9:
  84 0000 70B5     		push	{r4, r5, r6, lr}
  85              		.cfi_def_cfa_offset 16
  86              		.cfi_offset 4, -16
  87              		.cfi_offset 5, -12
  88              		.cfi_offset 6, -8
  89              		.cfi_offset 14, -4
  90 0002 0500     		movs	r5, r0
  91              	.LVL10:
 113:debug.c       ****     int16 i;
 114:debug.c       ****     
 115:debug.c       ****     for(i = 0; i < value->len; i++)
  92              		.loc 1 115 0
  93 0004 0024     		movs	r4, #0
  94 0006 06E0     		b	.L5
  95              	.LVL11:
  96              	.L6:
 116:debug.c       ****     {
 117:debug.c       ****         DBG_PRINTF("%2.2x ", value->val[i]);
  97              		.loc 1 117 0 discriminator 3
  98 0008 2B68     		ldr	r3, [r5]
  99 000a 195D     		ldrb	r1, [r3, r4]
 100 000c 0548     		ldr	r0, .L7
 101 000e FFF7FEFF 		bl	printf
 102              	.LVL12:
 115:debug.c       ****     {
 103              		.loc 1 115 0 discriminator 3
 104 0012 0134     		adds	r4, r4, #1
 105              	.LVL13:
 106 0014 24B2     		sxth	r4, r4
 107              	.LVL14:
 108              	.L5:
ARM GAS  C:\Users\ADMINI~1\AppData\Local\Temp\ccExyicL.s 			page 5


 115:debug.c       ****     {
 109              		.loc 1 115 0 is_stmt 0 discriminator 1
 110 0016 AB88     		ldrh	r3, [r5, #4]
 111 0018 9C42     		cmp	r4, r3
 112 001a F5DB     		blt	.L6
 118:debug.c       ****     }
 119:debug.c       ****     DBG_PRINTF("\r\n");
 113              		.loc 1 119 0 is_stmt 1
 114 001c 0248     		ldr	r0, .L7+4
 115 001e FFF7FEFF 		bl	puts
 116              	.LVL15:
 120:debug.c       **** }
 117              		.loc 1 120 0
 118              		@ sp needed
 119              	.LVL16:
 120              	.LVL17:
 121 0022 70BD     		pop	{r4, r5, r6, pc}
 122              	.L8:
 123              		.align	2
 124              	.L7:
 125 0024 00000000 		.word	.LC0
 126 0028 08000000 		.word	.LC2
 127              		.cfi_endproc
 128              	.LFE37:
 129              		.size	ShowValue, .-ShowValue
 130              		.section	.text.Set32ByPtr,"ax",%progbits
 131              		.align	2
 132              		.global	Set32ByPtr
 133              		.code	16
 134              		.thumb_func
 135              		.type	Set32ByPtr, %function
 136              	Set32ByPtr:
 137              	.LFB38:
 121:debug.c       **** 
 122:debug.c       **** 
 123:debug.c       **** void Set32ByPtr(uint8 ptr[], uint32 value)
 124:debug.c       **** {
 138              		.loc 1 124 0
 139              		.cfi_startproc
 140              		@ args = 0, pretend = 0, frame = 0
 141              		@ frame_needed = 0, uses_anonymous_args = 0
 142              		@ link register save eliminated.
 143              	.LVL18:
 125:debug.c       ****     ptr[0u] = (uint8) value;
 144              		.loc 1 125 0
 145 0000 0170     		strb	r1, [r0]
 126:debug.c       ****     ptr[1u] = (uint8) (value >> 8u);    
 146              		.loc 1 126 0
 147 0002 0B0A     		lsrs	r3, r1, #8
 148 0004 4370     		strb	r3, [r0, #1]
 127:debug.c       ****     ptr[2u] = (uint8) (value >> 16u);    
 149              		.loc 1 127 0
 150 0006 0B0C     		lsrs	r3, r1, #16
 151 0008 8370     		strb	r3, [r0, #2]
 128:debug.c       ****     ptr[3u] = (uint8) (value >> 24u);
 152              		.loc 1 128 0
 153 000a 090E     		lsrs	r1, r1, #24
ARM GAS  C:\Users\ADMINI~1\AppData\Local\Temp\ccExyicL.s 			page 6


 154              	.LVL19:
 155 000c C170     		strb	r1, [r0, #3]
 129:debug.c       **** }
 156              		.loc 1 129 0
 157              		@ sp needed
 158 000e 7047     		bx	lr
 159              		.cfi_endproc
 160              	.LFE38:
 161              		.size	Set32ByPtr, .-Set32ByPtr
 162              		.section	.rodata.str1.4,"aMS",%progbits,1
 163              		.align	2
 164              	.LC0:
 165 0000 25322E32 		.ascii	"%2.2x \000"
 165      782000
 166 0007 00       		.space	1
 167              	.LC2:
 168 0008 0D00     		.ascii	"\015\000"
 169              		.text
 170              	.Letext0:
 171              		.file 2 "Generated_Source\\PSoC4/cytypes.h"
 172              		.file 3 "Generated_Source\\PSoC4/BLE_1_StackGatt.h"
 173              		.file 4 "Generated_Source\\PSoC4/UART_DEB_SPI_UART.h"
 174              		.file 5 "c:\\program files (x86)\\cypress\\psoc creator\\4.2\\psoc creator\\import\\gnu\\arm\\5.4.
 175              		.file 6 "<built-in>"