ARM GAS  C:\Users\ADMINI~1\AppData\Local\Temp\ccNIUHwd.s 			page 1


   1              		.syntax unified
   2              		.cpu cortex-m0
   3              		.fpu softvfp
   4              		.eabi_attribute 20, 1
   5              		.eabi_attribute 21, 1
   6              		.eabi_attribute 23, 3
   7              		.eabi_attribute 24, 1
   8              		.eabi_attribute 25, 1
   9              		.eabi_attribute 26, 1
  10              		.eabi_attribute 30, 1
  11              		.eabi_attribute 34, 0
  12              		.eabi_attribute 18, 4
  13              		.thumb
  14              		.syntax unified
  15              		.file	"global.c"
  16              		.text
  17              	.Ltext0:
  18              		.cfi_sections	.debug_frame
  19              		.section	.text.Create,"ax",%progbits
  20              		.align	2
  21              		.global	Create
  22              		.code	16
  23              		.thumb_func
  24              		.type	Create, %function
  25              	Create:
  26              	.LFB0:
  27              		.file 1 "global.c"
   1:global.c      **** #include "global.h"
   2:global.c      **** 
   3:global.c      **** #define zzndebug
   4:global.c      **** 
   5:global.c      **** pcb_def pcb_clockchain;
   6:global.c      **** pcb_def pcb_MOTO;
   7:global.c      **** //pcb_def pcb_AC_In;
   8:global.c      **** //pcb_def pcb_DC_Out;
   9:global.c      **** //pcb_def pcb_DC_In;
  10:global.c      **** //pcb_def pcb_manager;
  11:global.c      **** //pcb_def pcb_lcd;
  12:global.c      **** //pcb_def pcb_keyread;
  13:global.c      **** //pcb_def pcb_keyprocess;
  14:global.c      **** 
  15:global.c      **** void Create(pcb_def * ppcb,unsigned char mode,unsigned char mesg)
  16:global.c      **** {
  28              		.loc 1 16 0
  29              		.cfi_startproc
  30              		@ args = 0, pretend = 0, frame = 0
  31              		@ frame_needed = 0, uses_anonymous_args = 0
  32              		@ link register save eliminated.
  33              	.LVL0:
  17:global.c      **** 	if(ppcb -> status == destroy)
  34              		.loc 1 17 0
  35 0000 0378     		ldrb	r3, [r0]
  36 0002 002B     		cmp	r3, #0
  37 0004 06D1     		bne	.L2
  18:global.c      **** 	{
  19:global.c      **** 		ppcb -> mode = mode;		
  38              		.loc 1 19 0
ARM GAS  C:\Users\ADMINI~1\AppData\Local\Temp\ccNIUHwd.s 			page 2


  39 0006 4170     		strb	r1, [r0, #1]
  20:global.c      **** 		ppcb -> clk = 0;
  40              		.loc 1 20 0
  41 0008 8360     		str	r3, [r0, #8]
  21:global.c      **** 		ppcb -> step = 0;
  42              		.loc 1 21 0
  43 000a 4360     		str	r3, [r0, #4]
  22:global.c      **** 		ppcb -> status = ready;
  44              		.loc 1 22 0
  45 000c 0133     		adds	r3, r3, #1
  46 000e 0370     		strb	r3, [r0]
  23:global.c      **** 		ppcb -> message = mesg;
  47              		.loc 1 23 0
  48 0010 0273     		strb	r2, [r0, #12]
  24:global.c      **** 	}
  25:global.c      **** 	else
  26:global.c      **** 	{
  27:global.c      **** 		while (1);
  28:global.c      **** 	}
  29:global.c      **** }
  49              		.loc 1 29 0
  50 0012 00E0     		b	.L3
  51              	.L2:
  52 0014 FEE7     		b	.L2
  53              	.L3:
  54              		@ sp needed
  55 0016 7047     		bx	lr
  56              		.cfi_endproc
  57              	.LFE0:
  58              		.size	Create, .-Create
  59              		.section	.text.Block,"ax",%progbits
  60              		.align	2
  61              		.global	Block
  62              		.code	16
  63              		.thumb_func
  64              		.type	Block, %function
  65              	Block:
  66              	.LFB1:
  30:global.c      **** void Block(pcb_def * ppcb,unsigned int clk)
  31:global.c      **** {
  67              		.loc 1 31 0
  68              		.cfi_startproc
  69              		@ args = 0, pretend = 0, frame = 0
  70              		@ frame_needed = 0, uses_anonymous_args = 0
  71              		@ link register save eliminated.
  72              	.LVL1:
  32:global.c      **** 	if(ppcb -> status != destroy)
  73              		.loc 1 32 0
  74 0000 0378     		ldrb	r3, [r0]
  75 0002 002B     		cmp	r3, #0
  76 0004 04D0     		beq	.L4
  33:global.c      **** 	{
  34:global.c      **** 		ppcb -> status = block;
  77              		.loc 1 34 0
  78 0006 0323     		movs	r3, #3
  79 0008 0370     		strb	r3, [r0]
  35:global.c      **** 		ppcb -> clk = clk;
ARM GAS  C:\Users\ADMINI~1\AppData\Local\Temp\ccNIUHwd.s 			page 3


  80              		.loc 1 35 0
  81 000a 8160     		str	r1, [r0, #8]
  36:global.c      **** 		ppcb -> message = msgNone;
  82              		.loc 1 36 0
  83 000c 0023     		movs	r3, #0
  84 000e 0373     		strb	r3, [r0, #12]
  85              	.L4:
  37:global.c      **** 	}
  38:global.c      **** }
  86              		.loc 1 38 0
  87              		@ sp needed
  88 0010 7047     		bx	lr
  89              		.cfi_endproc
  90              	.LFE1:
  91              		.size	Block, .-Block
  92 0012 C046     		.section	.text.Wakeup,"ax",%progbits
  93              		.align	2
  94              		.global	Wakeup
  95              		.code	16
  96              		.thumb_func
  97              		.type	Wakeup, %function
  98              	Wakeup:
  99              	.LFB2:
  39:global.c      **** 
  40:global.c      **** void Wakeup(pcb_def * ppcb,unsigned char mesg)
  41:global.c      **** {
 100              		.loc 1 41 0
 101              		.cfi_startproc
 102              		@ args = 0, pretend = 0, frame = 0
 103              		@ frame_needed = 0, uses_anonymous_args = 0
 104              		@ link register save eliminated.
 105              	.LVL2:
  42:global.c      **** 	if(ppcb -> status == block)
 106              		.loc 1 42 0
 107 0000 0378     		ldrb	r3, [r0]
 108 0002 032B     		cmp	r3, #3
 109 0004 05D1     		bne	.L7
  43:global.c      **** 	{
  44:global.c      **** 		ppcb -> status = ready;
 110              		.loc 1 44 0
 111 0006 023B     		subs	r3, r3, #2
 112 0008 0370     		strb	r3, [r0]
  45:global.c      **** 		ppcb -> clk = 0;		
 113              		.loc 1 45 0
 114 000a 0023     		movs	r3, #0
 115 000c 8360     		str	r3, [r0, #8]
  46:global.c      **** 		ppcb -> message = mesg;
 116              		.loc 1 46 0
 117 000e 0173     		strb	r1, [r0, #12]
  47:global.c      **** 	}
  48:global.c      **** 	else
  49:global.c      **** 	{
  50:global.c      **** 		while (1);
  51:global.c      **** 	}
  52:global.c      **** }
 118              		.loc 1 52 0
 119 0010 00E0     		b	.L8
ARM GAS  C:\Users\ADMINI~1\AppData\Local\Temp\ccNIUHwd.s 			page 4


 120              	.L7:
 121 0012 FEE7     		b	.L7
 122              	.L8:
 123              		@ sp needed
 124 0014 7047     		bx	lr
 125              		.cfi_endproc
 126              	.LFE2:
 127              		.size	Wakeup, .-Wakeup
 128 0016 C046     		.section	.text.Destroy,"ax",%progbits
 129              		.align	2
 130              		.global	Destroy
 131              		.code	16
 132              		.thumb_func
 133              		.type	Destroy, %function
 134              	Destroy:
 135              	.LFB3:
  53:global.c      **** void Destroy(pcb_def * ppcb)
  54:global.c      **** {
 136              		.loc 1 54 0
 137              		.cfi_startproc
 138              		@ args = 0, pretend = 0, frame = 0
 139              		@ frame_needed = 0, uses_anonymous_args = 0
 140              		@ link register save eliminated.
 141              	.LVL3:
  55:global.c      **** 	ppcb -> clk = 0;
 142              		.loc 1 55 0
 143 0000 0023     		movs	r3, #0
 144 0002 8360     		str	r3, [r0, #8]
  56:global.c      **** 	ppcb -> mode = mode_none;
 145              		.loc 1 56 0
 146 0004 4370     		strb	r3, [r0, #1]
  57:global.c      **** 	ppcb -> step = 0;
 147              		.loc 1 57 0
 148 0006 4360     		str	r3, [r0, #4]
  58:global.c      **** 	ppcb -> status = destroy;
 149              		.loc 1 58 0
 150 0008 0370     		strb	r3, [r0]
  59:global.c      **** 	ppcb -> message = msgNone;	
 151              		.loc 1 59 0
 152 000a 0373     		strb	r3, [r0, #12]
  60:global.c      **** }
 153              		.loc 1 60 0
 154              		@ sp needed
 155 000c 7047     		bx	lr
 156              		.cfi_endproc
 157              	.LFE3:
 158              		.size	Destroy, .-Destroy
 159 000e C046     		.section	.text.InitArray,"ax",%progbits
 160              		.align	2
 161              		.global	InitArray
 162              		.code	16
 163              		.thumb_func
 164              		.type	InitArray, %function
 165              	InitArray:
 166              	.LFB4:
  61:global.c      **** 
  62:global.c      **** void InitArray(unsigned char *p,unsigned char len,unsigned char dat)
ARM GAS  C:\Users\ADMINI~1\AppData\Local\Temp\ccNIUHwd.s 			page 5


  63:global.c      **** {
 167              		.loc 1 63 0
 168              		.cfi_startproc
 169              		@ args = 0, pretend = 0, frame = 0
 170              		@ frame_needed = 0, uses_anonymous_args = 0
 171              		@ link register save eliminated.
 172              	.LVL4:
  64:global.c      **** 	unsigned char i;
  65:global.c      **** 	for(i=0;i<len;i++)
 173              		.loc 1 65 0
 174 0000 0023     		movs	r3, #0
 175 0002 03E0     		b	.L11
 176              	.LVL5:
 177              	.L12:
  66:global.c      **** 	{
  67:global.c      **** 		*p=dat;
 178              		.loc 1 67 0 discriminator 3
 179 0004 0270     		strb	r2, [r0]
  68:global.c      **** 		p++;
 180              		.loc 1 68 0 discriminator 3
 181 0006 0130     		adds	r0, r0, #1
 182              	.LVL6:
  65:global.c      **** 	{
 183              		.loc 1 65 0 discriminator 3
 184 0008 0133     		adds	r3, r3, #1
 185              	.LVL7:
 186 000a DBB2     		uxtb	r3, r3
 187              	.LVL8:
 188              	.L11:
  65:global.c      **** 	{
 189              		.loc 1 65 0 is_stmt 0 discriminator 1
 190 000c 8B42     		cmp	r3, r1
 191 000e F9D3     		bcc	.L12
  69:global.c      **** 	}
  70:global.c      **** }
 192              		.loc 1 70 0 is_stmt 1
 193              		@ sp needed
 194 0010 7047     		bx	lr
 195              		.cfi_endproc
 196              	.LFE4:
 197              		.size	InitArray, .-InitArray
 198 0012 C046     		.section	.text.copyArray,"ax",%progbits
 199              		.align	2
 200              		.global	copyArray
 201              		.code	16
 202              		.thumb_func
 203              		.type	copyArray, %function
 204              	copyArray:
 205              	.LFB5:
  71:global.c      **** 
  72:global.c      **** void copyArray(unsigned char *pSource,unsigned char *pDest,unsigned char j)
  73:global.c      **** {
 206              		.loc 1 73 0
 207              		.cfi_startproc
 208              		@ args = 0, pretend = 0, frame = 0
 209              		@ frame_needed = 0, uses_anonymous_args = 0
 210              	.LVL9:
ARM GAS  C:\Users\ADMINI~1\AppData\Local\Temp\ccNIUHwd.s 			page 6


 211 0000 10B5     		push	{r4, lr}
 212              		.cfi_def_cfa_offset 8
 213              		.cfi_offset 4, -8
 214              		.cfi_offset 14, -4
 215              	.LVL10:
  74:global.c      **** 	unsigned char i;
  75:global.c      **** 	for(i=0;i<j;i++)
 216              		.loc 1 75 0
 217 0002 0023     		movs	r3, #0
 218 0004 05E0     		b	.L14
 219              	.LVL11:
 220              	.L15:
  76:global.c      **** 	{
  77:global.c      **** 		*pDest = *pSource;
 221              		.loc 1 77 0 discriminator 3
 222 0006 0478     		ldrb	r4, [r0]
 223 0008 0C70     		strb	r4, [r1]
  78:global.c      **** 		pSource++;
 224              		.loc 1 78 0 discriminator 3
 225 000a 0130     		adds	r0, r0, #1
 226              	.LVL12:
  79:global.c      **** 		pDest++;
 227              		.loc 1 79 0 discriminator 3
 228 000c 0131     		adds	r1, r1, #1
 229              	.LVL13:
  75:global.c      **** 	{
 230              		.loc 1 75 0 discriminator 3
 231 000e 0133     		adds	r3, r3, #1
 232              	.LVL14:
 233 0010 DBB2     		uxtb	r3, r3
 234              	.LVL15:
 235              	.L14:
  75:global.c      **** 	{
 236              		.loc 1 75 0 is_stmt 0 discriminator 1
 237 0012 9342     		cmp	r3, r2
 238 0014 F7D3     		bcc	.L15
  80:global.c      **** 	}
  81:global.c      **** }
 239              		.loc 1 81 0 is_stmt 1
 240              		@ sp needed
 241 0016 10BD     		pop	{r4, pc}
 242              		.cfi_endproc
 243              	.LFE5:
 244              		.size	copyArray, .-copyArray
 245              		.comm	pcb_MOTO,16,4
 246              		.comm	pcb_clockchain,16,4
 247              		.text
 248              	.Letext0:
 249              		.file 2 "global.h"