ARM GAS  C:\Users\ADMINI~1\AppData\Local\Temp\ccN5pE43.s 			page 1


   1              		.syntax unified
   2              		.cpu cortex-m0
   3              		.fpu softvfp
   4              		.eabi_attribute 20, 1
   5              		.eabi_attribute 21, 1
   6              		.eabi_attribute 23, 3
   7              		.eabi_attribute 24, 1
   8              		.eabi_attribute 25, 1
   9              		.eabi_attribute 26, 1
  10              		.eabi_attribute 30, 1
  11              		.eabi_attribute 34, 0
  12              		.eabi_attribute 18, 4
  13              		.thumb
  14              		.syntax unified
  15              		.file	"main.c"
  16              		.text
  17              	.Ltext0:
  18              		.cfi_sections	.debug_frame
  19              		.section	.text.InterruptHandler_PWM,"ax",%progbits
  20              		.align	2
  21              		.global	InterruptHandler_PWM
  22              		.code	16
  23              		.thumb_func
  24              		.type	InterruptHandler_PWM, %function
  25              	InterruptHandler_PWM:
  26              	.LFB36:
  27              		.file 1 "main.c"
   1:main.c        **** #include <project.h>
   2:main.c        **** #include "zmain.h"
   3:main.c        **** 
   4:main.c        **** CYBLE_API_RESULT_T      bleApiResult;
   5:main.c        **** 
   6:main.c        **** CY_ISR(InterruptHandler_PWM)
   7:main.c        **** {
  28              		.loc 1 7 0
  29              		.cfi_startproc
  30              		@ args = 0, pretend = 0, frame = 0
  31              		@ frame_needed = 0, uses_anonymous_args = 0
  32 0000 10B5     		push	{r4, lr}
  33              		.cfi_def_cfa_offset 8
  34              		.cfi_offset 4, -8
  35              		.cfi_offset 14, -4
   8:main.c        ****     ZWakeup(&pcb_ZClockchain);
  36              		.loc 1 8 0
  37 0002 0348     		ldr	r0, .L2
  38 0004 FFF7FEFF 		bl	ZWakeup
  39              	.LVL0:
   9:main.c        ****     PWM_ClearInterrupt(PWM_INTR_MASK_TC);
  40              		.loc 1 9 0
  41 0008 0120     		movs	r0, #1
  42 000a FFF7FEFF 		bl	PWM_ClearInterrupt
  43              	.LVL1:
  10:main.c        **** }
  44              		.loc 1 10 0
  45              		@ sp needed
  46 000e 10BD     		pop	{r4, pc}
  47              	.L3:
ARM GAS  C:\Users\ADMINI~1\AppData\Local\Temp\ccN5pE43.s 			page 2


  48              		.align	2
  49              	.L2:
  50 0010 00000000 		.word	pcb_ZClockchain
  51              		.cfi_endproc
  52              	.LFE36:
  53              		.size	InterruptHandler_PWM, .-InterruptHandler_PWM
  54              		.section	.text.InterruptHandler_Finger,"ax",%progbits
  55              		.align	2
  56              		.global	InterruptHandler_Finger
  57              		.code	16
  58              		.thumb_func
  59              		.type	InterruptHandler_Finger, %function
  60              	InterruptHandler_Finger:
  61              	.LFB37:
  11:main.c        **** 
  12:main.c        **** CY_ISR(InterruptHandler_Finger)
  13:main.c        **** {
  62              		.loc 1 13 0
  63              		.cfi_startproc
  64              		@ args = 0, pretend = 0, frame = 0
  65              		@ frame_needed = 0, uses_anonymous_args = 0
  66 0000 10B5     		push	{r4, lr}
  67              		.cfi_def_cfa_offset 8
  68              		.cfi_offset 4, -8
  69              		.cfi_offset 14, -4
  14:main.c        ****     ISR_Finger_ClearPending();
  70              		.loc 1 14 0
  71 0002 FFF7FEFF 		bl	ISR_Finger_ClearPending
  72              	.LVL2:
  15:main.c        **** 
  16:main.c        **** }
  73              		.loc 1 16 0
  74              		@ sp needed
  75 0006 10BD     		pop	{r4, pc}
  76              		.cfi_endproc
  77              	.LFE37:
  78              		.size	InterruptHandler_Finger, .-InterruptHandler_Finger
  79              		.section	.text.main,"ax",%progbits
  80              		.align	2
  81              		.global	main
  82              		.code	16
  83              		.thumb_func
  84              		.type	main, %function
  85              	main:
  86              	.LFB38:
  17:main.c        **** 
  18:main.c        **** /*******************************************************************************
  19:main.c        **** * Function Name: main
  20:main.c        **** ********************************************************************************
  21:main.c        **** *
  22:main.c        **** *  The main function performs the following actions:
  23:main.c        **** *   1. Sets up and enables the PWM and its interrupt.
  24:main.c        **** *   2. Starts the PWM Component
  25:main.c        **** *
  26:main.c        **** *******************************************************************************/
  27:main.c        **** int main(void)
  28:main.c        **** {
ARM GAS  C:\Users\ADMINI~1\AppData\Local\Temp\ccN5pE43.s 			page 3


  87              		.loc 1 28 0
  88              		.cfi_startproc
  89              		@ Volatile: function does not return.
  90              		@ args = 0, pretend = 0, frame = 0
  91              		@ frame_needed = 0, uses_anonymous_args = 0
  92 0000 10B5     		push	{r4, lr}
  93              		.cfi_def_cfa_offset 8
  94              		.cfi_offset 4, -8
  95              		.cfi_offset 14, -4
  29:main.c        ****     MOTOR_A_Write(0);
  96              		.loc 1 29 0
  97 0002 0020     		movs	r0, #0
  98 0004 FFF7FEFF 		bl	MOTOR_A_Write
  99              	.LVL3:
  30:main.c        ****     MOTOR_B_Write(0);
 100              		.loc 1 30 0
 101 0008 0020     		movs	r0, #0
 102 000a FFF7FEFF 		bl	MOTOR_B_Write
 103              	.LVL4:
  31:main.c        ****     MOTOR_C_Write(0);
 104              		.loc 1 31 0
 105 000e 0020     		movs	r0, #0
 106 0010 FFF7FEFF 		bl	MOTOR_C_Write
 107              	.LVL5:
  32:main.c        ****     MOTOR_D_Write(0);
 108              		.loc 1 32 0
 109 0014 0020     		movs	r0, #0
 110 0016 FFF7FEFF 		bl	MOTOR_D_Write
 111              	.LVL6:
  33:main.c        ****     
  34:main.c        **** //    DIM;
  35:main.c        ****     Pin_G_Write(1);
 112              		.loc 1 35 0
 113 001a 0120     		movs	r0, #1
 114 001c FFF7FEFF 		bl	Pin_G_Write
 115              	.LVL7:
  36:main.c        ****     Pin_B_Write(0);
 116              		.loc 1 36 0
 117 0020 0020     		movs	r0, #0
 118 0022 FFF7FEFF 		bl	Pin_B_Write
 119              	.LVL8:
  37:main.c        **** 
  38:main.c        ****     ZpcbInit();
 120              		.loc 1 38 0
 121 0026 FFF7FEFF 		bl	ZpcbInit
 122              	.LVL9:
  39:main.c        ****     
  40:main.c        ****     CyGlobalIntEnable;
 123              		.loc 1 40 0
 124              		.syntax divided
 125              	@ 40 "main.c" 1
 126 002a 62B6     		CPSIE   i
 127              	@ 0 "" 2
  41:main.c        **** 
  42:main.c        ****     keyBufferIndex =0;
 128              		.loc 1 42 0
 129              		.thumb
ARM GAS  C:\Users\ADMINI~1\AppData\Local\Temp\ccN5pE43.s 			page 4


 130              		.syntax unified
 131 002c 0022     		movs	r2, #0
 132 002e 244B     		ldr	r3, .L14
 133 0030 1A70     		strb	r2, [r3]
  43:main.c        ****     
  44:main.c        ****     ISR_Finger_StartEx(InterruptHandler_Finger);  
 134              		.loc 1 44 0
 135 0032 2448     		ldr	r0, .L14+4
 136 0034 FFF7FEFF 		bl	ISR_Finger_StartEx
 137              	.LVL10:
  45:main.c        ****     ISR_PWM_StartEx(InterruptHandler_PWM);
 138              		.loc 1 45 0
 139 0038 2348     		ldr	r0, .L14+8
 140 003a FFF7FEFF 		bl	ISR_PWM_StartEx
 141              	.LVL11:
  46:main.c        **** 
  47:main.c        **** #ifdef ezi2c
  48:main.c        ****     EZI2C_Start();
  49:main.c        ****     EZI2C_EzI2CSetBuffer1(sizeof(CapSense_dsRam), sizeof(CapSense_dsRam),(uint8 *)&CapSense_dsRam);
  50:main.c        **** #endif 
  51:main.c        **** 
  52:main.c        ****     bleApiResult = CyBle_Start(AppCallBack);
 142              		.loc 1 52 0
 143 003e 2348     		ldr	r0, .L14+12
 144 0040 FFF7FEFF 		bl	CyBle_Start
 145              	.LVL12:
 146 0044 224B     		ldr	r3, .L14+16
 147 0046 1880     		strh	r0, [r3]
  53:main.c        ****     CapSense_Start();
 148              		.loc 1 53 0
 149 0048 FFF7FEFF 		bl	CapSense_Start
 150              	.LVL13:
  54:main.c        ****     PWM_Start();
 151              		.loc 1 54 0
 152 004c FFF7FEFF 		bl	PWM_Start
 153              	.LVL14:
  55:main.c        **** 
  56:main.c        **** #ifdef DEBUG_UART
  57:main.c        ****     UART_DEB_Start();
  58:main.c        ****     if(bleApiResult != CYBLE_ERROR_OK)
  59:main.c        ****     {
  60:main.c        ****         DBG_PRINTF("\n\r\t\tCyBle stack initilization FAILED!!! \n\r ");
  61:main.c        ****     }    
  62:main.c        **** #endif
  63:main.c        ****     eepromReturnValue = Em_EEPROM_Init((uint32_t)Em_EEPROM_em_EepromStorage);
 154              		.loc 1 63 0
 155 0050 2048     		ldr	r0, .L14+20
 156 0052 FFF7FEFF 		bl	Em_EEPROM_Init
 157              	.LVL15:
 158 0056 204B     		ldr	r3, .L14+24
 159 0058 1870     		strb	r0, [r3]
  64:main.c        ****     if(eepromReturnValue != CY_EM_EEPROM_SUCCESS)
 160              		.loc 1 64 0
 161 005a 0028     		cmp	r0, #0
 162 005c 05D0     		beq	.L6
  65:main.c        ****     {
  66:main.c        ****         ZCreate(&pcb_ZBeep,mdBeep,eeprom_error);
ARM GAS  C:\Users\ADMINI~1\AppData\Local\Temp\ccN5pE43.s 			page 5


 163              		.loc 1 66 0
 164 005e 0522     		movs	r2, #5
 165 0060 0421     		movs	r1, #4
 166 0062 1E48     		ldr	r0, .L14+28
 167 0064 FFF7FEFF 		bl	ZCreate
 168              	.LVL16:
 169 0068 08E0     		b	.L12
 170              	.L6:
  67:main.c        ****     }
  68:main.c        ****     else
  69:main.c        ****     {
  70:main.c        ****         if(PSD_Restore() == false)
 171              		.loc 1 70 0
 172 006a FFF7FEFF 		bl	PSD_Restore
 173              	.LVL17:
 174 006e 0028     		cmp	r0, #0
 175 0070 04D1     		bne	.L12
  71:main.c        ****         {
  72:main.c        ****             ZCreate(&pcb_ZBeep,mdBeep,eeprom_error);        
 176              		.loc 1 72 0
 177 0072 0522     		movs	r2, #5
 178 0074 0421     		movs	r1, #4
 179 0076 1948     		ldr	r0, .L14+28
 180 0078 FFF7FEFF 		bl	ZCreate
 181              	.LVL18:
 182              	.L12:
  73:main.c        ****         }
  74:main.c        ****     }
  75:main.c        ****     while(1)
  76:main.c        ****     {
  77:main.c        ****         CyBle_ProcessEvents(); 
 183              		.loc 1 77 0
 184 007c FFF7FEFF 		bl	CyBle_ProcessEvents
 185              	.LVL19:
  78:main.c        ****         
  79:main.c        ****         if(pcb_ZClockchain.status == ready)	ZClock_Chain();
 186              		.loc 1 79 0
 187 0080 174B     		ldr	r3, .L14+32
 188 0082 1B78     		ldrb	r3, [r3]
 189 0084 012B     		cmp	r3, #1
 190 0086 01D1     		bne	.L8
 191              		.loc 1 79 0 is_stmt 0 discriminator 1
 192 0088 FFF7FEFF 		bl	ZClock_Chain
 193              	.LVL20:
 194              	.L8:
  80:main.c        ****         if(pcb_ZKey.status == ready) ZKey();
 195              		.loc 1 80 0 is_stmt 1
 196 008c 154B     		ldr	r3, .L14+36
 197 008e 1B78     		ldrb	r3, [r3]
 198 0090 012B     		cmp	r3, #1
 199 0092 01D1     		bne	.L9
 200              		.loc 1 80 0 is_stmt 0 discriminator 1
 201 0094 FFF7FEFF 		bl	ZKey
 202              	.LVL21:
 203              	.L9:
  81:main.c        **** 		if(pcb_ZMoto.status == ready) ZMoto();
 204              		.loc 1 81 0 is_stmt 1
ARM GAS  C:\Users\ADMINI~1\AppData\Local\Temp\ccN5pE43.s 			page 6


 205 0098 134B     		ldr	r3, .L14+40
 206 009a 1B78     		ldrb	r3, [r3]
 207 009c 012B     		cmp	r3, #1
 208 009e 01D1     		bne	.L10
 209              		.loc 1 81 0 is_stmt 0 discriminator 1
 210 00a0 FFF7FEFF 		bl	ZMoto
 211              	.LVL22:
 212              	.L10:
  82:main.c        **** 		if(pcb_ZBeep.status == ready) ZBeep();
 213              		.loc 1 82 0 is_stmt 1
 214 00a4 0D4B     		ldr	r3, .L14+28
 215 00a6 1B78     		ldrb	r3, [r3]
 216 00a8 012B     		cmp	r3, #1
 217 00aa 01D1     		bne	.L11
 218              		.loc 1 82 0 is_stmt 0 discriminator 1
 219 00ac FFF7FEFF 		bl	ZBeep
 220              	.LVL23:
 221              	.L11:
  83:main.c        ****         if(pcb_ZManager.status == ready) ZManager();
 222              		.loc 1 83 0 is_stmt 1
 223 00b0 0E4B     		ldr	r3, .L14+44
 224 00b2 1B78     		ldrb	r3, [r3]
 225 00b4 012B     		cmp	r3, #1
 226 00b6 E1D1     		bne	.L12
 227              		.loc 1 83 0 is_stmt 0 discriminator 1
 228 00b8 FFF7FEFF 		bl	ZManager
 229              	.LVL24:
 230 00bc DEE7     		b	.L12
 231              	.L15:
 232 00be C046     		.align	2
 233              	.L14:
 234 00c0 00000000 		.word	keyBufferIndex
 235 00c4 00000000 		.word	InterruptHandler_Finger
 236 00c8 00000000 		.word	InterruptHandler_PWM
 237 00cc 00000000 		.word	AppCallBack
 238 00d0 00000000 		.word	bleApiResult
 239 00d4 00000000 		.word	Em_EEPROM_em_EepromStorage
 240 00d8 00000000 		.word	eepromReturnValue
 241 00dc 00000000 		.word	pcb_ZBeep
 242 00e0 00000000 		.word	pcb_ZClockchain
 243 00e4 00000000 		.word	pcb_ZKey
 244 00e8 00000000 		.word	pcb_ZMoto
 245 00ec 00000000 		.word	pcb_ZManager
 246              		.cfi_endproc
 247              	.LFE38:
 248              		.size	main, .-main
 249              		.comm	bleApiResult,2,2
 250              		.text
 251              	.Letext0:
 252              		.file 2 "c:\\program files (x86)\\cypress\\psoc creator\\4.2\\psoc creator\\import\\gnu\\arm\\5.4.
 253              		.file 3 "c:\\program files (x86)\\cypress\\psoc creator\\4.2\\psoc creator\\import\\gnu\\arm\\5.4.
 254              		.file 4 "Generated_Source\\PSoC4/cytypes.h"
 255              		.file 5 "Generated_Source\\PSoC4/BLE_1_Stack.h"
 256              		.file 6 "Generated_Source\\PSoC4/cy_em_eeprom.h"
 257              		.file 7 "zglobal.h"
 258              		.file 8 "Generated_Source\\PSoC4/Em_EEPROM.h"
 259              		.file 9 "zmanager.h"
ARM GAS  C:\Users\ADMINI~1\AppData\Local\Temp\ccN5pE43.s 			page 7


 260              		.file 10 "eeprom.h"
 261              		.file 11 "Generated_Source\\PSoC4/PWM.h"
 262              		.file 12 "Generated_Source\\PSoC4/ISR_Finger.h"
 263              		.file 13 "Generated_Source\\PSoC4/MOTOR_A.h"
 264              		.file 14 "Generated_Source\\PSoC4/MOTOR_B.h"
 265              		.file 15 "Generated_Source\\PSoC4/MOTOR_C.h"
 266              		.file 16 "Generated_Source\\PSoC4/MOTOR_D.h"
 267              		.file 17 "Generated_Source\\PSoC4/Pin_G.h"
 268              		.file 18 "Generated_Source\\PSoC4/Pin_B.h"
 269              		.file 19 "Generated_Source\\PSoC4/ISR_PWM.h"
 270              		.file 20 "Generated_Source\\PSoC4/BLE_1.h"
 271              		.file 21 "Generated_Source\\PSoC4/CapSense_Control.h"
 272              		.file 22 "ztimer.h"
 273              		.file 23 "zkey.h"
 274              		.file 24 "zmoto.h"
 275              		.file 25 "zbeep.h"