ARM GAS  C:\Users\ADMINI~1\AppData\Local\Temp\ccEMKQ5K.s 			page 1


   1              		.syntax unified
   2              		.cpu cortex-m0
   3              		.fpu softvfp
   4              		.eabi_attribute 20, 1
   5              		.eabi_attribute 21, 1
   6              		.eabi_attribute 23, 3
   7              		.eabi_attribute 24, 1
   8              		.eabi_attribute 25, 1
   9              		.eabi_attribute 26, 1
  10              		.eabi_attribute 30, 1
  11              		.eabi_attribute 34, 0
  12              		.eabi_attribute 18, 4
  13              		.thumb
  14              		.syntax unified
  15              		.file	"zdebug.c"
  16              		.text
  17              	.Ltext0:
  18              		.cfi_sections	.debug_frame
  19              		.section	.text.ShowValue,"ax",%progbits
  20              		.align	2
  21              		.global	ShowValue
  22              		.code	16
  23              		.thumb_func
  24              		.type	ShowValue, %function
  25              	ShowValue:
  26              	.LFB36:
  27              		.file 1 "zdebug.c"
   1:zdebug.c      **** /*******************************************************************************
   2:zdebug.c      **** * File Name: debug.c
   3:zdebug.c      **** *
   4:zdebug.c      **** * Version: 1.0
   5:zdebug.c      **** *
   6:zdebug.c      **** * Description:
   7:zdebug.c      **** *  This file contains functions for printf functionality.
   8:zdebug.c      **** *
   9:zdebug.c      **** * Hardware Dependency:
  10:zdebug.c      **** *  CY8CKIT-042 BLE
  11:zdebug.c      **** * 
  12:zdebug.c      **** ********************************************************************************
  13:zdebug.c      **** * Copyright 2015, Cypress Semiconductor Corporation.  All rights reserved.
  14:zdebug.c      **** * You may use this file only in accordance with the license, terms, conditions,
  15:zdebug.c      **** * disclaimers, and limitations in the end user license agreement accompanying
  16:zdebug.c      **** * the software package with which this file was provided.
  17:zdebug.c      **** *******************************************************************************/
  18:zdebug.c      **** 
  19:zdebug.c      **** 
  20:zdebug.c      **** #include "zcommon.h"
  21:zdebug.c      **** 
  22:zdebug.c      **** #if (DEBUG_UART_ENABLED == ENABLED)
  23:zdebug.c      **** 
  24:zdebug.c      **** #if defined(__ARMCC_VERSION)
  25:zdebug.c      ****     
  26:zdebug.c      **** /* For MDK/RVDS compiler revise fputc function for printf functionality */
  27:zdebug.c      **** struct __FILE 
  28:zdebug.c      **** {
  29:zdebug.c      ****     int handle;  
  30:zdebug.c      **** };
ARM GAS  C:\Users\ADMINI~1\AppData\Local\Temp\ccEMKQ5K.s 			page 2


  31:zdebug.c      **** 
  32:zdebug.c      **** enum 
  33:zdebug.c      **** {
  34:zdebug.c      ****     STDIN_HANDLE,
  35:zdebug.c      ****     STDOUT_HANDLE,
  36:zdebug.c      ****     STDERR_HANDLE
  37:zdebug.c      **** };
  38:zdebug.c      **** 
  39:zdebug.c      **** FILE __stdin = {STDIN_HANDLE};
  40:zdebug.c      **** FILE __stdout = {STDOUT_HANDLE};
  41:zdebug.c      **** FILE __stderr = {STDERR_HANDLE};
  42:zdebug.c      **** 
  43:zdebug.c      **** int fputc(int ch, FILE *file) 
  44:zdebug.c      **** {
  45:zdebug.c      ****     int ret = EOF;
  46:zdebug.c      **** 
  47:zdebug.c      ****     switch( file->handle )
  48:zdebug.c      ****     {
  49:zdebug.c      ****         case STDOUT_HANDLE:
  50:zdebug.c      ****             UART_DEB_UartPutChar(ch);
  51:zdebug.c      ****             ret = ch ;
  52:zdebug.c      ****             break ;
  53:zdebug.c      **** 
  54:zdebug.c      ****         case STDERR_HANDLE:
  55:zdebug.c      ****             ret = ch ;
  56:zdebug.c      ****             break ;
  57:zdebug.c      **** 
  58:zdebug.c      ****         default:
  59:zdebug.c      ****             file = file;
  60:zdebug.c      ****             break ;
  61:zdebug.c      ****     }
  62:zdebug.c      ****     return ret ;
  63:zdebug.c      **** }
  64:zdebug.c      **** 
  65:zdebug.c      **** #elif defined (__ICCARM__)      /* IAR */
  66:zdebug.c      **** 
  67:zdebug.c      **** /* For IAR compiler revise __write() function for printf functionality */
  68:zdebug.c      **** size_t __write(int handle, const unsigned char * buffer, size_t size)
  69:zdebug.c      **** {
  70:zdebug.c      ****     size_t nChars = 0;
  71:zdebug.c      **** 
  72:zdebug.c      ****     if (buffer == 0)
  73:zdebug.c      ****     {
  74:zdebug.c      ****         /*
  75:zdebug.c      ****          * This means that we should flush internal buffers.  Since we
  76:zdebug.c      ****          * don't we just return.  (Remember, "handle" == -1 means that all
  77:zdebug.c      ****          * handles should be flushed.)
  78:zdebug.c      ****          */
  79:zdebug.c      ****         return (0);
  80:zdebug.c      ****     }
  81:zdebug.c      **** 
  82:zdebug.c      ****     for (/* Empty */; size != 0; --size)
  83:zdebug.c      ****     {
  84:zdebug.c      ****         UART_DEB_UartPutChar(*buffer++);
  85:zdebug.c      ****         ++nChars;
  86:zdebug.c      ****     }
  87:zdebug.c      **** 
ARM GAS  C:\Users\ADMINI~1\AppData\Local\Temp\ccEMKQ5K.s 			page 3


  88:zdebug.c      ****     return (nChars);
  89:zdebug.c      **** }
  90:zdebug.c      **** 
  91:zdebug.c      **** #else  /* (__GNUC__)  GCC */
  92:zdebug.c      **** 
  93:zdebug.c      **** /* For GCC compiler revise _write() function for printf functionality */
  94:zdebug.c      **** int _write(int file, char *ptr, int len)
  95:zdebug.c      **** {
  96:zdebug.c      ****     int i;
  97:zdebug.c      ****     file = file;
  98:zdebug.c      ****     for (i = 0; i < len; i++)
  99:zdebug.c      ****     {
 100:zdebug.c      ****         UART_DEB_UartPutChar(*ptr++);
 101:zdebug.c      ****     }
 102:zdebug.c      ****     return len;
 103:zdebug.c      **** }
 104:zdebug.c      **** 
 105:zdebug.c      **** 
 106:zdebug.c      **** #endif  /* (__ARMCC_VERSION) */   
 107:zdebug.c      **** 
 108:zdebug.c      **** #endif /* DEBUG_UART_ENABLED == ENABLED */
 109:zdebug.c      **** 
 110:zdebug.c      **** 
 111:zdebug.c      **** void ShowValue(CYBLE_GATT_VALUE_T *value)
 112:zdebug.c      **** {
  28              		.loc 1 112 0
  29              		.cfi_startproc
  30              		@ args = 0, pretend = 0, frame = 0
  31              		@ frame_needed = 0, uses_anonymous_args = 0
  32              	.LVL0:
  33 0000 70B5     		push	{r4, r5, r6, lr}
  34              		.cfi_def_cfa_offset 16
  35              		.cfi_offset 4, -16
  36              		.cfi_offset 5, -12
  37              		.cfi_offset 6, -8
  38              		.cfi_offset 14, -4
  39 0002 0500     		movs	r5, r0
  40              	.LVL1:
 113:zdebug.c      ****     int16 i;
 114:zdebug.c      ****     
 115:zdebug.c      ****     for(i = 0; i < value->len; i++)
  41              		.loc 1 115 0
  42 0004 0024     		movs	r4, #0
  43 0006 06E0     		b	.L2
  44              	.LVL2:
  45              	.L3:
 116:zdebug.c      ****     {
 117:zdebug.c      ****         //DBG_PRINTF("%2.2x ", value->val[i]);
 118:zdebug.c      ****         DBG_PRINTF("%#x ", value->val[i]);
  46              		.loc 1 118 0 discriminator 3
  47 0008 2B68     		ldr	r3, [r5]
  48 000a 195D     		ldrb	r1, [r3, r4]
  49 000c 0548     		ldr	r0, .L4
  50 000e FFF7FEFF 		bl	printf
  51              	.LVL3:
 115:zdebug.c      ****     {
  52              		.loc 1 115 0 discriminator 3
ARM GAS  C:\Users\ADMINI~1\AppData\Local\Temp\ccEMKQ5K.s 			page 4


  53 0012 0134     		adds	r4, r4, #1
  54              	.LVL4:
  55 0014 24B2     		sxth	r4, r4
  56              	.LVL5:
  57              	.L2:
 115:zdebug.c      ****     {
  58              		.loc 1 115 0 is_stmt 0 discriminator 1
  59 0016 AB88     		ldrh	r3, [r5, #4]
  60 0018 9C42     		cmp	r4, r3
  61 001a F5DB     		blt	.L3
 119:zdebug.c      ****     }
 120:zdebug.c      ****     DBG_PRINTF("\r\n");
  62              		.loc 1 120 0 is_stmt 1
  63 001c 0248     		ldr	r0, .L4+4
  64 001e FFF7FEFF 		bl	puts
  65              	.LVL6:
 121:zdebug.c      **** }
  66              		.loc 1 121 0
  67              		@ sp needed
  68              	.LVL7:
  69              	.LVL8:
  70 0022 70BD     		pop	{r4, r5, r6, pc}
  71              	.L5:
  72              		.align	2
  73              	.L4:
  74 0024 00000000 		.word	.LC0
  75 0028 08000000 		.word	.LC2
  76              		.cfi_endproc
  77              	.LFE36:
  78              		.size	ShowValue, .-ShowValue
  79              		.section	.text.Set32ByPtr,"ax",%progbits
  80              		.align	2
  81              		.global	Set32ByPtr
  82              		.code	16
  83              		.thumb_func
  84              		.type	Set32ByPtr, %function
  85              	Set32ByPtr:
  86              	.LFB37:
 122:zdebug.c      **** 
 123:zdebug.c      **** 
 124:zdebug.c      **** void Set32ByPtr(uint8 ptr[], uint32 value)
 125:zdebug.c      **** {
  87              		.loc 1 125 0
  88              		.cfi_startproc
  89              		@ args = 0, pretend = 0, frame = 0
  90              		@ frame_needed = 0, uses_anonymous_args = 0
  91              		@ link register save eliminated.
  92              	.LVL9:
 126:zdebug.c      ****     ptr[0u] = (uint8) value;
  93              		.loc 1 126 0
  94 0000 0170     		strb	r1, [r0]
 127:zdebug.c      ****     ptr[1u] = (uint8) (value >> 8u);    
  95              		.loc 1 127 0
  96 0002 0B0A     		lsrs	r3, r1, #8
  97 0004 4370     		strb	r3, [r0, #1]
 128:zdebug.c      ****     ptr[2u] = (uint8) (value >> 16u);    
  98              		.loc 1 128 0
ARM GAS  C:\Users\ADMINI~1\AppData\Local\Temp\ccEMKQ5K.s 			page 5


  99 0006 0B0C     		lsrs	r3, r1, #16
 100 0008 8370     		strb	r3, [r0, #2]
 129:zdebug.c      ****     ptr[3u] = (uint8) (value >> 24u);
 101              		.loc 1 129 0
 102 000a 090E     		lsrs	r1, r1, #24
 103              	.LVL10:
 104 000c C170     		strb	r1, [r0, #3]
 130:zdebug.c      **** }
 105              		.loc 1 130 0
 106              		@ sp needed
 107 000e 7047     		bx	lr
 108              		.cfi_endproc
 109              	.LFE37:
 110              		.size	Set32ByPtr, .-Set32ByPtr
 111              		.section	.rodata.str1.4,"aMS",%progbits,1
 112              		.align	2
 113              	.LC0:
 114 0000 25237820 		.ascii	"%#x \000"
 114      00
 115 0005 000000   		.space	3
 116              	.LC2:
 117 0008 0D00     		.ascii	"\015\000"
 118              		.text
 119              	.Letext0:
 120              		.file 2 "Generated_Source\\PSoC4/cytypes.h"
 121              		.file 3 "Generated_Source\\PSoC4/BLE_1_StackGatt.h"
 122              		.file 4 "c:\\program files (x86)\\cypress\\psoc creator\\4.2\\psoc creator\\import\\gnu\\arm\\5.4.
 123              		.file 5 "<built-in>"