ARM GAS  C:\Users\ADMINI~1\AppData\Local\Temp\ccXphDDO.s 			page 1


   1              		.syntax unified
   2              		.cpu cortex-m0
   3              		.fpu softvfp
   4              		.eabi_attribute 20, 1
   5              		.eabi_attribute 21, 1
   6              		.eabi_attribute 23, 3
   7              		.eabi_attribute 24, 1
   8              		.eabi_attribute 25, 1
   9              		.eabi_attribute 26, 1
  10              		.eabi_attribute 30, 1
  11              		.eabi_attribute 34, 0
  12              		.eabi_attribute 18, 4
  13              		.thumb
  14              		.syntax unified
  15              		.file	"zglobal.c"
  16              		.text
  17              	.Ltext0:
  18              		.cfi_sections	.debug_frame
  19              		.section	.text.ZCreate,"ax",%progbits
  20              		.align	2
  21              		.global	ZCreate
  22              		.code	16
  23              		.thumb_func
  24              		.type	ZCreate, %function
  25              	ZCreate:
  26              	.LFB0:
  27              		.file 1 "zglobal.c"
   1:zglobal.c     **** #include "zglobal.h"
   2:zglobal.c     **** 
   3:zglobal.c     **** #define zzndebug
   4:zglobal.c     **** unsigned char error_dected;
   5:zglobal.c     **** 
   6:zglobal.c     **** pcb_def pcb_ZClockchain;
   7:zglobal.c     **** pcb_def pcb_ZMoto;
   8:zglobal.c     **** pcb_def pcb_ZBeep;
   9:zglobal.c     **** pcb_def pcb_ZManager;
  10:zglobal.c     **** pcb_def pcb_ZKey;
  11:zglobal.c     **** 
  12:zglobal.c     **** 
  13:zglobal.c     **** void ZCreate(pcb_def * ppcb,unsigned char mode,unsigned char cyc)
  14:zglobal.c     **** {
  28              		.loc 1 14 0
  29              		.cfi_startproc
  30              		@ args = 0, pretend = 0, frame = 0
  31              		@ frame_needed = 0, uses_anonymous_args = 0
  32              		@ link register save eliminated.
  33              	.LVL0:
  15:zglobal.c     **** 	if(ppcb -> status == destroy)
  34              		.loc 1 15 0
  35 0000 0378     		ldrb	r3, [r0]
  36 0002 002B     		cmp	r3, #0
  37 0004 06D1     		bne	.L2
  16:zglobal.c     **** 	{
  17:zglobal.c     **** 		ppcb -> mode = mode;		
  38              		.loc 1 17 0
  39 0006 4170     		strb	r1, [r0, #1]
  18:zglobal.c     **** 		ppcb -> clk = 0;
ARM GAS  C:\Users\ADMINI~1\AppData\Local\Temp\ccXphDDO.s 			page 2


  40              		.loc 1 18 0
  41 0008 4360     		str	r3, [r0, #4]
  19:zglobal.c     **** 		ppcb -> step = 0;
  42              		.loc 1 19 0
  43 000a 8370     		strb	r3, [r0, #2]
  20:zglobal.c     **** 		ppcb -> status = ready;
  44              		.loc 1 20 0
  45 000c 0133     		adds	r3, r3, #1
  46 000e 0370     		strb	r3, [r0]
  21:zglobal.c     **** 		ppcb -> cycle = cyc;
  47              		.loc 1 21 0
  48 0010 C270     		strb	r2, [r0, #3]
  49 0012 02E0     		b	.L1
  50              	.L2:
  22:zglobal.c     **** 	}
  23:zglobal.c     **** 	else
  24:zglobal.c     **** 	{
  25:zglobal.c     ****         error_dected = 1;
  51              		.loc 1 25 0
  52 0014 0122     		movs	r2, #1
  53              	.LVL1:
  54 0016 014B     		ldr	r3, .L4
  55 0018 1A70     		strb	r2, [r3]
  56              	.L1:
  26:zglobal.c     **** 	}
  27:zglobal.c     **** }
  57              		.loc 1 27 0
  58              		@ sp needed
  59 001a 7047     		bx	lr
  60              	.L5:
  61              		.align	2
  62              	.L4:
  63 001c 00000000 		.word	error_dected
  64              		.cfi_endproc
  65              	.LFE0:
  66              		.size	ZCreate, .-ZCreate
  67              		.section	.text.ZBlock,"ax",%progbits
  68              		.align	2
  69              		.global	ZBlock
  70              		.code	16
  71              		.thumb_func
  72              		.type	ZBlock, %function
  73              	ZBlock:
  74              	.LFB1:
  28:zglobal.c     **** void ZBlock(pcb_def * ppcb,unsigned int clk)
  29:zglobal.c     **** {
  75              		.loc 1 29 0
  76              		.cfi_startproc
  77              		@ args = 0, pretend = 0, frame = 0
  78              		@ frame_needed = 0, uses_anonymous_args = 0
  79              		@ link register save eliminated.
  80              	.LVL2:
  30:zglobal.c     **** 	if(ppcb -> status != destroy)
  81              		.loc 1 30 0
  82 0000 0378     		ldrb	r3, [r0]
  83 0002 002B     		cmp	r3, #0
  84 0004 03D0     		beq	.L7
ARM GAS  C:\Users\ADMINI~1\AppData\Local\Temp\ccXphDDO.s 			page 3


  31:zglobal.c     **** 	{
  32:zglobal.c     **** 		ppcb -> status = block;
  85              		.loc 1 32 0
  86 0006 0323     		movs	r3, #3
  87 0008 0370     		strb	r3, [r0]
  33:zglobal.c     **** 		ppcb -> clk = clk;
  88              		.loc 1 33 0
  89 000a 4160     		str	r1, [r0, #4]
  90 000c 02E0     		b	.L6
  91              	.L7:
  34:zglobal.c     **** //		ppcb -> message = msgNone;
  35:zglobal.c     **** 	}
  36:zglobal.c     ****     else
  37:zglobal.c     ****     {
  38:zglobal.c     ****         error_dected =2;
  92              		.loc 1 38 0
  93 000e 0222     		movs	r2, #2
  94 0010 014B     		ldr	r3, .L9
  95 0012 1A70     		strb	r2, [r3]
  96              	.L6:
  39:zglobal.c     ****     }
  40:zglobal.c     **** }
  97              		.loc 1 40 0
  98              		@ sp needed
  99 0014 7047     		bx	lr
 100              	.L10:
 101 0016 C046     		.align	2
 102              	.L9:
 103 0018 00000000 		.word	error_dected
 104              		.cfi_endproc
 105              	.LFE1:
 106              		.size	ZBlock, .-ZBlock
 107              		.section	.text.ZWakeup,"ax",%progbits
 108              		.align	2
 109              		.global	ZWakeup
 110              		.code	16
 111              		.thumb_func
 112              		.type	ZWakeup, %function
 113              	ZWakeup:
 114              	.LFB2:
  41:zglobal.c     **** 
  42:zglobal.c     **** void ZWakeup(pcb_def * ppcb)    //,unsigned char cyc)
  43:zglobal.c     **** {
 115              		.loc 1 43 0
 116              		.cfi_startproc
 117              		@ args = 0, pretend = 0, frame = 0
 118              		@ frame_needed = 0, uses_anonymous_args = 0
 119              		@ link register save eliminated.
 120              	.LVL3:
  44:zglobal.c     **** 	if(ppcb -> status == block)
 121              		.loc 1 44 0
 122 0000 0378     		ldrb	r3, [r0]
 123 0002 032B     		cmp	r3, #3
 124 0004 03D1     		bne	.L11
  45:zglobal.c     **** 	{
  46:zglobal.c     **** 		ppcb -> status = ready;
 125              		.loc 1 46 0
ARM GAS  C:\Users\ADMINI~1\AppData\Local\Temp\ccXphDDO.s 			page 4


 126 0006 023B     		subs	r3, r3, #2
 127 0008 0370     		strb	r3, [r0]
  47:zglobal.c     **** 		ppcb -> clk = 0;		
 128              		.loc 1 47 0
 129 000a 0023     		movs	r3, #0
 130 000c 4360     		str	r3, [r0, #4]
 131              	.L11:
  48:zglobal.c     **** //		ppcb -> cycle = cyc;
  49:zglobal.c     **** 	}
  50:zglobal.c     **** //	else
  51:zglobal.c     **** //	{
  52:zglobal.c     **** //        error_dected = 3;
  53:zglobal.c     **** //	}
  54:zglobal.c     **** }
 132              		.loc 1 54 0
 133              		@ sp needed
 134 000e 7047     		bx	lr
 135              		.cfi_endproc
 136              	.LFE2:
 137              		.size	ZWakeup, .-ZWakeup
 138              		.section	.text.ZDestroy,"ax",%progbits
 139              		.align	2
 140              		.global	ZDestroy
 141              		.code	16
 142              		.thumb_func
 143              		.type	ZDestroy, %function
 144              	ZDestroy:
 145              	.LFB3:
  55:zglobal.c     **** void ZDestroy(pcb_def * ppcb)
  56:zglobal.c     **** {
 146              		.loc 1 56 0
 147              		.cfi_startproc
 148              		@ args = 0, pretend = 0, frame = 0
 149              		@ frame_needed = 0, uses_anonymous_args = 0
 150              		@ link register save eliminated.
 151              	.LVL4:
  57:zglobal.c     **** 	ppcb -> clk = 0;
 152              		.loc 1 57 0
 153 0000 0023     		movs	r3, #0
 154 0002 4360     		str	r3, [r0, #4]
  58:zglobal.c     **** 	ppcb -> mode = mdNone;
 155              		.loc 1 58 0
 156 0004 4370     		strb	r3, [r0, #1]
  59:zglobal.c     **** 	ppcb -> step = 0;
 157              		.loc 1 59 0
 158 0006 8370     		strb	r3, [r0, #2]
  60:zglobal.c     **** 	ppcb -> status = destroy;
 159              		.loc 1 60 0
 160 0008 0370     		strb	r3, [r0]
  61:zglobal.c     **** 	ppcb -> cycle = 0;	
 161              		.loc 1 61 0
 162 000a C370     		strb	r3, [r0, #3]
  62:zglobal.c     **** }
 163              		.loc 1 62 0
 164              		@ sp needed
 165 000c 7047     		bx	lr
 166              		.cfi_endproc
ARM GAS  C:\Users\ADMINI~1\AppData\Local\Temp\ccXphDDO.s 			page 5


 167              	.LFE3:
 168              		.size	ZDestroy, .-ZDestroy
 169 000e C046     		.section	.text.ZpcbInit,"ax",%progbits
 170              		.align	2
 171              		.global	ZpcbInit
 172              		.code	16
 173              		.thumb_func
 174              		.type	ZpcbInit, %function
 175              	ZpcbInit:
 176              	.LFB4:
  63:zglobal.c     **** 
  64:zglobal.c     **** void ZpcbInit()
  65:zglobal.c     **** {
 177              		.loc 1 65 0
 178              		.cfi_startproc
 179              		@ args = 0, pretend = 0, frame = 0
 180              		@ frame_needed = 0, uses_anonymous_args = 0
 181 0000 10B5     		push	{r4, lr}
 182              		.cfi_def_cfa_offset 8
 183              		.cfi_offset 4, -8
 184              		.cfi_offset 14, -4
  66:zglobal.c     ****     ZDestroy(&pcb_ZClockchain);
 185              		.loc 1 66 0
 186 0002 0B4C     		ldr	r4, .L15
 187 0004 2000     		movs	r0, r4
 188 0006 FFF7FEFF 		bl	ZDestroy
 189              	.LVL5:
  67:zglobal.c     ****     pcb_ZClockchain.status = block;
 190              		.loc 1 67 0
 191 000a 0323     		movs	r3, #3
 192 000c 2370     		strb	r3, [r4]
  68:zglobal.c     ****     ZDestroy(&pcb_ZKey);
 193              		.loc 1 68 0
 194 000e 094C     		ldr	r4, .L15+4
 195 0010 2000     		movs	r0, r4
 196 0012 FFF7FEFF 		bl	ZDestroy
 197              	.LVL6:
  69:zglobal.c     ****     ZCreate(&pcb_ZKey,mdProx,0);
 198              		.loc 1 69 0
 199 0016 0022     		movs	r2, #0
 200 0018 0821     		movs	r1, #8
 201 001a 2000     		movs	r0, r4
 202 001c FFF7FEFF 		bl	ZCreate
 203              	.LVL7:
  70:zglobal.c     **** 
  71:zglobal.c     ****     
  72:zglobal.c     ****     ZDestroy(&pcb_ZMoto);
 204              		.loc 1 72 0
 205 0020 0548     		ldr	r0, .L15+8
 206 0022 FFF7FEFF 		bl	ZDestroy
 207              	.LVL8:
  73:zglobal.c     **** //    ZDestroy(&pcb_ZBeep); //zzn!
  74:zglobal.c     ****     ZDestroy(&pcb_ZManager);
 208              		.loc 1 74 0
 209 0026 0548     		ldr	r0, .L15+12
 210 0028 FFF7FEFF 		bl	ZDestroy
 211              	.LVL9:
ARM GAS  C:\Users\ADMINI~1\AppData\Local\Temp\ccXphDDO.s 			page 6


  75:zglobal.c     ****     
  76:zglobal.c     ****     
  77:zglobal.c     **** }
 212              		.loc 1 77 0
 213              		@ sp needed
 214 002c 10BD     		pop	{r4, pc}
 215              	.L16:
 216 002e C046     		.align	2
 217              	.L15:
 218 0030 00000000 		.word	pcb_ZClockchain
 219 0034 00000000 		.word	pcb_ZKey
 220 0038 00000000 		.word	pcb_ZMoto
 221 003c 00000000 		.word	pcb_ZManager
 222              		.cfi_endproc
 223              	.LFE4:
 224              		.size	ZpcbInit, .-ZpcbInit
 225              		.comm	pcb_ZKey,8,4
 226              		.comm	pcb_ZManager,8,4
 227              		.comm	pcb_ZBeep,8,4
 228              		.comm	pcb_ZMoto,8,4
 229              		.comm	pcb_ZClockchain,8,4
 230              		.comm	error_dected,1,1
 231              		.text
 232              	.Letext0:
 233              		.file 2 "zglobal.h"