ARM GAS  C:\Users\Zhu\AppData\Local\Temp\cchADI2v.s 			page 1


   1              		.syntax unified
   2              		.cpu cortex-m0
   3              		.fpu softvfp
   4              		.eabi_attribute 20, 1
   5              		.eabi_attribute 21, 1
   6              		.eabi_attribute 23, 3
   7              		.eabi_attribute 24, 1
   8              		.eabi_attribute 25, 1
   9              		.eabi_attribute 26, 1
  10              		.eabi_attribute 30, 1
  11              		.eabi_attribute 34, 0
  12              		.eabi_attribute 18, 4
  13              		.thumb
  14              		.syntax unified
  15              		.file	"zkey.c"
  16              		.text
  17              	.Ltext0:
  18              		.cfi_sections	.debug_frame
  19              		.section	.text.CheckNo,"ax",%progbits
  20              		.align	2
  21              		.global	CheckNo
  22              		.code	16
  23              		.thumb_func
  24              		.type	CheckNo, %function
  25              	CheckNo:
  26              	.LFB36:
  27              		.file 1 "zkey.c"
   1:zkey.c        **** #include <project.h>
   2:zkey.c        **** #include "zmain.h"
   3:zkey.c        **** 
   4:zkey.c        **** #define CapSense_TOTAL_BTN_WIDGETS 12u
   5:zkey.c        **** const uint16 No[14]={0x01,0x02,0x04,0x08,0x10,0x20,0x40,0x80,0x100,0x200,0x400,0x800,0x1000,0xFFFF}
   6:zkey.c        **** //--------------------0,    1,  2,    3,  4,    5,  6,   7,     8,  9,    *,     #,  prox----------
   7:zkey.c        **** uint8 KeyNumber;
   8:zkey.c        **** uint8 CapProStatus;
   9:zkey.c        **** 
  10:zkey.c        **** uint8 CheckNo(uint16 key)
  11:zkey.c        **** {
  28              		.loc 1 11 0
  29              		.cfi_startproc
  30              		@ args = 0, pretend = 0, frame = 0
  31              		@ frame_needed = 0, uses_anonymous_args = 0
  32              		@ link register save eliminated.
  33              	.LVL0:
  34 0000 0100     		movs	r1, r0
  35              	.LVL1:
  12:zkey.c        ****     uint8 i,j=sizeof(No)/2;
  13:zkey.c        ****     for(i=0;i<j;i++)
  36              		.loc 1 13 0
  37 0002 0020     		movs	r0, #0
  38              	.LVL2:
  39 0004 08E0     		b	.L2
  40              	.LVL3:
  41              	.L4:
  14:zkey.c        ****     {
  15:zkey.c        ****         if(i == j-1) break;
  42              		.loc 1 15 0
ARM GAS  C:\Users\Zhu\AppData\Local\Temp\cchADI2v.s 			page 2


  43 0006 0D28     		cmp	r0, #13
  44 0008 08D0     		beq	.L3
  16:zkey.c        ****         if(key == No[i]) break;
  45              		.loc 1 16 0
  46 000a 4300     		lsls	r3, r0, #1
  47 000c 044A     		ldr	r2, .L5
  48 000e 9B5A     		ldrh	r3, [r3, r2]
  49 0010 8B42     		cmp	r3, r1
  50 0012 03D0     		beq	.L3
  13:zkey.c        ****     {
  51              		.loc 1 13 0 discriminator 2
  52 0014 0130     		adds	r0, r0, #1
  53              	.LVL4:
  54 0016 C0B2     		uxtb	r0, r0
  55              	.LVL5:
  56              	.L2:
  13:zkey.c        ****     {
  57              		.loc 1 13 0 is_stmt 0 discriminator 1
  58 0018 0D28     		cmp	r0, #13
  59 001a F4D9     		bls	.L4
  60              	.L3:
  17:zkey.c        ****     }
  18:zkey.c        ****     return i;
  19:zkey.c        **** }
  61              		.loc 1 19 0 is_stmt 1
  62              		@ sp needed
  63 001c 7047     		bx	lr
  64              	.L6:
  65 001e C046     		.align	2
  66              	.L5:
  67 0020 00000000 		.word	.LANCHOR0
  68              		.cfi_endproc
  69              	.LFE36:
  70              		.size	CheckNo, .-CheckNo
  71              		.section	.text.CapSense_ProcessBtnWidgets,"ax",%progbits
  72              		.align	2
  73              		.global	CapSense_ProcessBtnWidgets
  74              		.code	16
  75              		.thumb_func
  76              		.type	CapSense_ProcessBtnWidgets, %function
  77              	CapSense_ProcessBtnWidgets:
  78              	.LFB38:
  20:zkey.c        **** 
  21:zkey.c        **** 
  22:zkey.c        **** void ZKey()
  23:zkey.c        **** {
  24:zkey.c        ****     uint32 ButtonStatus;
  25:zkey.c        ****     pcb_ZKey.status = excute;//zzn1930
  26:zkey.c        **** 
  27:zkey.c        ****     if(CapSense_NOT_BUSY==CapSense_IsBusy())
  28:zkey.c        ****     {
  29:zkey.c        ****         if(pcb_ZKey.mode == mdKeyScan)
  30:zkey.c        ****         {            
  31:zkey.c        ****             if(CYRET_SUCCESS == CapSense_ProcessBtnWidgets())   
  32:zkey.c        ****             {
  33:zkey.c        ****                 ButtonStatus = CapSense_IsAnyWidgetActive(); // Scan result verification //
  34:zkey.c        ****                 switch(pcb_ZKey.step)
ARM GAS  C:\Users\Zhu\AppData\Local\Temp\cchADI2v.s 			page 3


  35:zkey.c        ****                 {
  36:zkey.c        ****                     case 0:     
  37:zkey.c        ****                         if(ButtonStatus != 0)   //pressing
  38:zkey.c        ****                         {
  39:zkey.c        ****                             KeyNumber = CheckNo(ButtonStatus);
  40:zkey.c        ****                             if(KeyNumber < 12)
  41:zkey.c        ****                             {
  42:zkey.c        ****                                 pcb_ZKey.step = 1;
  43:zkey.c        **** //                                Pin_BackLight_Write(Back_Light);
  44:zkey.c        **** //                                ZCreate(&pcb_ZBeep,mdBeep,beep_notice);
  45:zkey.c        ****                                 if(pcb_ZManager.status == destroy) ZCreate(&pcb_ZManager,mdMKey,0);
  46:zkey.c        ****                                 else ZWakeup(&pcb_ZManager);
  47:zkey.c        ****                             }
  48:zkey.c        ****                         }
  49:zkey.c        ****                         else
  50:zkey.c        ****                         {
  51:zkey.c        ****                             if(pcb_ZKey.cycle == 1)
  52:zkey.c        ****                             {
  53:zkey.c        ****                                 pcb_ZKey.mode = mdProx;
  54:zkey.c        ****                                 pcb_ZKey.cycle = 0;
  55:zkey.c        ****                             }   
  56:zkey.c        ****                         }
  57:zkey.c        ****                         break;
  58:zkey.c        ****                     case 1:     
  59:zkey.c        ****                         if(ButtonStatus == 0)   //release
  60:zkey.c        ****                         {
  61:zkey.c        ****                             pcb_ZKey.step = 0;
  62:zkey.c        **** //                            Pin_BackLight_Write(Back_Dim);
  63:zkey.c        ****                         } 
  64:zkey.c        ****                         break;
  65:zkey.c        ****                     default:
  66:zkey.c        ****                         break;
  67:zkey.c        ****                 }
  68:zkey.c        ****             }
  69:zkey.c        ****         }
  70:zkey.c        ****         else
  71:zkey.c        ****         {
  72:zkey.c        ****             if(CYRET_SUCCESS == CapSense_ProcessWidget(CapSense_PROXIMITY0_WDGT_ID))   
  73:zkey.c        ****             {
  74:zkey.c        ****                 ButtonStatus = CapSense_IsAnyWidgetActive(); // Scan result verification //
  75:zkey.c        ****                 switch(pcb_ZKey.step)
  76:zkey.c        ****                 {
  77:zkey.c        ****                     case 0:     
  78:zkey.c        ****                         if(ButtonStatus == 0x1000)   //pressing
  79:zkey.c        ****                         {
  80:zkey.c        ****                             KeyNumber = CheckNo(ButtonStatus);
  81:zkey.c        ****                             pcb_ZKey.step = 1;
  82:zkey.c        **** //                            Pin_BackLight_Write(Back_Light);
  83:zkey.c        **** //                            ZCreate(&pcb_ZBeep,mdBeep,beep_notice);
  84:zkey.c        ****                             if(pcb_ZManager.status == destroy) ZCreate(&pcb_ZManager,mdMKey,0);
  85:zkey.c        ****                             else ZWakeup(&pcb_ZManager);
  86:zkey.c        ****                         }
  87:zkey.c        ****                         break;
  88:zkey.c        ****                     case 1:     
  89:zkey.c        ****                         if(ButtonStatus == 0)   //release
  90:zkey.c        ****                         {
  91:zkey.c        ****                             pcb_ZKey.step = 0;
ARM GAS  C:\Users\Zhu\AppData\Local\Temp\cchADI2v.s 			page 4


  92:zkey.c        ****                             pcb_ZKey.mode = mdKeyScan;
  93:zkey.c        **** //                            Pin_BackLight_Write(Back_Dim);
  94:zkey.c        ****                         } 
  95:zkey.c        ****                         break;
  96:zkey.c        ****                     default:
  97:zkey.c        ****                         break;
  98:zkey.c        ****                 }
  99:zkey.c        ****                 
 100:zkey.c        ****             }
 101:zkey.c        ****         }
 102:zkey.c        **** //        #ifdef ezi2c
 103:zkey.c        **** //            CapSense_RunTuner(); // To sync with Tuner application //    
 104:zkey.c        **** //        #endif
 105:zkey.c        **** //        CapSense_ScanAllWidgets(); // Start next scan //
 106:zkey.c        **** //        ZBlock(&pcb_ZKey,KEY_SCAN_CYCLE);
 107:zkey.c        ****     }
 108:zkey.c        ****     #ifdef ezi2c
 109:zkey.c        ****         CapSense_RunTuner(); // To sync with Tuner application //    
 110:zkey.c        ****     #endif
 111:zkey.c        ****     CapSense_ScanAllWidgets(); // Start next scan //
 112:zkey.c        ****     ZBlock(&pcb_ZKey,KEY_SCAN_CYCLE);
 113:zkey.c        **** }
 114:zkey.c        **** 
 115:zkey.c        **** cystatus CapSense_ProcessBtnWidgets(void)
 116:zkey.c        **** {
  79              		.loc 1 116 0
  80              		.cfi_startproc
  81              		@ args = 0, pretend = 0, frame = 0
  82              		@ frame_needed = 0, uses_anonymous_args = 0
  83 0000 70B5     		push	{r4, r5, r6, lr}
  84              		.cfi_def_cfa_offset 16
  85              		.cfi_offset 4, -16
  86              		.cfi_offset 5, -12
  87              		.cfi_offset 6, -8
  88              		.cfi_offset 14, -4
  89              	.LVL6:
 117:zkey.c        ****     uint32 wdgtId;
 118:zkey.c        ****     cystatus result = CYRET_SUCCESS;
 119:zkey.c        ****     CapSense_FLASH_WD_STRUCT const *ptrFlashWdgt;
 120:zkey.c        **** 
 121:zkey.c        ****     ptrFlashWdgt = CapSense_dsFlash.wdgtArray;
  90              		.loc 1 121 0
  91 0002 144E     		ldr	r6, .L11
 118:zkey.c        ****     CapSense_FLASH_WD_STRUCT const *ptrFlashWdgt;
  92              		.loc 1 118 0
  93 0004 0024     		movs	r4, #0
 122:zkey.c        **** 
 123:zkey.c        ****     for (wdgtId = 0u; wdgtId < CapSense_TOTAL_BTN_WIDGETS; wdgtId++)
  94              		.loc 1 123 0
  95 0006 0025     		movs	r5, #0
  96 0008 1FE0     		b	.L8
  97              	.LVL7:
  98              	.L10:
 124:zkey.c        ****     {
 125:zkey.c        ****         if (0uL != CapSense_GET_WIDGET_EN_STATUS(wdgtId))
  99              		.loc 1 125 0
 100 000a 1F23     		movs	r3, #31
ARM GAS  C:\Users\Zhu\AppData\Local\Temp\cchADI2v.s 			page 5


 101 000c 2B40     		ands	r3, r5
 102 000e 0122     		movs	r2, #1
 103 0010 9A40     		lsls	r2, r2, r3
 104 0012 1100     		movs	r1, r2
 105 0014 6A09     		lsrs	r2, r5, #5
 106 0016 1048     		ldr	r0, .L11+4
 107 0018 0432     		adds	r2, r2, #4
 108 001a 9300     		lsls	r3, r2, #2
 109 001c 1A58     		ldr	r2, [r3, r0]
 110 001e 0A40     		ands	r2, r1
 111 0020 C318     		adds	r3, r0, r3
 112 0022 5B68     		ldr	r3, [r3, #4]
 113 0024 1342     		tst	r3, r2
 114 0026 0ED0     		beq	.L9
 126:zkey.c        ****         {
 127:zkey.c        ****             switch(CapSense_GET_SENSE_METHOD(ptrFlashWdgt))
 128:zkey.c        ****             {
 129:zkey.c        ****             #if (0u != CapSense_TOTAL_CSD_WIDGETS)
 130:zkey.c        ****                 case CapSense_SENSE_METHOD_CSD_E:
 131:zkey.c        ****                     result = CapSense_DpProcessCsdWidgetRawCounts(ptrFlashWdgt);
 115              		.loc 1 131 0
 116 0028 3000     		movs	r0, r6
 117 002a FFF7FEFF 		bl	CapSense_DpProcessCsdWidgetRawCounts
 118              	.LVL8:
 119 002e 0400     		movs	r4, r0
 120              	.LVL9:
 132:zkey.c        ****                     CapSense_DpProcessCsdWidgetStatus(wdgtId, ptrFlashWdgt);
 121              		.loc 1 132 0
 122 0030 3100     		movs	r1, r6
 123 0032 2800     		movs	r0, r5
 124              	.LVL10:
 125 0034 FFF7FEFF 		bl	CapSense_DpProcessCsdWidgetStatus
 126              	.LVL11:
 133:zkey.c        ****                     break;
 134:zkey.c        ****             #endif /* #if (0u != CapSense_TOTAL_CSD_WIDGETS) */
 135:zkey.c        **** 
 136:zkey.c        ****             #if (0u != CapSense_TOTAL_CSX_WIDGETS)
 137:zkey.c        ****                 case CapSense_SENSE_METHOD_CSX_E:
 138:zkey.c        ****                     result = CapSense_DpProcessCsxWidgetRawCounts(ptrFlashWdgt);
 139:zkey.c        ****                     CapSense_DpProcessCsxWidgetStatus(wdgtId, ptrFlashWdgt);
 140:zkey.c        ****                     break;
 141:zkey.c        ****             #endif /* #if (0u != CapSense_TOTAL_CSX_WIDGETS) */
 142:zkey.c        **** 
 143:zkey.c        ****             #if (0u != CapSense_TOTAL_ISX_WIDGETS)
 144:zkey.c        ****                 case CapSense_SENSE_METHOD_ISX_E:
 145:zkey.c        ****                     result = CapSense_DpProcessIsxWidgetRawCounts(ptrFlashWdgt);
 146:zkey.c        ****                     CapSense_DpProcessIsxWidgetStatus(wdgtId, ptrFlashWdgt);
 147:zkey.c        ****                     break;
 148:zkey.c        ****             #endif /* #if (0u != CapSense_TOTAL_ISX_WIDGETS) */
 149:zkey.c        **** 
 150:zkey.c        ****             default:
 151:zkey.c        ****                 CYASSERT(0u);
 152:zkey.c        ****                 break;
 153:zkey.c        ****             }
 154:zkey.c        **** 
 155:zkey.c        ****             #if (CapSense_ENABLE == CapSense_TST_BSLN_DUPLICATION_EN)
 156:zkey.c        ****                 if (CYRET_SUCCESS != result)
ARM GAS  C:\Users\Zhu\AppData\Local\Temp\cchADI2v.s 			page 6


 127              		.loc 1 156 0
 128 0038 002C     		cmp	r4, #0
 129 003a 04D0     		beq	.L9
 157:zkey.c        ****                 {
 158:zkey.c        ****                     CapSense_UpdateTestResultBaselineDuplication(wdgtId, result);
 130              		.loc 1 158 0
 131 003c 2100     		movs	r1, r4
 132 003e 2800     		movs	r0, r5
 133 0040 FFF7FEFF 		bl	CapSense_UpdateTestResultBaselineDuplication
 134              	.LVL12:
 159:zkey.c        ****                     result = CYRET_BAD_DATA;
 135              		.loc 1 159 0
 136 0044 0624     		movs	r4, #6
 137              	.LVL13:
 138              	.L9:
 160:zkey.c        ****                 }
 161:zkey.c        ****             #endif /* (CapSense_ENABLE == CapSense_TST_BSLN_DUPLICATION_EN) */
 162:zkey.c        **** 
 163:zkey.c        ****         }
 164:zkey.c        ****         ptrFlashWdgt++;
 139              		.loc 1 164 0 discriminator 2
 140 0046 2036     		adds	r6, r6, #32
 141              	.LVL14:
 123:zkey.c        ****     {
 142              		.loc 1 123 0 discriminator 2
 143 0048 0135     		adds	r5, r5, #1
 144              	.LVL15:
 145              	.L8:
 123:zkey.c        ****     {
 146              		.loc 1 123 0 is_stmt 0 discriminator 1
 147 004a 0B2D     		cmp	r5, #11
 148 004c DDD9     		bls	.L10
 165:zkey.c        ****     }
 166:zkey.c        ****     return result;
 167:zkey.c        **** }...
 149              		.loc 1 167 0 is_stmt 1
 150 004e 2000     		movs	r0, r4
 151              		@ sp needed
 152              	.LVL16:
 153              	.LVL17:
 154              	.LVL18:
 155 0050 70BD     		pop	{r4, r5, r6, pc}
 156              	.L12:
 157 0052 C046     		.align	2
 158              	.L11:
 159 0054 00000000 		.word	CapSense_dsFlash
 160 0058 00000000 		.word	CapSense_dsRam
 161              		.cfi_endproc
 162              	.LFE38:
 163              		.size	CapSense_ProcessBtnWidgets, .-CapSense_ProcessBtnWidgets
 164              		.section	.text.ZKey,"ax",%progbits
 165              		.align	2
 166              		.global	ZKey
 167              		.code	16
 168              		.thumb_func
 169              		.type	ZKey, %function
 170              	ZKey:
ARM GAS  C:\Users\Zhu\AppData\Local\Temp\cchADI2v.s 			page 7


 171              	.LFB37:
  23:zkey.c        **** {
 172              		.loc 1 23 0
 173              		.cfi_startproc
 174              		@ args = 0, pretend = 0, frame = 0
 175              		@ frame_needed = 0, uses_anonymous_args = 0
 176 0000 10B5     		push	{r4, lr}
 177              		.cfi_def_cfa_offset 8
 178              		.cfi_offset 4, -8
 179              		.cfi_offset 14, -4
  25:zkey.c        ****     pcb_ZKey.status = excute;//zzn1930
 180              		.loc 1 25 0
 181 0002 0222     		movs	r2, #2
 182 0004 3B4B     		ldr	r3, .L23
 183 0006 1A70     		strb	r2, [r3]
  27:zkey.c        ****     if(CapSense_NOT_BUSY==CapSense_IsBusy())
 184              		.loc 1 27 0
 185 0008 FFF7FEFF 		bl	CapSense_IsBusy
 186              	.LVL19:
 187 000c 0028     		cmp	r0, #0
 188 000e 69D1     		bne	.L14
  29:zkey.c        ****         if(pcb_ZKey.mode == mdKeyScan)
 189              		.loc 1 29 0
 190 0010 384B     		ldr	r3, .L23
 191 0012 5B78     		ldrb	r3, [r3, #1]
 192 0014 072B     		cmp	r3, #7
 193 0016 36D1     		bne	.L15
  31:zkey.c        ****             if(CYRET_SUCCESS == CapSense_ProcessBtnWidgets())   
 194              		.loc 1 31 0
 195 0018 FFF7FEFF 		bl	CapSense_ProcessBtnWidgets
 196              	.LVL20:
 197 001c 0028     		cmp	r0, #0
 198 001e 61D1     		bne	.L14
  33:zkey.c        ****                 ButtonStatus = CapSense_IsAnyWidgetActive(); // Scan result verification //
 199              		.loc 1 33 0
 200 0020 FFF7FEFF 		bl	CapSense_IsAnyWidgetActive
 201              	.LVL21:
  34:zkey.c        ****                 switch(pcb_ZKey.step)
 202              		.loc 1 34 0
 203 0024 334B     		ldr	r3, .L23
 204 0026 9B78     		ldrb	r3, [r3, #2]
 205 0028 002B     		cmp	r3, #0
 206 002a 02D0     		beq	.L16
 207 002c 012B     		cmp	r3, #1
 208 002e 24D0     		beq	.L17
 209 0030 58E0     		b	.L14
 210              	.L16:
  37:zkey.c        ****                         if(ButtonStatus != 0)   //pressing
 211              		.loc 1 37 0
 212 0032 0028     		cmp	r0, #0
 213 0034 17D0     		beq	.L18
  39:zkey.c        ****                             KeyNumber = CheckNo(ButtonStatus);
 214              		.loc 1 39 0
 215 0036 80B2     		uxth	r0, r0
 216              	.LVL22:
 217 0038 FFF7FEFF 		bl	CheckNo
 218              	.LVL23:
ARM GAS  C:\Users\Zhu\AppData\Local\Temp\cchADI2v.s 			page 8


 219 003c 2E4B     		ldr	r3, .L23+4
 220 003e 1870     		strb	r0, [r3]
  40:zkey.c        ****                             if(KeyNumber < 12)
 221              		.loc 1 40 0
 222 0040 0B28     		cmp	r0, #11
 223 0042 4FD8     		bhi	.L14
  42:zkey.c        ****                                 pcb_ZKey.step = 1;
 224              		.loc 1 42 0
 225 0044 0122     		movs	r2, #1
 226 0046 2B4B     		ldr	r3, .L23
 227 0048 9A70     		strb	r2, [r3, #2]
  45:zkey.c        ****                                 if(pcb_ZManager.status == destroy) ZCreate(&pcb_ZManager,mdMKey,0);
 228              		.loc 1 45 0
 229 004a 2C4B     		ldr	r3, .L23+8
 230 004c 1B78     		ldrb	r3, [r3]
 231 004e 002B     		cmp	r3, #0
 232 0050 05D1     		bne	.L19
  45:zkey.c        ****                                 if(pcb_ZManager.status == destroy) ZCreate(&pcb_ZManager,mdMKey,0);
 233              		.loc 1 45 0 is_stmt 0 discriminator 1
 234 0052 0022     		movs	r2, #0
 235 0054 0621     		movs	r1, #6
 236 0056 2948     		ldr	r0, .L23+8
 237 0058 FFF7FEFF 		bl	ZCreate
 238              	.LVL24:
 239 005c 42E0     		b	.L14
 240              	.L19:
  46:zkey.c        ****                                 else ZWakeup(&pcb_ZManager);
 241              		.loc 1 46 0 is_stmt 1
 242 005e 2748     		ldr	r0, .L23+8
 243 0060 FFF7FEFF 		bl	ZWakeup
 244              	.LVL25:
 245 0064 3EE0     		b	.L14
 246              	.LVL26:
 247              	.L18:
  51:zkey.c        ****                             if(pcb_ZKey.cycle == 1)
 248              		.loc 1 51 0
 249 0066 234B     		ldr	r3, .L23
 250 0068 DB78     		ldrb	r3, [r3, #3]
 251 006a 012B     		cmp	r3, #1
 252 006c 3AD1     		bne	.L14
  53:zkey.c        ****                                 pcb_ZKey.mode = mdProx;
 253              		.loc 1 53 0
 254 006e 214B     		ldr	r3, .L23
 255 0070 0822     		movs	r2, #8
 256 0072 5A70     		strb	r2, [r3, #1]
  54:zkey.c        ****                                 pcb_ZKey.cycle = 0;
 257              		.loc 1 54 0
 258 0074 0022     		movs	r2, #0
 259 0076 DA70     		strb	r2, [r3, #3]
 260 0078 34E0     		b	.L14
 261              	.L17:
  59:zkey.c        ****                         if(ButtonStatus == 0)   //release
 262              		.loc 1 59 0
 263 007a 0028     		cmp	r0, #0
 264 007c 32D1     		bne	.L14
  61:zkey.c        ****                             pcb_ZKey.step = 0;
 265              		.loc 1 61 0
ARM GAS  C:\Users\Zhu\AppData\Local\Temp\cchADI2v.s 			page 9


 266 007e 0022     		movs	r2, #0
 267 0080 1C4B     		ldr	r3, .L23
 268 0082 9A70     		strb	r2, [r3, #2]
 269 0084 2EE0     		b	.L14
 270              	.LVL27:
 271              	.L15:
  72:zkey.c        ****             if(CYRET_SUCCESS == CapSense_ProcessWidget(CapSense_PROXIMITY0_WDGT_ID))   
 272              		.loc 1 72 0
 273 0086 0C20     		movs	r0, #12
 274 0088 FFF7FEFF 		bl	CapSense_ProcessWidget
 275              	.LVL28:
 276 008c 0028     		cmp	r0, #0
 277 008e 29D1     		bne	.L14
  74:zkey.c        ****                 ButtonStatus = CapSense_IsAnyWidgetActive(); // Scan result verification //
 278              		.loc 1 74 0
 279 0090 FFF7FEFF 		bl	CapSense_IsAnyWidgetActive
 280              	.LVL29:
  75:zkey.c        ****                 switch(pcb_ZKey.step)
 281              		.loc 1 75 0
 282 0094 174B     		ldr	r3, .L23
 283 0096 9B78     		ldrb	r3, [r3, #2]
 284 0098 002B     		cmp	r3, #0
 285 009a 02D0     		beq	.L20
 286 009c 012B     		cmp	r3, #1
 287 009e 1AD0     		beq	.L21
 288 00a0 20E0     		b	.L14
 289              	.L20:
  78:zkey.c        ****                         if(ButtonStatus == 0x1000)   //pressing
 290              		.loc 1 78 0
 291 00a2 8023     		movs	r3, #128
 292 00a4 5B01     		lsls	r3, r3, #5
 293 00a6 9842     		cmp	r0, r3
 294 00a8 1CD1     		bne	.L14
  80:zkey.c        ****                             KeyNumber = CheckNo(ButtonStatus);
 295              		.loc 1 80 0
 296 00aa 80B2     		uxth	r0, r0
 297              	.LVL30:
 298 00ac FFF7FEFF 		bl	CheckNo
 299              	.LVL31:
 300 00b0 114B     		ldr	r3, .L23+4
 301 00b2 1870     		strb	r0, [r3]
  81:zkey.c        ****                             pcb_ZKey.step = 1;
 302              		.loc 1 81 0
 303 00b4 0122     		movs	r2, #1
 304 00b6 0F4B     		ldr	r3, .L23
 305 00b8 9A70     		strb	r2, [r3, #2]
  84:zkey.c        ****                             if(pcb_ZManager.status == destroy) ZCreate(&pcb_ZManager,mdMKey,0);
 306              		.loc 1 84 0
 307 00ba 104B     		ldr	r3, .L23+8
 308 00bc 1B78     		ldrb	r3, [r3]
 309 00be 002B     		cmp	r3, #0
 310 00c0 05D1     		bne	.L22
  84:zkey.c        ****                             if(pcb_ZManager.status == destroy) ZCreate(&pcb_ZManager,mdMKey,0);
 311              		.loc 1 84 0 is_stmt 0 discriminator 1
 312 00c2 0022     		movs	r2, #0
 313 00c4 0621     		movs	r1, #6
 314 00c6 0D48     		ldr	r0, .L23+8
ARM GAS  C:\Users\Zhu\AppData\Local\Temp\cchADI2v.s 			page 10


 315 00c8 FFF7FEFF 		bl	ZCreate
 316              	.LVL32:
 317 00cc 0AE0     		b	.L14
 318              	.L22:
  85:zkey.c        ****                             else ZWakeup(&pcb_ZManager);
 319              		.loc 1 85 0 is_stmt 1
 320 00ce 0B48     		ldr	r0, .L23+8
 321 00d0 FFF7FEFF 		bl	ZWakeup
 322              	.LVL33:
 323 00d4 06E0     		b	.L14
 324              	.LVL34:
 325              	.L21:
  89:zkey.c        ****                         if(ButtonStatus == 0)   //release
 326              		.loc 1 89 0
 327 00d6 0028     		cmp	r0, #0
 328 00d8 04D1     		bne	.L14
  91:zkey.c        ****                             pcb_ZKey.step = 0;
 329              		.loc 1 91 0
 330 00da 064B     		ldr	r3, .L23
 331 00dc 0022     		movs	r2, #0
 332 00de 9A70     		strb	r2, [r3, #2]
  92:zkey.c        ****                             pcb_ZKey.mode = mdKeyScan;
 333              		.loc 1 92 0
 334 00e0 0732     		adds	r2, r2, #7
 335 00e2 5A70     		strb	r2, [r3, #1]
 336              	.LVL35:
 337              	.L14:
 111:zkey.c        ****     CapSense_ScanAllWidgets(); // Start next scan //
 338              		.loc 1 111 0
 339 00e4 FFF7FEFF 		bl	CapSense_ScanAllWidgets
 340              	.LVL36:
 112:zkey.c        ****     ZBlock(&pcb_ZKey,KEY_SCAN_CYCLE);
 341              		.loc 1 112 0
 342 00e8 3221     		movs	r1, #50
 343 00ea 0248     		ldr	r0, .L23
 344 00ec FFF7FEFF 		bl	ZBlock
 345              	.LVL37:
 113:zkey.c        **** }
 346              		.loc 1 113 0
 347              		@ sp needed
 348 00f0 10BD     		pop	{r4, pc}
 349              	.L24:
 350 00f2 C046     		.align	2
 351              	.L23:
 352 00f4 00000000 		.word	pcb_ZKey
 353 00f8 00000000 		.word	KeyNumber
 354 00fc 00000000 		.word	pcb_ZManager
 355              		.cfi_endproc
 356              	.LFE37:
 357              		.size	ZKey, .-ZKey
 358              		.comm	CapProStatus,1,1
 359              		.comm	KeyNumber,1,1
 360              		.global	No
 361              		.section	.rodata
 362              		.align	2
 363              		.set	.LANCHOR0,. + 0
 364              		.type	No, %object
ARM GAS  C:\Users\Zhu\AppData\Local\Temp\cchADI2v.s 			page 11


 365              		.size	No, 28
 366              	No:
 367 0000 0100     		.short	1
 368 0002 0200     		.short	2
 369 0004 0400     		.short	4
 370 0006 0800     		.short	8
 371 0008 1000     		.short	16
 372 000a 2000     		.short	32
 373 000c 4000     		.short	64
 374 000e 8000     		.short	128
 375 0010 0001     		.short	256
 376 0012 0002     		.short	512
 377 0014 0004     		.short	1024
 378 0016 0008     		.short	2048
 379 0018 0010     		.short	4096
 380 001a FFFF     		.short	-1
 381              		.text
 382              	.Letext0:
 383              		.file 2 "Generated_Source\\PSoC4/cytypes.h"
 384              		.file 3 "Generated_Source\\PSoC4/CapSense_Configuration.h"
 385              		.file 4 "Generated_Source\\PSoC4/BLE_1_Stack.h"
 386              		.file 5 "Generated_Source\\PSoC4/CapSense_Structure.h"
 387              		.file 6 "zglobal.h"
 388              		.file 7 "Generated_Source\\PSoC4/CapSense_Processing.h"
 389              		.file 8 "Generated_Source\\PSoC4/CapSense_SelfTest.h"
 390              		.file 9 "Generated_Source\\PSoC4/CapSense_Sensing.h"
 391              		.file 10 "Generated_Source\\PSoC4/CapSense_Control.h"