ARM GAS  C:\Users\ADMINI~1\AppData\Local\Temp\ccRJ0g8G.s 			page 1


   1              		.syntax unified
   2              		.cpu cortex-m0
   3              		.fpu softvfp
   4              		.eabi_attribute 20, 1
   5              		.eabi_attribute 21, 1
   6              		.eabi_attribute 23, 3
   7              		.eabi_attribute 24, 1
   8              		.eabi_attribute 25, 1
   9              		.eabi_attribute 26, 1
  10              		.eabi_attribute 30, 1
  11              		.eabi_attribute 34, 0
  12              		.eabi_attribute 18, 4
  13              		.thumb
  14              		.syntax unified
  15              		.file	"zmanager.c"
  16              		.text
  17              	.Ltext0:
  18              		.cfi_sections	.debug_frame
  19              		.section	.text.KeyBuff_update,"ax",%progbits
  20              		.align	2
  21              		.global	KeyBuff_update
  22              		.code	16
  23              		.thumb_func
  24              		.type	KeyBuff_update, %function
  25              	KeyBuff_update:
  26              	.LFB36:
  27              		.file 1 "zmanager.c"
   1:zmanager.c    **** #include <project.h>
   2:zmanager.c    **** #include "zmain.h"
   3:zmanager.c    **** 
   4:zmanager.c    **** unsigned char Password_ID[14] = {1,3,5,2,4,6};//,0,0,0,0,0,0};
   5:zmanager.c    **** unsigned char Password_length = sizeof(Password_ID);    //6-1;
   6:zmanager.c    **** unsigned char  keyBuffer[14];
   7:zmanager.c    **** uint8 keyBuf_length = sizeof(keyBuffer);
   8:zmanager.c    **** uint8 keyBufferIndex =0;
   9:zmanager.c    **** 
  10:zmanager.c    **** 
  11:zmanager.c    **** uint8 KeyBuff_update(uint8 keyval)
  12:zmanager.c    **** {	
  28              		.loc 1 12 0
  29              		.cfi_startproc
  30              		@ args = 0, pretend = 0, frame = 0
  31              		@ frame_needed = 0, uses_anonymous_args = 0
  32              		@ link register save eliminated.
  33              	.LVL0:
  13:zmanager.c    ****     if(keyBufferIndex < keyBuf_length)
  34              		.loc 1 13 0
  35 0000 074B     		ldr	r3, .L4
  36 0002 1B78     		ldrb	r3, [r3]
  37 0004 074A     		ldr	r2, .L4+4
  38 0006 1278     		ldrb	r2, [r2]
  39 0008 9342     		cmp	r3, r2
  40 000a 07D2     		bcs	.L3
  14:zmanager.c    ****     {
  15:zmanager.c    **** 	    *(keyBuffer + keyBufferIndex)=keyval;
  41              		.loc 1 15 0
  42 000c 064A     		ldr	r2, .L4+8
ARM GAS  C:\Users\ADMINI~1\AppData\Local\Temp\ccRJ0g8G.s 			page 2


  43 000e D054     		strb	r0, [r2, r3]
  16:zmanager.c    **** 	    keyBufferIndex ++;
  44              		.loc 1 16 0
  45 0010 034A     		ldr	r2, .L4
  46 0012 1378     		ldrb	r3, [r2]
  47 0014 0133     		adds	r3, r3, #1
  48 0016 1370     		strb	r3, [r2]
  17:zmanager.c    ****         return true;
  49              		.loc 1 17 0
  50 0018 0120     		movs	r0, #1
  51              	.LVL1:
  52 001a 00E0     		b	.L2
  53              	.LVL2:
  54              	.L3:
  18:zmanager.c    ****     }
  19:zmanager.c    ****     else return false;
  55              		.loc 1 19 0
  56 001c 0020     		movs	r0, #0
  57              	.LVL3:
  58              	.L2:
  20:zmanager.c    **** }
  59              		.loc 1 20 0
  60              		@ sp needed
  61 001e 7047     		bx	lr
  62              	.L5:
  63              		.align	2
  64              	.L4:
  65 0020 00000000 		.word	.LANCHOR0
  66 0024 00000000 		.word	.LANCHOR1
  67 0028 00000000 		.word	keyBuffer
  68              		.cfi_endproc
  69              	.LFE36:
  70              		.size	KeyBuff_update, .-KeyBuff_update
  71              		.section	.text.CHK_Psd_K,"ax",%progbits
  72              		.align	2
  73              		.global	CHK_Psd_K
  74              		.code	16
  75              		.thumb_func
  76              		.type	CHK_Psd_K, %function
  77              	CHK_Psd_K:
  78              	.LFB37:
  21:zmanager.c    **** unsigned char CHK_Psd_K(unsigned char *password_key)
  22:zmanager.c    **** {
  79              		.loc 1 22 0
  80              		.cfi_startproc
  81              		@ args = 0, pretend = 0, frame = 0
  82              		@ frame_needed = 0, uses_anonymous_args = 0
  83              	.LVL4:
  84 0000 10B5     		push	{r4, lr}
  85              		.cfi_def_cfa_offset 8
  86              		.cfi_offset 4, -8
  87              		.cfi_offset 14, -4
  88              	.LVL5:
  23:zmanager.c    **** 	unsigned char j=0;	
  24:zmanager.c    ****     if(keyBufferIndex == 6)
  89              		.loc 1 24 0
  90 0002 0B4B     		ldr	r3, .L12
ARM GAS  C:\Users\ADMINI~1\AppData\Local\Temp\ccRJ0g8G.s 			page 3


  91 0004 1C78     		ldrb	r4, [r3]
  92 0006 062C     		cmp	r4, #6
  93 0008 0AD0     		beq	.L10
  25:zmanager.c    ****     {
  26:zmanager.c    ****     	for(j=0;j<keyBufferIndex;j++) //zzn bug when length of password > Password
  27:zmanager.c    ****     	{
  28:zmanager.c    ****     		if(Password_ID[j]!=*(password_key+j))
  29:zmanager.c    ****     		{
  30:zmanager.c    ****     			return false;
  31:zmanager.c    ****     		}
  32:zmanager.c    ****     	}
  33:zmanager.c    ****     	return true;	
  34:zmanager.c    ****     }
  35:zmanager.c    ****     else    
  36:zmanager.c    ****     {
  37:zmanager.c    ****      return false;   
  94              		.loc 1 37 0
  95 000a 0020     		movs	r0, #0
  96              	.LVL6:
  97 000c 0EE0     		b	.L8
  98              	.LVL7:
  99              	.L9:
  28:zmanager.c    ****     		{
 100              		.loc 1 28 0
 101 000e 094A     		ldr	r2, .L12+4
 102 0010 D218     		adds	r2, r2, r3
 103 0012 1179     		ldrb	r1, [r2, #4]
 104 0014 C25C     		ldrb	r2, [r0, r3]
 105 0016 9142     		cmp	r1, r2
 106 0018 07D1     		bne	.L11
  26:zmanager.c    ****     	{
 107              		.loc 1 26 0 discriminator 2
 108 001a 0133     		adds	r3, r3, #1
 109              	.LVL8:
 110 001c DBB2     		uxtb	r3, r3
 111              	.LVL9:
 112 001e 00E0     		b	.L7
 113              	.LVL10:
 114              	.L10:
 115 0020 0023     		movs	r3, #0
 116              	.LVL11:
 117              	.L7:
  26:zmanager.c    ****     	{
 118              		.loc 1 26 0 is_stmt 0 discriminator 1
 119 0022 A342     		cmp	r3, r4
 120 0024 F3D3     		bcc	.L9
  33:zmanager.c    ****     }
 121              		.loc 1 33 0 is_stmt 1
 122 0026 0120     		movs	r0, #1
 123              	.LVL12:
 124 0028 00E0     		b	.L8
 125              	.LVL13:
 126              	.L11:
  30:zmanager.c    ****     		}
 127              		.loc 1 30 0
 128 002a 0020     		movs	r0, #0
 129              	.LVL14:
ARM GAS  C:\Users\ADMINI~1\AppData\Local\Temp\ccRJ0g8G.s 			page 4


 130              	.L8:
  38:zmanager.c    ****     }
  39:zmanager.c    **** }
 131              		.loc 1 39 0
 132              		@ sp needed
 133 002c 10BD     		pop	{r4, pc}
 134              	.L13:
 135 002e C046     		.align	2
 136              	.L12:
 137 0030 00000000 		.word	.LANCHOR0
 138 0034 00000000 		.word	.LANCHOR1
 139              		.cfi_endproc
 140              	.LFE37:
 141              		.size	CHK_Psd_K, .-CHK_Psd_K
 142              		.section	.text.CHK_Psd_B,"ax",%progbits
 143              		.align	2
 144              		.global	CHK_Psd_B
 145              		.code	16
 146              		.thumb_func
 147              		.type	CHK_Psd_B, %function
 148              	CHK_Psd_B:
 149              	.LFB38:
  40:zmanager.c    **** unsigned char CHK_Psd_B(unsigned char *password_ble)
  41:zmanager.c    **** {
 150              		.loc 1 41 0
 151              		.cfi_startproc
 152              		@ args = 0, pretend = 0, frame = 0
 153              		@ frame_needed = 0, uses_anonymous_args = 0
 154              	.LVL15:
 155 0000 10B5     		push	{r4, lr}
 156              		.cfi_def_cfa_offset 8
 157              		.cfi_offset 4, -8
 158              		.cfi_offset 14, -4
 159              	.LVL16:
  42:zmanager.c    **** 	unsigned char j=0;	
  43:zmanager.c    ****     if(ZBleRecLen == 6)
 160              		.loc 1 43 0
 161 0002 0E4B     		ldr	r3, .L22
 162 0004 1C78     		ldrb	r4, [r3]
 163 0006 062C     		cmp	r4, #6
 164 0008 14D1     		bne	.L21
 165 000a 0CE0     		b	.L20
 166              	.LVL17:
 167              	.L19:
  44:zmanager.c    ****     {
  45:zmanager.c    ****     	for(j=0;j<ZBleRecLen;j++) //zzn bug when length of password > Password
  46:zmanager.c    ****     	{
  47:zmanager.c    ****     		if(Password_ID[j]!=*(password_ble+j))
 168              		.loc 1 47 0
 169 000c 0C4A     		ldr	r2, .L22+4
 170 000e D218     		adds	r2, r2, r3
 171 0010 1179     		ldrb	r1, [r2, #4]
 172 0012 C25C     		ldrb	r2, [r0, r3]
 173 0014 9142     		cmp	r1, r2
 174 0016 03D0     		beq	.L17
  48:zmanager.c    ****     		{
  49:zmanager.c    ****     			ZBleRecBuffer_CLR();
ARM GAS  C:\Users\ADMINI~1\AppData\Local\Temp\ccRJ0g8G.s 			page 5


 175              		.loc 1 49 0
 176 0018 FFF7FEFF 		bl	ZBleRecBuffer_CLR
 177              	.LVL18:
  50:zmanager.c    ****                 return false;
 178              		.loc 1 50 0
 179 001c 0020     		movs	r0, #0
 180 001e 0CE0     		b	.L18
 181              	.LVL19:
 182              	.L17:
  45:zmanager.c    ****     	{
 183              		.loc 1 45 0 discriminator 2
 184 0020 0133     		adds	r3, r3, #1
 185              	.LVL20:
 186 0022 DBB2     		uxtb	r3, r3
 187              	.LVL21:
 188 0024 00E0     		b	.L15
 189              	.LVL22:
 190              	.L20:
 191 0026 0023     		movs	r3, #0
 192              	.LVL23:
 193              	.L15:
  45:zmanager.c    ****     	{
 194              		.loc 1 45 0 is_stmt 0 discriminator 1
 195 0028 A342     		cmp	r3, r4
 196 002a EFD3     		bcc	.L19
  51:zmanager.c    ****     		}
  52:zmanager.c    ****     	}
  53:zmanager.c    ****         ZBleRecBuffer_CLR();
 197              		.loc 1 53 0 is_stmt 1
 198 002c FFF7FEFF 		bl	ZBleRecBuffer_CLR
 199              	.LVL24:
  54:zmanager.c    ****     	return true;	
 200              		.loc 1 54 0
 201 0030 0120     		movs	r0, #1
 202 0032 02E0     		b	.L18
 203              	.LVL25:
 204              	.L21:
  55:zmanager.c    ****     }
  56:zmanager.c    ****     else    
  57:zmanager.c    ****     {
  58:zmanager.c    ****         ZBleRecBuffer_CLR();
 205              		.loc 1 58 0
 206 0034 FFF7FEFF 		bl	ZBleRecBuffer_CLR
 207              	.LVL26:
  59:zmanager.c    ****         return false;   
 208              		.loc 1 59 0
 209 0038 0020     		movs	r0, #0
 210              	.LVL27:
 211              	.L18:
  60:zmanager.c    ****     }
  61:zmanager.c    **** }
 212              		.loc 1 61 0
 213              		@ sp needed
 214 003a 10BD     		pop	{r4, pc}
 215              	.L23:
 216              		.align	2
 217              	.L22:
ARM GAS  C:\Users\ADMINI~1\AppData\Local\Temp\ccRJ0g8G.s 			page 6


 218 003c 00000000 		.word	ZBleRecLen
 219 0040 00000000 		.word	.LANCHOR1
 220              		.cfi_endproc
 221              	.LFE38:
 222              		.size	CHK_Psd_B, .-CHK_Psd_B
 223              		.section	.text.ZDestroyManager,"ax",%progbits
 224              		.align	2
 225              		.global	ZDestroyManager
 226              		.code	16
 227              		.thumb_func
 228              		.type	ZDestroyManager, %function
 229              	ZDestroyManager:
 230              	.LFB39:
  62:zmanager.c    **** void ZDestroyManager()
  63:zmanager.c    **** {
 231              		.loc 1 63 0
 232              		.cfi_startproc
 233              		@ args = 0, pretend = 0, frame = 0
 234              		@ frame_needed = 0, uses_anonymous_args = 0
 235 0000 10B5     		push	{r4, lr}
 236              		.cfi_def_cfa_offset 8
 237              		.cfi_offset 4, -8
 238              		.cfi_offset 14, -4
  64:zmanager.c    ****     keyBufferIndex =0;
 239              		.loc 1 64 0
 240 0002 0022     		movs	r2, #0
 241 0004 054B     		ldr	r3, .L25
 242 0006 1A70     		strb	r2, [r3]
  65:zmanager.c    ****     ZDestroy(&pcb_ZManager);
 243              		.loc 1 65 0
 244 0008 0548     		ldr	r0, .L25+4
 245 000a FFF7FEFF 		bl	ZDestroy
 246              	.LVL28:
  66:zmanager.c    ****     Pin_BackLight_Write(Back_Dim);
 247              		.loc 1 66 0
 248 000e 0020     		movs	r0, #0
 249 0010 FFF7FEFF 		bl	Pin_BackLight_Write
 250              	.LVL29:
  67:zmanager.c    ****                     
  68:zmanager.c    ****     pcb_ZKey.cycle = 1;
 251              		.loc 1 68 0
 252 0014 0122     		movs	r2, #1
 253 0016 034B     		ldr	r3, .L25+8
 254 0018 DA70     		strb	r2, [r3, #3]
  69:zmanager.c    **** }
 255              		.loc 1 69 0
 256              		@ sp needed
 257 001a 10BD     		pop	{r4, pc}
 258              	.L26:
 259              		.align	2
 260              	.L25:
 261 001c 00000000 		.word	.LANCHOR0
 262 0020 00000000 		.word	pcb_ZManager
 263 0024 00000000 		.word	pcb_ZKey
 264              		.cfi_endproc
 265              	.LFE39:
 266              		.size	ZDestroyManager, .-ZDestroyManager
ARM GAS  C:\Users\ADMINI~1\AppData\Local\Temp\ccRJ0g8G.s 			page 7


 267              		.section	.text.ZManager,"ax",%progbits
 268              		.align	2
 269              		.global	ZManager
 270              		.code	16
 271              		.thumb_func
 272              		.type	ZManager, %function
 273              	ZManager:
 274              	.LFB40:
  70:zmanager.c    **** 
  71:zmanager.c    **** void ZManager()
  72:zmanager.c    **** {
 275              		.loc 1 72 0
 276              		.cfi_startproc
 277              		@ args = 0, pretend = 0, frame = 0
 278              		@ frame_needed = 0, uses_anonymous_args = 0
 279 0000 10B5     		push	{r4, lr}
 280              		.cfi_def_cfa_offset 8
 281              		.cfi_offset 4, -8
 282              		.cfi_offset 14, -4
  73:zmanager.c    ****     uint8 k;
  74:zmanager.c    ****     
  75:zmanager.c    ****     pcb_ZManager.status = excute;
 283              		.loc 1 75 0
 284 0002 4B4B     		ldr	r3, .L45
 285 0004 0222     		movs	r2, #2
 286 0006 1A70     		strb	r2, [r3]
  76:zmanager.c    **** 	if(pcb_ZManager.mode == mdMBle)
 287              		.loc 1 76 0
 288 0008 5B78     		ldrb	r3, [r3, #1]
 289 000a 052B     		cmp	r3, #5
 290 000c 18D1     		bne	.L28
  77:zmanager.c    ****     {
  78:zmanager.c    ****         if(CHK_Psd_B((unsigned char *)&ZBleRecBuffer))
 291              		.loc 1 78 0
 292 000e 4948     		ldr	r0, .L45+4
 293 0010 FFF7FEFF 		bl	CHK_Psd_B
 294              	.LVL30:
 295 0014 0028     		cmp	r0, #0
 296 0016 0AD0     		beq	.L29
  79:zmanager.c    ****         {
  80:zmanager.c    ****             ZCreate(&pcb_ZMoto,mdMOTO_CCLOCK,MOTO_CYC);
 297              		.loc 1 80 0
 298 0018 0B22     		movs	r2, #11
 299 001a 0221     		movs	r1, #2
 300 001c 4648     		ldr	r0, .L45+8
 301 001e FFF7FEFF 		bl	ZCreate
 302              	.LVL31:
  81:zmanager.c    ****             ZCreate(&pcb_ZBeep,mdBeep,beep_notice);
 303              		.loc 1 81 0
 304 0022 0122     		movs	r2, #1
 305 0024 0421     		movs	r1, #4
 306 0026 4548     		ldr	r0, .L45+12
 307 0028 FFF7FEFF 		bl	ZCreate
 308              	.LVL32:
 309 002c 04E0     		b	.L30
 310              	.L29:
  82:zmanager.c    ****         }
ARM GAS  C:\Users\ADMINI~1\AppData\Local\Temp\ccRJ0g8G.s 			page 8


  83:zmanager.c    ****         else
  84:zmanager.c    ****         {
  85:zmanager.c    ****             ZCreate(&pcb_ZBeep,mdBeep,beep_error); 
 311              		.loc 1 85 0
 312 002e 0322     		movs	r2, #3
 313 0030 0421     		movs	r1, #4
 314 0032 4248     		ldr	r0, .L45+12
 315 0034 FFF7FEFF 		bl	ZCreate
 316              	.LVL33:
 317              	.L30:
  86:zmanager.c    ****         }
  87:zmanager.c    **** //        pcb_ZKey.cycle = 1;
  88:zmanager.c    ****         ZDestroy(&pcb_ZManager);
 318              		.loc 1 88 0
 319 0038 3D48     		ldr	r0, .L45
 320 003a FFF7FEFF 		bl	ZDestroy
 321              	.LVL34:
 322 003e 76E0     		b	.L27
 323              	.L28:
  89:zmanager.c    ****     }
  90:zmanager.c    ****     else if(pcb_ZManager.mode == mdMKey)
 324              		.loc 1 90 0
 325 0040 062B     		cmp	r3, #6
 326 0042 74D1     		bne	.L27
  91:zmanager.c    ****     {
  92:zmanager.c    ****         ZBlock(&pcb_ZManager,WaitKeyTime);//wait next key 3s
 327              		.loc 1 92 0
 328 0044 FA21     		movs	r1, #250
 329 0046 4901     		lsls	r1, r1, #5
 330 0048 3948     		ldr	r0, .L45
 331 004a FFF7FEFF 		bl	ZBlock
 332              	.LVL35:
  93:zmanager.c    ****         switch (KeyNumber)
 333              		.loc 1 93 0
 334 004e 3C4B     		ldr	r3, .L45+16
 335 0050 1878     		ldrb	r0, [r3]
 336 0052 0A28     		cmp	r0, #10
 337 0054 27D0     		beq	.L43
 338 0056 05D3     		bcc	.L34
 339 0058 0C28     		cmp	r0, #12
 340 005a 55D0     		beq	.L35
 341 005c 41D3     		bcc	.L36
 342 005e 5528     		cmp	r0, #85
 343 0060 12D0     		beq	.L37
 344 0062 5DE0     		b	.L44
 345              	.L34:
  94:zmanager.c    ****         {
  95:zmanager.c    ****             case 0:
  96:zmanager.c    ****             case 1:
  97:zmanager.c    ****             case 2:
  98:zmanager.c    ****             case 3:
  99:zmanager.c    ****             case 4:
 100:zmanager.c    ****             case 5:
 101:zmanager.c    ****             case 6:
 102:zmanager.c    ****             case 7:
 103:zmanager.c    ****             case 8:
 104:zmanager.c    ****             case 9:
ARM GAS  C:\Users\ADMINI~1\AppData\Local\Temp\ccRJ0g8G.s 			page 9


 105:zmanager.c    ****                 if(false == KeyBuff_update(KeyNumber))
 346              		.loc 1 105 0
 347 0064 FFF7FEFF 		bl	KeyBuff_update
 348              	.LVL36:
 349 0068 0028     		cmp	r0, #0
 350 006a 07D1     		bne	.L38
 106:zmanager.c    ****                 {
 107:zmanager.c    ****                     ZCreate(&pcb_ZBeep,mdBeep,beep_fault);
 351              		.loc 1 107 0
 352 006c 0622     		movs	r2, #6
 353 006e 0421     		movs	r1, #4
 354 0070 3248     		ldr	r0, .L45+12
 355 0072 FFF7FEFF 		bl	ZCreate
 356              	.LVL37:
 108:zmanager.c    ****                     ZDestroyManager();
 357              		.loc 1 108 0
 358 0076 FFF7FEFF 		bl	ZDestroyManager
 359              	.LVL38:
 360 007a 58E0     		b	.L27
 361              	.L38:
 109:zmanager.c    ****                 }
 110:zmanager.c    ****                 else
 111:zmanager.c    ****                 {
 112:zmanager.c    ****                     ZCreate(&pcb_ZBeep,mdBeep,beep_notice);   //notice
 362              		.loc 1 112 0
 363 007c 0122     		movs	r2, #1
 364 007e 0421     		movs	r1, #4
 365 0080 2E48     		ldr	r0, .L45+12
 366 0082 FFF7FEFF 		bl	ZCreate
 367              	.LVL39:
 368 0086 52E0     		b	.L27
 369              	.L37:
 113:zmanager.c    ****                 }
 114:zmanager.c    ****                 break;
 115:zmanager.c    ****             case 0x55:  //time out
 116:zmanager.c    ****                 ZCreate(&pcb_ZBeep,mdBeep,beep_timeout);   //alam
 370              		.loc 1 116 0
 371 0088 0422     		movs	r2, #4
 372 008a 0421     		movs	r1, #4
 373 008c 2B48     		ldr	r0, .L45+12
 374 008e FFF7FEFF 		bl	ZCreate
 375              	.LVL40:
 117:zmanager.c    ****                 ZDestroyManager();
 376              		.loc 1 117 0
 377 0092 FFF7FEFF 		bl	ZDestroyManager
 378              	.LVL41:
 118:zmanager.c    ****                 break;
 379              		.loc 1 118 0
 380 0096 4AE0     		b	.L27
 381              	.LVL42:
 382              	.L39:
 119:zmanager.c    ****             case 0x0A:  //*
 120:zmanager.c    ****                 for(k=0;k<6;k++)
 121:zmanager.c    ****                 {
 122:zmanager.c    ****                     eepromArray[k+1]= keyBuffer[k];
 383              		.loc 1 122 0 discriminator 3
 384 0098 5A1C     		adds	r2, r3, #1
ARM GAS  C:\Users\ADMINI~1\AppData\Local\Temp\ccRJ0g8G.s 			page 10


 385 009a 2A49     		ldr	r1, .L45+20
 386 009c C95C     		ldrb	r1, [r1, r3]
 387 009e 2A4B     		ldr	r3, .L45+24
 388              	.LVL43:
 389 00a0 9954     		strb	r1, [r3, r2]
 120:zmanager.c    ****                 {
 390              		.loc 1 120 0 discriminator 3
 391 00a2 D3B2     		uxtb	r3, r2
 392              	.LVL44:
 393 00a4 00E0     		b	.L33
 394              	.LVL45:
 395              	.L43:
  93:zmanager.c    ****         {
 396              		.loc 1 93 0
 397 00a6 0023     		movs	r3, #0
 398              	.L33:
 399              	.LVL46:
 120:zmanager.c    ****                 {
 400              		.loc 1 120 0 discriminator 1
 401 00a8 052B     		cmp	r3, #5
 402 00aa F5D9     		bls	.L39
 123:zmanager.c    ****                 }
 124:zmanager.c    ****                 eepromArray[0]=0x5A;
 403              		.loc 1 124 0
 404 00ac 2649     		ldr	r1, .L45+24
 405 00ae 5A23     		movs	r3, #90
 406              	.LVL47:
 407 00b0 0B70     		strb	r3, [r1]
 125:zmanager.c    ****                 eepromArray[7]=0xA5;
 408              		.loc 1 125 0
 409 00b2 4B33     		adds	r3, r3, #75
 410 00b4 CB71     		strb	r3, [r1, #7]
 126:zmanager.c    ****                 eepromReturnValue = Em_EEPROM_Write(EEPROM_START, eepromArray, PSD_EEPROM_SIZE); 
 411              		.loc 1 126 0
 412 00b6 254B     		ldr	r3, .L45+28
 413 00b8 0822     		movs	r2, #8
 414 00ba 0020     		movs	r0, #0
 415 00bc FFF7FEFF 		bl	Cy_Em_EEPROM_Write
 416              	.LVL48:
 417 00c0 234B     		ldr	r3, .L45+32
 418 00c2 1870     		strb	r0, [r3]
 127:zmanager.c    ****                 if(eepromReturnValue != CY_EM_EEPROM_SUCCESS)
 419              		.loc 1 127 0
 420 00c4 0028     		cmp	r0, #0
 421 00c6 04D0     		beq	.L40
 128:zmanager.c    ****                 {
 129:zmanager.c    ****                     ZCreate(&pcb_ZBeep,mdBeep,eeprom_error);
 422              		.loc 1 129 0
 423 00c8 0522     		movs	r2, #5
 424 00ca 0421     		movs	r1, #4
 425 00cc 1B48     		ldr	r0, .L45+12
 426 00ce FFF7FEFF 		bl	ZCreate
 427              	.LVL49:
 428              	.L40:
 130:zmanager.c    ****                 }
 131:zmanager.c    ****                 ZCreate(&pcb_ZBeep,mdBeep,beep_notice);
 429              		.loc 1 131 0
ARM GAS  C:\Users\ADMINI~1\AppData\Local\Temp\ccRJ0g8G.s 			page 11


 430 00d2 0122     		movs	r2, #1
 431 00d4 0421     		movs	r1, #4
 432 00d6 1948     		ldr	r0, .L45+12
 433 00d8 FFF7FEFF 		bl	ZCreate
 434              	.LVL50:
 132:zmanager.c    ****                 ZDestroyManager();
 435              		.loc 1 132 0
 436 00dc FFF7FEFF 		bl	ZDestroyManager
 437              	.LVL51:
 133:zmanager.c    ****                 break;
 438              		.loc 1 133 0
 439 00e0 25E0     		b	.L27
 440              	.L36:
 134:zmanager.c    ****             case 0x0B:  //#
 135:zmanager.c    ****                 if(CHK_Psd_K((unsigned char *)&keyBuffer))
 441              		.loc 1 135 0
 442 00e2 1848     		ldr	r0, .L45+20
 443 00e4 FFF7FEFF 		bl	CHK_Psd_K
 444              	.LVL52:
 445 00e8 0028     		cmp	r0, #0
 446 00ea 05D0     		beq	.L41
 136:zmanager.c    ****                 {
 137:zmanager.c    ****                     ZCreate(&pcb_ZMoto,mdMOTO_CCLOCK,MOTO_CYC);
 447              		.loc 1 137 0
 448 00ec 0B22     		movs	r2, #11
 449 00ee 0221     		movs	r1, #2
 450 00f0 1148     		ldr	r0, .L45+8
 451 00f2 FFF7FEFF 		bl	ZCreate
 452              	.LVL53:
 453 00f6 04E0     		b	.L42
 454              	.L41:
 138:zmanager.c    ****                 }
 139:zmanager.c    ****                 else
 140:zmanager.c    ****                 {
 141:zmanager.c    ****                     ZCreate(&pcb_ZBeep,mdBeep,beep_error);
 455              		.loc 1 141 0
 456 00f8 0322     		movs	r2, #3
 457 00fa 0421     		movs	r1, #4
 458 00fc 0F48     		ldr	r0, .L45+12
 459 00fe FFF7FEFF 		bl	ZCreate
 460              	.LVL54:
 461              	.L42:
 142:zmanager.c    ****                 }
 143:zmanager.c    ****                 ZDestroyManager();
 462              		.loc 1 143 0
 463 0102 FFF7FEFF 		bl	ZDestroyManager
 464              	.LVL55:
 144:zmanager.c    ****                 break;
 465              		.loc 1 144 0
 466 0106 12E0     		b	.L27
 467              	.L35:
 145:zmanager.c    ****             case 0x0C:  //prox
 146:zmanager.c    **** //                Pin_BackLight_Write(Back_Light);
 147:zmanager.c    ****                 BLE_State = CyBle_GetState();
 468              		.loc 1 147 0
 469 0108 124B     		ldr	r3, .L45+36
 470 010a 1B78     		ldrb	r3, [r3]
ARM GAS  C:\Users\ADMINI~1\AppData\Local\Temp\ccRJ0g8G.s 			page 12


 471 010c 124A     		ldr	r2, .L45+40
 472 010e 1370     		strb	r3, [r2]
 148:zmanager.c    ****                 if(BLE_State == CYBLE_STATE_DISCONNECTED)
 473              		.loc 1 148 0
 474 0110 042B     		cmp	r3, #4
 475 0112 0CD1     		bne	.L27
 149:zmanager.c    ****                 {
 150:zmanager.c    ****                     apiResult = CyBle_GappStartAdvertisement(CYBLE_ADVERTISING_FAST);
 476              		.loc 1 150 0
 477 0114 0020     		movs	r0, #0
 478 0116 FFF7FEFF 		bl	CyBle_GappStartAdvertisement
 479              	.LVL56:
 480 011a 104B     		ldr	r3, .L45+44
 481 011c 1880     		strh	r0, [r3]
 482 011e 06E0     		b	.L27
 483              	.L44:
 151:zmanager.c    ****                     #ifdef DEBUG_UART
 152:zmanager.c    ****                         if(CYBLE_ERROR_OK == apiResult)     DBG_PRINTF("StartAdvertisement %x :succ
 153:zmanager.c    ****                         else if(CYBLE_ERROR_INVALID_PARAMETER == apiResult) DBG_PRINTF("StartAdvert
 154:zmanager.c    ****                         else if(CYBLE_ERROR_INVALID_STATE == apiResult) DBG_PRINTF("StartAdvertisem
 155:zmanager.c    ****                         else DBG_PRINTF("StartAdvertisement %x :return x\r\n",CYBLE_ADVERTISING_FAS
 156:zmanager.c    ****                     #endif
 157:zmanager.c    ****                 }
 158:zmanager.c    ****                 break;
 159:zmanager.c    ****             default:
 160:zmanager.c    ****                 ZCreate(&pcb_ZBeep,mdBeep,beep_fault);   //alam
 484              		.loc 1 160 0
 485 0120 0622     		movs	r2, #6
 486 0122 0421     		movs	r1, #4
 487 0124 0548     		ldr	r0, .L45+12
 488 0126 FFF7FEFF 		bl	ZCreate
 489              	.LVL57:
 161:zmanager.c    ****                 ZDestroyManager();
 490              		.loc 1 161 0
 491 012a FFF7FEFF 		bl	ZDestroyManager
 492              	.LVL58:
 493              	.L27:
 162:zmanager.c    ****                 break;
 163:zmanager.c    ****         }
 164:zmanager.c    ****     }
 165:zmanager.c    **** }
 494              		.loc 1 165 0
 495              		@ sp needed
 496 012e 10BD     		pop	{r4, pc}
 497              	.L46:
 498              		.align	2
 499              	.L45:
 500 0130 00000000 		.word	pcb_ZManager
 501 0134 00000000 		.word	ZBleRecBuffer
 502 0138 00000000 		.word	pcb_ZMoto
 503 013c 00000000 		.word	pcb_ZBeep
 504 0140 00000000 		.word	KeyNumber
 505 0144 00000000 		.word	keyBuffer
 506 0148 00000000 		.word	eepromArray
 507 014c 00000000 		.word	Em_EEPROM_context
 508 0150 00000000 		.word	eepromReturnValue
 509 0154 00000000 		.word	cyBle_state
ARM GAS  C:\Users\ADMINI~1\AppData\Local\Temp\ccRJ0g8G.s 			page 13


 510 0158 00000000 		.word	BLE_State
 511 015c 00000000 		.word	apiResult
 512              		.cfi_endproc
 513              	.LFE40:
 514              		.size	ZManager, .-ZManager
 515              		.global	keyBufferIndex
 516              		.global	keyBuf_length
 517              		.comm	keyBuffer,14,4
 518              		.global	Password_length
 519              		.global	Password_ID
 520              		.data
 521              		.align	2
 522              		.set	.LANCHOR1,. + 0
 523              		.type	keyBuf_length, %object
 524              		.size	keyBuf_length, 1
 525              	keyBuf_length:
 526 0000 0E       		.byte	14
 527 0001 000000   		.space	3
 528              		.type	Password_ID, %object
 529              		.size	Password_ID, 14
 530              	Password_ID:
 531 0004 01       		.byte	1
 532 0005 03       		.byte	3
 533 0006 05       		.byte	5
 534 0007 02       		.byte	2
 535 0008 04       		.byte	4
 536 0009 06       		.byte	6
 537 000a 00000000 		.space	8
 537      00000000 
 538              		.type	Password_length, %object
 539              		.size	Password_length, 1
 540              	Password_length:
 541 0012 0E       		.byte	14
 542              		.bss
 543              		.set	.LANCHOR0,. + 0
 544              		.type	keyBufferIndex, %object
 545              		.size	keyBufferIndex, 1
 546              	keyBufferIndex:
 547 0000 00       		.space	1
 548              		.text
 549              	.Letext0:
 550              		.file 2 "c:\\program files (x86)\\cypress\\psoc creator\\4.2\\psoc creator\\import\\gnu\\arm\\5.4.
 551              		.file 3 "c:\\program files (x86)\\cypress\\psoc creator\\4.2\\psoc creator\\import\\gnu\\arm\\5.4.
 552              		.file 4 "Generated_Source\\PSoC4/cytypes.h"
 553              		.file 5 "Generated_Source\\PSoC4/BLE_1_Stack.h"
 554              		.file 6 "Generated_Source\\PSoC4/BLE_1_eventHandler.h"
 555              		.file 7 "Generated_Source\\PSoC4/cy_em_eeprom.h"
 556              		.file 8 "zglobal.h"
 557              		.file 9 "Generated_Source\\PSoC4/Em_EEPROM.h"
 558              		.file 10 "zble.h"
 559              		.file 11 "zkey.h"
 560              		.file 12 "eeprom.h"
 561              		.file 13 "Generated_Source\\PSoC4/Pin_BackLight.h"
 562              		.file 14 "Generated_Source\\PSoC4/BLE_1.h"